
/home/jimple/Documents/ysyx/ysyx-workbench/am-kernels/tests/cpu-tests/build/add-longlong-riscv32e-ysyxsoc.elf:     file format elf32-littleriscv

Sections:
Idx Name          Size      VMA       LMA       File off  Algn
  0 .text         000001a0  30000000  30000000  00001000  2**2
                  CONTENTS, ALLOC, LOAD, READONLY, CODE
  1 .srodata.mainargs 00000001  300001a0  300001a0  000011a0  2**2
                  CONTENTS, ALLOC, LOAD, READONLY, DATA
  2 .data.ans     00000200  0f000000  300001a1  00002000  2**3
                  CONTENTS, ALLOC, LOAD, DATA
  3 .data.test_data 00000040  0f000200  300003a1  00002200  2**3
                  CONTENTS, ALLOC, LOAD, DATA
  4 .comment      0000002b  00000000  00000000  00002240  2**0
                  CONTENTS, READONLY
  5 .riscv.attributes 0000001a  00000000  00000000  0000226b  2**0
                  CONTENTS, READONLY
SYMBOL TABLE:
30000000 l    d  .text	00000000 .text
300001a0 l    d  .srodata.mainargs	00000000 .srodata.mainargs
0f000000 l    d  .data.ans	00000000 .data.ans
0f000200 l    d  .data.test_data	00000000 .data.test_data
00000000 l    d  .comment	00000000 .comment
00000000 l    d  .riscv.attributes	00000000 .riscv.attributes
00000000 l    df *ABS*	00000000 start.o
00000000 l    df *ABS*	00000000 add-longlong.c
00000000 l    df *ABS*	00000000 trm.c
300001a0 l     O .srodata.mainargs	00000001 mainargs
00000000 l    df *ABS*	00000000 string.c
3000011c g     F .text	00000060 _trm_init
300001a1 g       .srodata.mainargs	00000000 _data_lma_end
0f002000 g       .data.test_data	00000000 _stack_pointer
300001a0 g       .text	00000000 _etext
3000017c g     F .text	00000024 memcpy
20000000 g       *ABS*	00000000 _pmem_start
300001a0 g       .srodata.mainargs	00000000 _rodata_end
0f000240 g       .data.test_data	00000000 _bss_start
300001a1 g       .srodata.mainargs	00000000 edata
0f001800 g       *ABS*	00000000 _heap_end
0f001000 g       *ABS*	00000000 _heap_start
0f001800 g       *ABS*	00000000 _stack_top
0f002000 g       .data.test_data	00000000 end
30000010 g     F .text	00000018 check
300001a0 g       .text	00000000 etext
30000000 g     F .text	00000000 _start
00000000 g       *ABS*	00000000 _entry_offset
30000028 g     F .text	000000e8 main
0f000000 g       .srodata.mainargs	00000000 _data_vma_start
0f000000 g     O .data.ans	00000200 ans
0f002000 g       .data.test_data	00000000 _end
300001a1 g       *ABS*	00000000 _data_lma_start
30000110 g     F .text	0000000c halt
0f000200 g     O .data.test_data	00000040 test_data



Disassembly of section .text:

30000000 <_start>:
30000000:	00000413          	li	s0,0
30000004:	df002117          	auipc	sp,0xdf002
30000008:	ffc10113          	addi	sp,sp,-4 # f002000 <_end>
3000000c:	110000ef          	jal	ra,3000011c <_trm_init>

30000010 <check>:
30000010:	00050463          	beqz	a0,30000018 <check+0x8>
30000014:	00008067          	ret
30000018:	ff410113          	addi	sp,sp,-12
3000001c:	00100513          	li	a0,1
30000020:	00112423          	sw	ra,8(sp)
30000024:	0ec000ef          	jal	ra,30000110 <halt>

30000028 <main>:
30000028:	fe010113          	addi	sp,sp,-32
3000002c:	df000797          	auipc	a5,0xdf000
30000030:	1d478793          	addi	a5,a5,468 # f000200 <test_data>
30000034:	00f12823          	sw	a5,16(sp)
30000038:	df000797          	auipc	a5,0xdf000
3000003c:	fc878793          	addi	a5,a5,-56 # f000000 <ans>
30000040:	00112e23          	sw	ra,28(sp)
30000044:	00812c23          	sw	s0,24(sp)
30000048:	00912a23          	sw	s1,20(sp)
3000004c:	00f12623          	sw	a5,12(sp)
30000050:	00012423          	sw	zero,8(sp)
30000054:	01012783          	lw	a5,16(sp)
30000058:	00812703          	lw	a4,8(sp)
3000005c:	00c12483          	lw	s1,12(sp)
30000060:	00e787b3          	add	a5,a5,a4
30000064:	0007a603          	lw	a2,0(a5)
30000068:	0047a783          	lw	a5,4(a5)
3000006c:	00048413          	mv	s0,s1
30000070:	00f12223          	sw	a5,4(sp)
30000074:	df000797          	auipc	a5,0xdf000
30000078:	18c78793          	addi	a5,a5,396 # f000200 <test_data>
3000007c:	00f12823          	sw	a5,16(sp)
30000080:	00078493          	mv	s1,a5
30000084:	0004a783          	lw	a5,0(s1)
30000088:	0044a303          	lw	t1,4(s1)
3000008c:	00412703          	lw	a4,4(sp)
30000090:	00f607b3          	add	a5,a2,a5
30000094:	00442683          	lw	a3,4(s0)
30000098:	00042503          	lw	a0,0(s0)
3000009c:	00c7b5b3          	sltu	a1,a5,a2
300000a0:	00670333          	add	t1,a4,t1
300000a4:	006585b3          	add	a1,a1,t1
300000a8:	00f54533          	xor	a0,a0,a5
300000ac:	00b6c7b3          	xor	a5,a3,a1
300000b0:	00f56533          	or	a0,a0,a5
300000b4:	00153513          	seqz	a0,a0
300000b8:	00c12023          	sw	a2,0(sp)
300000bc:	f55ff0ef          	jal	ra,30000010 <check>
300000c0:	00848493          	addi	s1,s1,8
300000c4:	df000797          	auipc	a5,0xdf000
300000c8:	17c78793          	addi	a5,a5,380 # f000240 <_bss_start>
300000cc:	00012603          	lw	a2,0(sp)
300000d0:	00840413          	addi	s0,s0,8
300000d4:	faf498e3          	bne	s1,a5,30000084 <main+0x5c>
300000d8:	00812783          	lw	a5,8(sp)
300000dc:	00c12683          	lw	a3,12(sp)
300000e0:	00878713          	addi	a4,a5,8
300000e4:	04068693          	addi	a3,a3,64
300000e8:	00e12423          	sw	a4,8(sp)
300000ec:	04000793          	li	a5,64
300000f0:	00d12623          	sw	a3,12(sp)
300000f4:	f6f710e3          	bne	a4,a5,30000054 <main+0x2c>
300000f8:	01c12083          	lw	ra,28(sp)
300000fc:	01812403          	lw	s0,24(sp)
30000100:	01412483          	lw	s1,20(sp)
30000104:	00000513          	li	a0,0
30000108:	02010113          	addi	sp,sp,32
3000010c:	00008067          	ret

30000110 <halt>:
30000110:	00050513          	mv	a0,a0
30000114:	00100073          	ebreak
30000118:	0000006f          	j	30000118 <halt+0x8>

3000011c <_trm_init>:
3000011c:	df000517          	auipc	a0,0xdf000
30000120:	ee450513          	addi	a0,a0,-284 # f000000 <ans>
30000124:	df000617          	auipc	a2,0xdf000
30000128:	11c60613          	addi	a2,a2,284 # f000240 <_bss_start>
3000012c:	ff410113          	addi	sp,sp,-12
30000130:	40a60633          	sub	a2,a2,a0
30000134:	00000597          	auipc	a1,0x0
30000138:	06d58593          	addi	a1,a1,109 # 300001a1 <_data_lma_end>
3000013c:	00112423          	sw	ra,8(sp)
30000140:	03c000ef          	jal	ra,3000017c <memcpy>
30000144:	100007b7          	lui	a5,0x10000
30000148:	f8000713          	li	a4,-128
3000014c:	00e781a3          	sb	a4,3(a5) # 10000003 <_end+0xffe003>
30000150:	00100713          	li	a4,1
30000154:	00e78023          	sb	a4,0(a5)
30000158:	000780a3          	sb	zero,1(a5)
3000015c:	00300713          	li	a4,3
30000160:	00e781a3          	sb	a4,3(a5)
30000164:	00000517          	auipc	a0,0x0
30000168:	03c50513          	addi	a0,a0,60 # 300001a0 <_etext>
3000016c:	ebdff0ef          	jal	ra,30000028 <main>
30000170:	00050513          	mv	a0,a0
30000174:	00100073          	ebreak
30000178:	0000006f          	j	30000178 <_trm_init+0x5c>

3000017c <memcpy>:
3000017c:	02060063          	beqz	a2,3000019c <memcpy+0x20>
30000180:	00c50633          	add	a2,a0,a2
30000184:	00050793          	mv	a5,a0
30000188:	0005c703          	lbu	a4,0(a1)
3000018c:	00178793          	addi	a5,a5,1
30000190:	00158593          	addi	a1,a1,1
30000194:	fee78fa3          	sb	a4,-1(a5)
30000198:	fec798e3          	bne	a5,a2,30000188 <memcpy+0xc>
3000019c:	00008067          	ret
