
/home/jimple/Documents/ysyx/ysyx-workbench/am-kernels/tests/cpu-tests/build/div-riscv32e-ysyxsoc.elf:     file format elf32-littleriscv

Sections:
Idx Name          Size      VMA       LMA       File off  Algn
  0 .text         0000029c  30000000  30000000  00001000  2**2
                  CONTENTS, ALLOC, LOAD, READONLY, CODE
  1 .srodata.mainargs 00000001  3000029c  3000029c  0000129c  2**2
                  CONTENTS, ALLOC, LOAD, READONLY, DATA
  2 .bss          00000028  0f000000  3000029d  00002000  2**2
                  ALLOC
  3 .comment      0000002b  00000000  00000000  0000129d  2**0
                  CONTENTS, READONLY
  4 .riscv.attributes 0000001a  00000000  00000000  000012c8  2**0
                  CONTENTS, READONLY
SYMBOL TABLE:
30000000 l    d  .text	00000000 .text
3000029c l    d  .srodata.mainargs	00000000 .srodata.mainargs
0f000000 l    d  .bss	00000000 .bss
00000000 l    d  .comment	00000000 .comment
00000000 l    d  .riscv.attributes	00000000 .riscv.attributes
00000000 l    df *ABS*	00000000 start.o
00000000 l    df *ABS*	00000000 div.c
00000000 l    df *ABS*	00000000 trm.c
3000029c l     O .srodata.mainargs	00000001 mainargs
00000000 l    df *ABS*	00000000 div.o
00000000 l    df *ABS*	00000000 muldi3.o
00000000 l    df *ABS*	00000000 string.c
30000140 g     F .text	00000060 _trm_init
3000029d g       .srodata.mainargs	00000000 _data_lma_end
0f002000 g       .bss	00000000 _stack_pointer
3000029c g       .text	00000000 _etext
30000278 g     F .text	00000024 memcpy
20000000 g       *ABS*	00000000 _pmem_start
3000029c g       .srodata.mainargs	00000000 _rodata_end
300001a8 g     F .text	00000048 .hidden __hidden___udivsi3
300001a8 g     F .text	00000048 __udivsi3
0f000000 g       .bss	00000000 _bss_start
3000029d g       .srodata.mainargs	00000000 edata
0f001800 g       *ABS*	00000000 _heap_end
0f001000 g       *ABS*	00000000 _heap_start
0f001800 g       *ABS*	00000000 _stack_top
300001f0 g     F .text	00000010 __umodsi3
0f002000 g       .bss	00000000 end
30000010 g     F .text	00000018 check
3000029c g       .text	00000000 etext
30000000 g     F .text	00000000 _start
00000000 g       *ABS*	00000000 _entry_offset
30000254 g     F .text	00000024 __mulsi3
30000028 g     F .text	0000010c main
300001a0 g     F .text	00000084 __divsi3
0f000000 g       .srodata.mainargs	00000000 _data_vma_start
0f002000 g       .bss	00000000 _end
3000029d g       *ABS*	00000000 _data_lma_start
30000134 g     F .text	0000000c halt
0f000000 g     O .bss	00000028 a
30000224 g     F .text	00000030 __modsi3



Disassembly of section .text:

30000000 <_start>:
30000000:	00000413          	li	s0,0
30000004:	df002117          	auipc	sp,0xdf002
30000008:	ffc10113          	addi	sp,sp,-4 # f002000 <_end>
3000000c:	134000ef          	jal	ra,30000140 <_trm_init>

30000010 <check>:
30000010:	00050463          	beqz	a0,30000018 <check+0x8>
30000014:	00008067          	ret
30000018:	ff410113          	addi	sp,sp,-12
3000001c:	00100513          	li	a0,1
30000020:	00112423          	sw	ra,8(sp)
30000024:	110000ef          	jal	ra,30000134 <halt>

30000028 <main>:
30000028:	fec10113          	addi	sp,sp,-20
3000002c:	df000797          	auipc	a5,0xdf000
30000030:	fd478793          	addi	a5,a5,-44 # f000000 <a>
30000034:	00f12223          	sw	a5,4(sp)
30000038:	00078713          	mv	a4,a5
3000003c:	00112823          	sw	ra,16(sp)
30000040:	00812623          	sw	s0,12(sp)
30000044:	00912423          	sw	s1,8(sp)
30000048:	00000793          	li	a5,0
3000004c:	00a00693          	li	a3,10
30000050:	00f72023          	sw	a5,0(a4)
30000054:	00178793          	addi	a5,a5,1
30000058:	00470713          	addi	a4,a4,4
3000005c:	fed79ae3          	bne	a5,a3,30000050 <main+0x28>
30000060:	df000797          	auipc	a5,0xdf000
30000064:	fa078793          	addi	a5,a5,-96 # f000000 <a>
30000068:	00f12023          	sw	a5,0(sp)
3000006c:	00b00413          	li	s0,11
30000070:	00012783          	lw	a5,0(sp)
30000074:	00100493          	li	s1,1
30000078:	0007a503          	lw	a0,0(a5)
3000007c:	00048593          	mv	a1,s1
30000080:	00148493          	addi	s1,s1,1
30000084:	1d0000ef          	jal	ra,30000254 <__mulsi3>
30000088:	fe849ae3          	bne	s1,s0,3000007c <main+0x54>
3000008c:	00012783          	lw	a5,0(sp)
30000090:	df000717          	auipc	a4,0xdf000
30000094:	f9870713          	addi	a4,a4,-104 # f000028 <a+0x28>
30000098:	00a7a023          	sw	a0,0(a5)
3000009c:	00478793          	addi	a5,a5,4
300000a0:	00f12023          	sw	a5,0(sp)
300000a4:	fce796e3          	bne	a5,a4,30000070 <main+0x48>
300000a8:	df000797          	auipc	a5,0xdf000
300000ac:	f5878793          	addi	a5,a5,-168 # f000000 <a>
300000b0:	00f12023          	sw	a5,0(sp)
300000b4:	00b00413          	li	s0,11
300000b8:	00012783          	lw	a5,0(sp)
300000bc:	00100493          	li	s1,1
300000c0:	0007a503          	lw	a0,0(a5)
300000c4:	00048593          	mv	a1,s1
300000c8:	00148493          	addi	s1,s1,1
300000cc:	0d4000ef          	jal	ra,300001a0 <__divsi3>
300000d0:	fe849ae3          	bne	s1,s0,300000c4 <main+0x9c>
300000d4:	00012783          	lw	a5,0(sp)
300000d8:	df000717          	auipc	a4,0xdf000
300000dc:	f5070713          	addi	a4,a4,-176 # f000028 <a+0x28>
300000e0:	00a7a023          	sw	a0,0(a5)
300000e4:	00478793          	addi	a5,a5,4
300000e8:	00f12023          	sw	a5,0(sp)
300000ec:	fce796e3          	bne	a5,a4,300000b8 <main+0x90>
300000f0:	00000493          	li	s1,0
300000f4:	00a00413          	li	s0,10
300000f8:	00412783          	lw	a5,4(sp)
300000fc:	0007a503          	lw	a0,0(a5)
30000100:	00478793          	addi	a5,a5,4
30000104:	00f12223          	sw	a5,4(sp)
30000108:	40950533          	sub	a0,a0,s1
3000010c:	00153513          	seqz	a0,a0
30000110:	00148493          	addi	s1,s1,1
30000114:	efdff0ef          	jal	ra,30000010 <check>
30000118:	fe8490e3          	bne	s1,s0,300000f8 <main+0xd0>
3000011c:	01012083          	lw	ra,16(sp)
30000120:	00c12403          	lw	s0,12(sp)
30000124:	00812483          	lw	s1,8(sp)
30000128:	00000513          	li	a0,0
3000012c:	01410113          	addi	sp,sp,20
30000130:	00008067          	ret

30000134 <halt>:
30000134:	00050513          	mv	a0,a0
30000138:	00100073          	ebreak
3000013c:	0000006f          	j	3000013c <halt+0x8>

30000140 <_trm_init>:
30000140:	df000517          	auipc	a0,0xdf000
30000144:	ec050513          	addi	a0,a0,-320 # f000000 <a>
30000148:	df000617          	auipc	a2,0xdf000
3000014c:	eb860613          	addi	a2,a2,-328 # f000000 <a>
30000150:	ff410113          	addi	sp,sp,-12
30000154:	40a60633          	sub	a2,a2,a0
30000158:	00000597          	auipc	a1,0x0
3000015c:	14558593          	addi	a1,a1,325 # 3000029d <_data_lma_end>
30000160:	00112423          	sw	ra,8(sp)
30000164:	114000ef          	jal	ra,30000278 <memcpy>
30000168:	100007b7          	lui	a5,0x10000
3000016c:	f8000713          	li	a4,-128
30000170:	00e781a3          	sb	a4,3(a5) # 10000003 <_end+0xffe003>
30000174:	00100713          	li	a4,1
30000178:	00e78023          	sb	a4,0(a5)
3000017c:	000780a3          	sb	zero,1(a5)
30000180:	00300713          	li	a4,3
30000184:	00e781a3          	sb	a4,3(a5)
30000188:	00000517          	auipc	a0,0x0
3000018c:	11450513          	addi	a0,a0,276 # 3000029c <_etext>
30000190:	e99ff0ef          	jal	ra,30000028 <main>
30000194:	00050513          	mv	a0,a0
30000198:	00100073          	ebreak
3000019c:	0000006f          	j	3000019c <_trm_init+0x5c>

300001a0 <__divsi3>:
300001a0:	06054063          	bltz	a0,30000200 <__umodsi3+0x10>
300001a4:	0605c663          	bltz	a1,30000210 <__umodsi3+0x20>

300001a8 <__hidden___udivsi3>:
300001a8:	00058613          	mv	a2,a1
300001ac:	00050593          	mv	a1,a0
300001b0:	fff00513          	li	a0,-1
300001b4:	02060c63          	beqz	a2,300001ec <__hidden___udivsi3+0x44>
300001b8:	00100693          	li	a3,1
300001bc:	00b67a63          	bgeu	a2,a1,300001d0 <__hidden___udivsi3+0x28>
300001c0:	00c05863          	blez	a2,300001d0 <__hidden___udivsi3+0x28>
300001c4:	00161613          	slli	a2,a2,0x1
300001c8:	00169693          	slli	a3,a3,0x1
300001cc:	feb66ae3          	bltu	a2,a1,300001c0 <__hidden___udivsi3+0x18>
300001d0:	00000513          	li	a0,0
300001d4:	00c5e663          	bltu	a1,a2,300001e0 <__hidden___udivsi3+0x38>
300001d8:	40c585b3          	sub	a1,a1,a2
300001dc:	00d56533          	or	a0,a0,a3
300001e0:	0016d693          	srli	a3,a3,0x1
300001e4:	00165613          	srli	a2,a2,0x1
300001e8:	fe0696e3          	bnez	a3,300001d4 <__hidden___udivsi3+0x2c>
300001ec:	00008067          	ret

300001f0 <__umodsi3>:
300001f0:	00008293          	mv	t0,ra
300001f4:	fb5ff0ef          	jal	ra,300001a8 <__hidden___udivsi3>
300001f8:	00058513          	mv	a0,a1
300001fc:	00028067          	jr	t0
30000200:	40a00533          	neg	a0,a0
30000204:	00b04863          	bgtz	a1,30000214 <__umodsi3+0x24>
30000208:	40b005b3          	neg	a1,a1
3000020c:	f9dff06f          	j	300001a8 <__hidden___udivsi3>
30000210:	40b005b3          	neg	a1,a1
30000214:	00008293          	mv	t0,ra
30000218:	f91ff0ef          	jal	ra,300001a8 <__hidden___udivsi3>
3000021c:	40a00533          	neg	a0,a0
30000220:	00028067          	jr	t0

30000224 <__modsi3>:
30000224:	00008293          	mv	t0,ra
30000228:	0005ca63          	bltz	a1,3000023c <__modsi3+0x18>
3000022c:	00054c63          	bltz	a0,30000244 <__modsi3+0x20>
30000230:	f79ff0ef          	jal	ra,300001a8 <__hidden___udivsi3>
30000234:	00058513          	mv	a0,a1
30000238:	00028067          	jr	t0
3000023c:	40b005b3          	neg	a1,a1
30000240:	fe0558e3          	bgez	a0,30000230 <__modsi3+0xc>
30000244:	40a00533          	neg	a0,a0
30000248:	f61ff0ef          	jal	ra,300001a8 <__hidden___udivsi3>
3000024c:	40b00533          	neg	a0,a1
30000250:	00028067          	jr	t0

30000254 <__mulsi3>:
30000254:	00050613          	mv	a2,a0
30000258:	00000513          	li	a0,0
3000025c:	0015f693          	andi	a3,a1,1
30000260:	00068463          	beqz	a3,30000268 <__mulsi3+0x14>
30000264:	00c50533          	add	a0,a0,a2
30000268:	0015d593          	srli	a1,a1,0x1
3000026c:	00161613          	slli	a2,a2,0x1
30000270:	fe0596e3          	bnez	a1,3000025c <__mulsi3+0x8>
30000274:	00008067          	ret

30000278 <memcpy>:
30000278:	02060063          	beqz	a2,30000298 <memcpy+0x20>
3000027c:	00c50633          	add	a2,a0,a2
30000280:	00050793          	mv	a5,a0
30000284:	0005c703          	lbu	a4,0(a1)
30000288:	00178793          	addi	a5,a5,1
3000028c:	00158593          	addi	a1,a1,1
30000290:	fee78fa3          	sb	a4,-1(a5)
30000294:	fec798e3          	bne	a5,a2,30000284 <memcpy+0xc>
30000298:	00008067          	ret
