
/home/jimple/Documents/ysyx/ysyx-workbench/am-kernels/tests/cpu-tests/build/quick-sort-riscv32e-ysyxsoc.elf:     file format elf32-littleriscv

Sections:
Idx Name          Size      VMA       LMA       File off  Algn
  0 .text         00000480  30000000  30000000  00001000  2**2
                  CONTENTS, ALLOC, LOAD, READONLY, CODE
  1 .srodata.mainargs 00000001  30000480  30000480  00001480  2**2
                  CONTENTS, ALLOC, LOAD, READONLY, DATA
  2 .data.a       00000050  0f000000  30000481  00002000  2**2
                  CONTENTS, ALLOC, LOAD, DATA
  3 .comment      0000002b  00000000  00000000  00002050  2**0
                  CONTENTS, READONLY
  4 .riscv.attributes 0000001a  00000000  00000000  0000207b  2**0
                  CONTENTS, READONLY
SYMBOL TABLE:
30000000 l    d  .text	00000000 .text
30000480 l    d  .srodata.mainargs	00000000 .srodata.mainargs
0f000000 l    d  .data.a	00000000 .data.a
00000000 l    d  .comment	00000000 .comment
00000000 l    d  .riscv.attributes	00000000 .riscv.attributes
00000000 l    df *ABS*	00000000 start.o
00000000 l    df *ABS*	00000000 quick-sort.c
00000000 l    df *ABS*	00000000 trm.c
30000480 l     O .srodata.mainargs	00000001 mainargs
00000000 l    df *ABS*	00000000 string.c
300003fc g     F .text	00000060 _trm_init
30000481 g       .srodata.mainargs	00000000 _data_lma_end
0f002000 g       .data.a	00000000 _stack_pointer
30000480 g       .text	00000000 _etext
3000045c g     F .text	00000024 memcpy
20000000 g       *ABS*	00000000 _pmem_start
30000480 g       .srodata.mainargs	00000000 _rodata_end
0f000050 g       .data.a	00000000 _bss_start
30000481 g       .srodata.mainargs	00000000 edata
0f001800 g       *ABS*	00000000 _heap_end
0f001000 g       *ABS*	00000000 _heap_start
0f001800 g       *ABS*	00000000 _stack_top
30000028 g     F .text	000000c8 partition
0f002000 g       .data.a	00000000 end
30000010 g     F .text	00000018 check
30000480 g       .text	00000000 etext
30000000 g     F .text	00000000 _start
00000000 g       *ABS*	00000000 _entry_offset
30000338 g     F .text	000000b8 main
0f000000 g       .srodata.mainargs	00000000 _data_vma_start
0f002000 g       .data.a	00000000 _end
30000481 g       *ABS*	00000000 _data_lma_start
300003f0 g     F .text	0000000c halt
0f000000 g     O .data.a	00000050 a
300000f0 g     F .text	00000248 quick_sort



Disassembly of section .text:

30000000 <_start>:
30000000:	00000413          	li	s0,0
30000004:	df002117          	auipc	sp,0xdf002
30000008:	ffc10113          	addi	sp,sp,-4 # f002000 <_end>
3000000c:	3f0000ef          	jal	ra,300003fc <_trm_init>

30000010 <check>:
30000010:	00050463          	beqz	a0,30000018 <check+0x8>
30000014:	00008067          	ret
30000018:	ff410113          	addi	sp,sp,-12
3000001c:	00100513          	li	a0,1
30000020:	00112423          	sw	ra,8(sp)
30000024:	3cc000ef          	jal	ra,300003f0 <halt>

30000028 <partition>:
30000028:	00259693          	slli	a3,a1,0x2
3000002c:	00d503b3          	add	t2,a0,a3
30000030:	00050313          	mv	t1,a0
30000034:	0003a283          	lw	t0,0(t2)
30000038:	00060513          	mv	a0,a2
3000003c:	08c5d863          	bge	a1,a2,300000cc <partition+0xa4>
30000040:	00261793          	slli	a5,a2,0x2
30000044:	00f307b3          	add	a5,t1,a5
30000048:	0007a783          	lw	a5,0(a5)
3000004c:	fff50713          	addi	a4,a0,-1
30000050:	00271713          	slli	a4,a4,0x2
30000054:	00e30733          	add	a4,t1,a4
30000058:	00070613          	mv	a2,a4
3000005c:	ffc70713          	addi	a4,a4,-4
30000060:	02f2d463          	bge	t0,a5,30000088 <partition+0x60>
30000064:	fff50513          	addi	a0,a0,-1
30000068:	00472783          	lw	a5,4(a4)
3000006c:	fea5c6e3          	blt	a1,a0,30000058 <partition+0x30>
30000070:	00d303b3          	add	t2,t1,a3
30000074:	00f3a023          	sw	a5,0(t2)
30000078:	00058513          	mv	a0,a1
3000007c:	00f62023          	sw	a5,0(a2)
30000080:	0053a023          	sw	t0,0(t2)
30000084:	00008067          	ret
30000088:	00d303b3          	add	t2,t1,a3
3000008c:	00251613          	slli	a2,a0,0x2
30000090:	00f3a023          	sw	a5,0(t2)
30000094:	00c30633          	add	a2,t1,a2
30000098:	04a5d063          	bge	a1,a0,300000d8 <partition+0xb0>
3000009c:	00468713          	addi	a4,a3,4
300000a0:	00e30733          	add	a4,t1,a4
300000a4:	00070393          	mv	t2,a4
300000a8:	00158593          	addi	a1,a1,1
300000ac:	00470713          	addi	a4,a4,4
300000b0:	ffc72783          	lw	a5,-4(a4)
300000b4:	fca584e3          	beq	a1,a0,3000007c <partition+0x54>
300000b8:	fef2d6e3          	bge	t0,a5,300000a4 <partition+0x7c>
300000bc:	00f62023          	sw	a5,0(a2)
300000c0:	02a5d063          	bge	a1,a0,300000e0 <partition+0xb8>
300000c4:	00259693          	slli	a3,a1,0x2
300000c8:	f85ff06f          	j	3000004c <partition+0x24>
300000cc:	00058513          	mv	a0,a1
300000d0:	0053a023          	sw	t0,0(t2)
300000d4:	00008067          	ret
300000d8:	00058513          	mv	a0,a1
300000dc:	fa1ff06f          	j	3000007c <partition+0x54>
300000e0:	00259393          	slli	t2,a1,0x2
300000e4:	007303b3          	add	t2,t1,t2
300000e8:	00058513          	mv	a0,a1
300000ec:	f95ff06f          	j	30000080 <partition+0x58>

300000f0 <quick_sort>:
300000f0:	fb010113          	addi	sp,sp,-80
300000f4:	04112623          	sw	ra,76(sp)
300000f8:	04812423          	sw	s0,72(sp)
300000fc:	04912223          	sw	s1,68(sp)
30000100:	02c12423          	sw	a2,40(sp)
30000104:	22c5d063          	bge	a1,a2,30000324 <quick_sort+0x234>
30000108:	00050493          	mv	s1,a0
3000010c:	00058413          	mv	s0,a1
30000110:	02812603          	lw	a2,40(sp)
30000114:	00040593          	mv	a1,s0
30000118:	00048513          	mv	a0,s1
3000011c:	f0dff0ef          	jal	ra,30000028 <partition>
30000120:	fff50793          	addi	a5,a0,-1
30000124:	02a12623          	sw	a0,44(sp)
30000128:	00f12e23          	sw	a5,28(sp)
3000012c:	1ef45463          	bge	s0,a5,30000314 <quick_sort+0x224>
30000130:	00040793          	mv	a5,s0
30000134:	00048413          	mv	s0,s1
30000138:	00078493          	mv	s1,a5
3000013c:	01c12603          	lw	a2,28(sp)
30000140:	00048593          	mv	a1,s1
30000144:	00040513          	mv	a0,s0
30000148:	ee1ff0ef          	jal	ra,30000028 <partition>
3000014c:	fff50793          	addi	a5,a0,-1
30000150:	02a12823          	sw	a0,48(sp)
30000154:	02f12023          	sw	a5,32(sp)
30000158:	1af4d463          	bge	s1,a5,30000300 <quick_sort+0x210>
3000015c:	00048793          	mv	a5,s1
30000160:	00040493          	mv	s1,s0
30000164:	00078413          	mv	s0,a5
30000168:	02012603          	lw	a2,32(sp)
3000016c:	00040593          	mv	a1,s0
30000170:	00048513          	mv	a0,s1
30000174:	eb5ff0ef          	jal	ra,30000028 <partition>
30000178:	fff50793          	addi	a5,a0,-1
3000017c:	02a12a23          	sw	a0,52(sp)
30000180:	02f12223          	sw	a5,36(sp)
30000184:	16f45463          	bge	s0,a5,300002ec <quick_sort+0x1fc>
30000188:	02412603          	lw	a2,36(sp)
3000018c:	00040593          	mv	a1,s0
30000190:	00048513          	mv	a0,s1
30000194:	e95ff0ef          	jal	ra,30000028 <partition>
30000198:	fff50793          	addi	a5,a0,-1
3000019c:	02a12c23          	sw	a0,56(sp)
300001a0:	00f12023          	sw	a5,0(sp)
300001a4:	12f45c63          	bge	s0,a5,300002dc <quick_sort+0x1ec>
300001a8:	00040793          	mv	a5,s0
300001ac:	00048413          	mv	s0,s1
300001b0:	00078493          	mv	s1,a5
300001b4:	00012603          	lw	a2,0(sp)
300001b8:	00048593          	mv	a1,s1
300001bc:	00040513          	mv	a0,s0
300001c0:	e69ff0ef          	jal	ra,30000028 <partition>
300001c4:	fff50793          	addi	a5,a0,-1
300001c8:	00a12223          	sw	a0,4(sp)
300001cc:	00f12423          	sw	a5,8(sp)
300001d0:	0ef4dc63          	bge	s1,a5,300002c8 <quick_sort+0x1d8>
300001d4:	00812603          	lw	a2,8(sp)
300001d8:	00048593          	mv	a1,s1
300001dc:	00040513          	mv	a0,s0
300001e0:	e49ff0ef          	jal	ra,30000028 <partition>
300001e4:	fff50793          	addi	a5,a0,-1
300001e8:	00a12a23          	sw	a0,20(sp)
300001ec:	00f12c23          	sw	a5,24(sp)
300001f0:	0cf4d463          	bge	s1,a5,300002b8 <quick_sort+0x1c8>
300001f4:	01812603          	lw	a2,24(sp)
300001f8:	00048593          	mv	a1,s1
300001fc:	00040513          	mv	a0,s0
30000200:	e29ff0ef          	jal	ra,30000028 <partition>
30000204:	02a12e23          	sw	a0,60(sp)
30000208:	fff50713          	addi	a4,a0,-1
3000020c:	08e4de63          	bge	s1,a4,300002a8 <quick_sort+0x1b8>
30000210:	00040693          	mv	a3,s0
30000214:	00070613          	mv	a2,a4
30000218:	00068513          	mv	a0,a3
3000021c:	00048593          	mv	a1,s1
30000220:	00e12823          	sw	a4,16(sp)
30000224:	00d12623          	sw	a3,12(sp)
30000228:	e01ff0ef          	jal	ra,30000028 <partition>
3000022c:	fff50793          	addi	a5,a0,-1
30000230:	00c12683          	lw	a3,12(sp)
30000234:	01012703          	lw	a4,16(sp)
30000238:	00050413          	mv	s0,a0
3000023c:	06f4d063          	bge	s1,a5,3000029c <quick_sort+0x1ac>
30000240:	00068613          	mv	a2,a3
30000244:	00060413          	mv	s0,a2
30000248:	00050693          	mv	a3,a0
3000024c:	00078613          	mv	a2,a5
30000250:	00048593          	mv	a1,s1
30000254:	00040513          	mv	a0,s0
30000258:	04d12023          	sw	a3,64(sp)
3000025c:	00e12823          	sw	a4,16(sp)
30000260:	00f12623          	sw	a5,12(sp)
30000264:	dc5ff0ef          	jal	ra,30000028 <partition>
30000268:	00050313          	mv	t1,a0
3000026c:	00048593          	mv	a1,s1
30000270:	fff50613          	addi	a2,a0,-1
30000274:	00040513          	mv	a0,s0
30000278:	00130493          	addi	s1,t1,1
3000027c:	e75ff0ef          	jal	ra,300000f0 <quick_sort>
30000280:	00c12783          	lw	a5,12(sp)
30000284:	01012703          	lw	a4,16(sp)
30000288:	04012683          	lw	a3,64(sp)
3000028c:	fcf4c0e3          	blt	s1,a5,3000024c <quick_sort+0x15c>
30000290:	00040793          	mv	a5,s0
30000294:	00068413          	mv	s0,a3
30000298:	00078693          	mv	a3,a5
3000029c:	00140493          	addi	s1,s0,1
300002a0:	f6e4cae3          	blt	s1,a4,30000214 <quick_sort+0x124>
300002a4:	00068413          	mv	s0,a3
300002a8:	03c12783          	lw	a5,60(sp)
300002ac:	00178493          	addi	s1,a5,1
300002b0:	01812783          	lw	a5,24(sp)
300002b4:	f4f4c0e3          	blt	s1,a5,300001f4 <quick_sort+0x104>
300002b8:	01412783          	lw	a5,20(sp)
300002bc:	00178493          	addi	s1,a5,1
300002c0:	00812783          	lw	a5,8(sp)
300002c4:	f0f4c8e3          	blt	s1,a5,300001d4 <quick_sort+0xe4>
300002c8:	00412783          	lw	a5,4(sp)
300002cc:	00178493          	addi	s1,a5,1
300002d0:	00012783          	lw	a5,0(sp)
300002d4:	eef4c0e3          	blt	s1,a5,300001b4 <quick_sort+0xc4>
300002d8:	00040493          	mv	s1,s0
300002dc:	03812783          	lw	a5,56(sp)
300002e0:	00178413          	addi	s0,a5,1
300002e4:	02412783          	lw	a5,36(sp)
300002e8:	eaf440e3          	blt	s0,a5,30000188 <quick_sort+0x98>
300002ec:	03412783          	lw	a5,52(sp)
300002f0:	00178413          	addi	s0,a5,1
300002f4:	02012783          	lw	a5,32(sp)
300002f8:	e6f448e3          	blt	s0,a5,30000168 <quick_sort+0x78>
300002fc:	00048413          	mv	s0,s1
30000300:	03012783          	lw	a5,48(sp)
30000304:	00178493          	addi	s1,a5,1
30000308:	01c12783          	lw	a5,28(sp)
3000030c:	e2f4c8e3          	blt	s1,a5,3000013c <quick_sort+0x4c>
30000310:	00040493          	mv	s1,s0
30000314:	02c12783          	lw	a5,44(sp)
30000318:	00178413          	addi	s0,a5,1
3000031c:	02812783          	lw	a5,40(sp)
30000320:	def448e3          	blt	s0,a5,30000110 <quick_sort+0x20>
30000324:	04c12083          	lw	ra,76(sp)
30000328:	04812403          	lw	s0,72(sp)
3000032c:	04412483          	lw	s1,68(sp)
30000330:	05010113          	addi	sp,sp,80
30000334:	00008067          	ret

30000338 <main>:
30000338:	ff010113          	addi	sp,sp,-16
3000033c:	df000517          	auipc	a0,0xdf000
30000340:	cc450513          	addi	a0,a0,-828 # f000000 <a>
30000344:	01300613          	li	a2,19
30000348:	00000593          	li	a1,0
3000034c:	00812423          	sw	s0,8(sp)
30000350:	00912223          	sw	s1,4(sp)
30000354:	00050413          	mv	s0,a0
30000358:	00112623          	sw	ra,12(sp)
3000035c:	d95ff0ef          	jal	ra,300000f0 <quick_sort>
30000360:	00040713          	mv	a4,s0
30000364:	00000493          	li	s1,0
30000368:	00072503          	lw	a0,0(a4)
3000036c:	00470713          	addi	a4,a4,4
30000370:	00e12023          	sw	a4,0(sp)
30000374:	40950533          	sub	a0,a0,s1
30000378:	00153513          	seqz	a0,a0
3000037c:	c95ff0ef          	jal	ra,30000010 <check>
30000380:	00148493          	addi	s1,s1,1
30000384:	01400793          	li	a5,20
30000388:	00012703          	lw	a4,0(sp)
3000038c:	fcf49ee3          	bne	s1,a5,30000368 <main+0x30>
30000390:	00100513          	li	a0,1
30000394:	c7dff0ef          	jal	ra,30000010 <check>
30000398:	01300613          	li	a2,19
3000039c:	00000593          	li	a1,0
300003a0:	df000517          	auipc	a0,0xdf000
300003a4:	c6050513          	addi	a0,a0,-928 # f000000 <a>
300003a8:	d49ff0ef          	jal	ra,300000f0 <quick_sort>
300003ac:	00000493          	li	s1,0
300003b0:	00042503          	lw	a0,0(s0)
300003b4:	00440413          	addi	s0,s0,4
300003b8:	40950533          	sub	a0,a0,s1
300003bc:	00153513          	seqz	a0,a0
300003c0:	c51ff0ef          	jal	ra,30000010 <check>
300003c4:	00148493          	addi	s1,s1,1
300003c8:	01400793          	li	a5,20
300003cc:	fef492e3          	bne	s1,a5,300003b0 <main+0x78>
300003d0:	00100513          	li	a0,1
300003d4:	c3dff0ef          	jal	ra,30000010 <check>
300003d8:	00c12083          	lw	ra,12(sp)
300003dc:	00812403          	lw	s0,8(sp)
300003e0:	00412483          	lw	s1,4(sp)
300003e4:	00000513          	li	a0,0
300003e8:	01010113          	addi	sp,sp,16
300003ec:	00008067          	ret

300003f0 <halt>:
300003f0:	00050513          	mv	a0,a0
300003f4:	00100073          	ebreak
300003f8:	0000006f          	j	300003f8 <halt+0x8>

300003fc <_trm_init>:
300003fc:	df000517          	auipc	a0,0xdf000
30000400:	c0450513          	addi	a0,a0,-1020 # f000000 <a>
30000404:	df000617          	auipc	a2,0xdf000
30000408:	c4c60613          	addi	a2,a2,-948 # f000050 <_bss_start>
3000040c:	ff410113          	addi	sp,sp,-12
30000410:	40a60633          	sub	a2,a2,a0
30000414:	00000597          	auipc	a1,0x0
30000418:	06d58593          	addi	a1,a1,109 # 30000481 <_data_lma_end>
3000041c:	00112423          	sw	ra,8(sp)
30000420:	03c000ef          	jal	ra,3000045c <memcpy>
30000424:	100007b7          	lui	a5,0x10000
30000428:	f8000713          	li	a4,-128
3000042c:	00e781a3          	sb	a4,3(a5) # 10000003 <_end+0xffe003>
30000430:	00100713          	li	a4,1
30000434:	00e78023          	sb	a4,0(a5)
30000438:	000780a3          	sb	zero,1(a5)
3000043c:	00300713          	li	a4,3
30000440:	00e781a3          	sb	a4,3(a5)
30000444:	00000517          	auipc	a0,0x0
30000448:	03c50513          	addi	a0,a0,60 # 30000480 <_etext>
3000044c:	eedff0ef          	jal	ra,30000338 <main>
30000450:	00050513          	mv	a0,a0
30000454:	00100073          	ebreak
30000458:	0000006f          	j	30000458 <_trm_init+0x5c>

3000045c <memcpy>:
3000045c:	02060063          	beqz	a2,3000047c <memcpy+0x20>
30000460:	00c50633          	add	a2,a0,a2
30000464:	00050793          	mv	a5,a0
30000468:	0005c703          	lbu	a4,0(a1)
3000046c:	00178793          	addi	a5,a5,1
30000470:	00158593          	addi	a1,a1,1
30000474:	fee78fa3          	sb	a4,-1(a5)
30000478:	fec798e3          	bne	a5,a2,30000468 <memcpy+0xc>
3000047c:	00008067          	ret
