
/home/jimple/Documents/ysyx/ysyx-workbench/am-kernels/tests/cpu-tests/build/shift-riscv32e-ysyxsoc.elf:     file format elf32-littleriscv

Sections:
Idx Name          Size      VMA       LMA       File off  Algn
  0 .text         000001b8  20000000  20000000  00001000  2**2
                  CONTENTS, ALLOC, LOAD, READONLY, CODE
  1 .srodata.mainargs 00000001  200001b8  200001b8  000011b8  2**2
                  CONTENTS, ALLOC, LOAD, READONLY, DATA
  2 .data.srav_ans 00000020  0f000000  200001b9  00002000  2**2
                  CONTENTS, ALLOC, LOAD, DATA
  3 .data.srl_ans 00000020  0f000020  200001d9  00002020  2**2
                  CONTENTS, ALLOC, LOAD, DATA
  4 .data.srlv_ans 00000020  0f000040  200001f9  00002040  2**2
                  CONTENTS, ALLOC, LOAD, DATA
  5 .data.test    00000020  0f000060  20000219  00002060  2**2
                  CONTENTS, ALLOC, LOAD, DATA
  6 .comment      0000002b  00000000  00000000  00002080  2**0
                  CONTENTS, READONLY
  7 .riscv.attributes 0000001a  00000000  00000000  000020ab  2**0
                  CONTENTS, READONLY
SYMBOL TABLE:
20000000 l    d  .text	00000000 .text
200001b8 l    d  .srodata.mainargs	00000000 .srodata.mainargs
0f000000 l    d  .data.srav_ans	00000000 .data.srav_ans
0f000020 l    d  .data.srl_ans	00000000 .data.srl_ans
0f000040 l    d  .data.srlv_ans	00000000 .data.srlv_ans
0f000060 l    d  .data.test	00000000 .data.test
00000000 l    d  .comment	00000000 .comment
00000000 l    d  .riscv.attributes	00000000 .riscv.attributes
00000000 l    df *ABS*	00000000 start.o
00000000 l    df *ABS*	00000000 shift.c
00000000 l    df *ABS*	00000000 trm.c
200001b8 l     O .srodata.mainargs	00000001 mainargs
00000000 l    df *ABS*	00000000 string.c
20000134 g     F .text	00000060 _trm_init
200001b9 g       .srodata.mainargs	00000000 _data_lma_end
0f002000 g       .data.test	00000000 _stack_pointer
200001b8 g       .text	00000000 _etext
20000194 g     F .text	00000024 memcpy
20000000 g       *ABS*	00000000 _pmem_start
200001b8 g       .srodata.mainargs	00000000 _rodata_end
0f000040 g     O .data.srlv_ans	00000020 srlv_ans
0f000080 g       .data.test	00000000 _bss_start
200001b9 g       .srodata.mainargs	00000000 edata
0f001800 g       *ABS*	00000000 _heap_end
0f001000 g       *ABS*	00000000 _heap_start
0f001800 g       *ABS*	00000000 _stack_top
0f002000 g       .data.test	00000000 end
20000010 g     F .text	00000018 check
200001b8 g       .text	00000000 etext
0f000060 g     O .data.test	00000020 test
20000000 g     F .text	00000000 _start
00000000 g       *ABS*	00000000 _entry_offset
20000028 g     F .text	00000100 main
0f000000 g     O .data.srav_ans	00000020 srav_ans
0f000000 g       .srodata.mainargs	00000000 _data_vma_start
0f002000 g       .data.test	00000000 _end
200001b9 g       *ABS*	00000000 _data_lma_start
20000128 g     F .text	0000000c halt
0f000020 g     O .data.srl_ans	00000020 srl_ans



Disassembly of section .text:

20000000 <_start>:
20000000:	00000413          	li	s0,0
20000004:	ef002117          	auipc	sp,0xef002
20000008:	ffc10113          	addi	sp,sp,-4 # f002000 <_end>
2000000c:	128000ef          	jal	ra,20000134 <_trm_init>

20000010 <check>:
20000010:	00050463          	beqz	a0,20000018 <check+0x8>
20000014:	00008067          	ret
20000018:	ff410113          	addi	sp,sp,-12
2000001c:	00100513          	li	a0,1
20000020:	00112423          	sw	ra,8(sp)
20000024:	104000ef          	jal	ra,20000128 <halt>

20000028 <main>:
20000028:	fec10113          	addi	sp,sp,-20
2000002c:	00812623          	sw	s0,12(sp)
20000030:	ef000417          	auipc	s0,0xef000
20000034:	03040413          	addi	s0,s0,48 # f000060 <test>
20000038:	00912423          	sw	s1,8(sp)
2000003c:	00112823          	sw	ra,16(sp)
20000040:	ef000717          	auipc	a4,0xef000
20000044:	fe070713          	addi	a4,a4,-32 # f000020 <srl_ans>
20000048:	00040493          	mv	s1,s0
2000004c:	0004a503          	lw	a0,0(s1)
20000050:	00072683          	lw	a3,0(a4)
20000054:	00e12023          	sw	a4,0(sp)
20000058:	00755513          	srli	a0,a0,0x7
2000005c:	40d50533          	sub	a0,a0,a3
20000060:	00153513          	seqz	a0,a0
20000064:	fadff0ef          	jal	ra,20000010 <check>
20000068:	00012703          	lw	a4,0(sp)
2000006c:	00448493          	addi	s1,s1,4
20000070:	ef000797          	auipc	a5,0xef000
20000074:	01078793          	addi	a5,a5,16 # f000080 <_bss_start>
20000078:	00470713          	addi	a4,a4,4
2000007c:	fcf498e3          	bne	s1,a5,2000004c <main+0x24>
20000080:	ef000697          	auipc	a3,0xef000
20000084:	f8068693          	addi	a3,a3,-128 # f000000 <srav_ans>
20000088:	ef000717          	auipc	a4,0xef000
2000008c:	fd870713          	addi	a4,a4,-40 # f000060 <test>
20000090:	00400493          	li	s1,4
20000094:	00072503          	lw	a0,0(a4)
20000098:	0006a603          	lw	a2,0(a3)
2000009c:	00470713          	addi	a4,a4,4
200000a0:	40955533          	sra	a0,a0,s1
200000a4:	40c50533          	sub	a0,a0,a2
200000a8:	00153513          	seqz	a0,a0
200000ac:	00d12223          	sw	a3,4(sp)
200000b0:	00e12023          	sw	a4,0(sp)
200000b4:	f5dff0ef          	jal	ra,20000010 <check>
200000b8:	00412683          	lw	a3,4(sp)
200000bc:	00148493          	addi	s1,s1,1
200000c0:	00c00793          	li	a5,12
200000c4:	00012703          	lw	a4,0(sp)
200000c8:	00468693          	addi	a3,a3,4
200000cc:	fcf494e3          	bne	s1,a5,20000094 <main+0x6c>
200000d0:	ef000717          	auipc	a4,0xef000
200000d4:	f7070713          	addi	a4,a4,-144 # f000040 <srlv_ans>
200000d8:	00400493          	li	s1,4
200000dc:	00042503          	lw	a0,0(s0)
200000e0:	00072683          	lw	a3,0(a4)
200000e4:	00e12023          	sw	a4,0(sp)
200000e8:	00955533          	srl	a0,a0,s1
200000ec:	40d50533          	sub	a0,a0,a3
200000f0:	00153513          	seqz	a0,a0
200000f4:	f1dff0ef          	jal	ra,20000010 <check>
200000f8:	00012703          	lw	a4,0(sp)
200000fc:	00148493          	addi	s1,s1,1
20000100:	00c00793          	li	a5,12
20000104:	00440413          	addi	s0,s0,4
20000108:	00470713          	addi	a4,a4,4
2000010c:	fcf498e3          	bne	s1,a5,200000dc <main+0xb4>
20000110:	01012083          	lw	ra,16(sp)
20000114:	00c12403          	lw	s0,12(sp)
20000118:	00812483          	lw	s1,8(sp)
2000011c:	00000513          	li	a0,0
20000120:	01410113          	addi	sp,sp,20
20000124:	00008067          	ret

20000128 <halt>:
20000128:	00050513          	mv	a0,a0
2000012c:	00100073          	ebreak
20000130:	0000006f          	j	20000130 <halt+0x8>

20000134 <_trm_init>:
20000134:	ef000517          	auipc	a0,0xef000
20000138:	ecc50513          	addi	a0,a0,-308 # f000000 <srav_ans>
2000013c:	ef000617          	auipc	a2,0xef000
20000140:	f4460613          	addi	a2,a2,-188 # f000080 <_bss_start>
20000144:	ff410113          	addi	sp,sp,-12
20000148:	40a60633          	sub	a2,a2,a0
2000014c:	00000597          	auipc	a1,0x0
20000150:	06d58593          	addi	a1,a1,109 # 200001b9 <_data_lma_end>
20000154:	00112423          	sw	ra,8(sp)
20000158:	03c000ef          	jal	ra,20000194 <memcpy>
2000015c:	100007b7          	lui	a5,0x10000
20000160:	f8000713          	li	a4,-128
20000164:	00e781a3          	sb	a4,3(a5) # 10000003 <_end+0xffe003>
20000168:	00100713          	li	a4,1
2000016c:	00e78023          	sb	a4,0(a5)
20000170:	000780a3          	sb	zero,1(a5)
20000174:	00300713          	li	a4,3
20000178:	00e781a3          	sb	a4,3(a5)
2000017c:	00000517          	auipc	a0,0x0
20000180:	03c50513          	addi	a0,a0,60 # 200001b8 <_etext>
20000184:	ea5ff0ef          	jal	ra,20000028 <main>
20000188:	00050513          	mv	a0,a0
2000018c:	00100073          	ebreak
20000190:	0000006f          	j	20000190 <_trm_init+0x5c>

20000194 <memcpy>:
20000194:	02060063          	beqz	a2,200001b4 <memcpy+0x20>
20000198:	00c50633          	add	a2,a0,a2
2000019c:	00050793          	mv	a5,a0
200001a0:	0005c703          	lbu	a4,0(a1)
200001a4:	00178793          	addi	a5,a5,1
200001a8:	00158593          	addi	a1,a1,1
200001ac:	fee78fa3          	sb	a4,-1(a5)
200001b0:	fec798e3          	bne	a5,a2,200001a0 <memcpy+0xc>
200001b4:	00008067          	ret
