
/home/jimple/Documents/ysyx/ysyx-workbench/am-kernels/tests/cpu-tests/build/string-riscv32-nemu.elf:     file format elf32-littleriscv


Disassembly of section .text:

80000000 <_start>:
80000000:	00000413          	li	s0,0
80000004:	0000a117          	auipc	sp,0xa
80000008:	ffc10113          	addi	sp,sp,-4 # 8000a000 <_end>
8000000c:	134000ef          	jal	ra,80000140 <_trm_init>

80000010 <check>:
80000010:	00050463          	beqz	a0,80000018 <check+0x8>
80000014:	00008067          	ret
80000018:	ffc10113          	addi	sp,sp,-4
8000001c:	00100513          	li	a0,1
80000020:	00112023          	sw	ra,0(sp)
80000024:	110000ef          	jal	ra,80000134 <halt>

80000028 <main>:
80000028:	ff410113          	addi	sp,sp,-12
8000002c:	00812223          	sw	s0,4(sp)
80000030:	00001417          	auipc	s0,0x1
80000034:	fd040413          	addi	s0,s0,-48 # 80001000 <s>
80000038:	00842583          	lw	a1,8(s0)
8000003c:	00042503          	lw	a0,0(s0)
80000040:	00112423          	sw	ra,8(sp)
80000044:	00912023          	sw	s1,0(sp)
80000048:	21c000ef          	jal	ra,80000264 <strcmp>
8000004c:	00153513          	seqz	a0,a0
80000050:	fc1ff0ef          	jal	ra,80000010 <check>
80000054:	00442583          	lw	a1,4(s0)
80000058:	00042503          	lw	a0,0(s0)
8000005c:	00001497          	auipc	s1,0x1
80000060:	fc448493          	addi	s1,s1,-60 # 80001020 <str>
80000064:	200000ef          	jal	ra,80000264 <strcmp>
80000068:	01f55513          	srli	a0,a0,0x1f
8000006c:	fa5ff0ef          	jal	ra,80000010 <check>
80000070:	00442583          	lw	a1,4(s0)
80000074:	00042503          	lw	a0,0(s0)
80000078:	00158593          	addi	a1,a1,1
8000007c:	00150513          	addi	a0,a0,1
80000080:	1e4000ef          	jal	ra,80000264 <strcmp>
80000084:	01f55513          	srli	a0,a0,0x1f
80000088:	f89ff0ef          	jal	ra,80000010 <check>
8000008c:	00442583          	lw	a1,4(s0)
80000090:	00042503          	lw	a0,0(s0)
80000094:	00258593          	addi	a1,a1,2
80000098:	00250513          	addi	a0,a0,2
8000009c:	1c8000ef          	jal	ra,80000264 <strcmp>
800000a0:	01f55513          	srli	a0,a0,0x1f
800000a4:	f6dff0ef          	jal	ra,80000010 <check>
800000a8:	00442583          	lw	a1,4(s0)
800000ac:	00042503          	lw	a0,0(s0)
800000b0:	00358593          	addi	a1,a1,3
800000b4:	00350513          	addi	a0,a0,3
800000b8:	1ac000ef          	jal	ra,80000264 <strcmp>
800000bc:	01f55513          	srli	a0,a0,0x1f
800000c0:	f51ff0ef          	jal	ra,80000010 <check>
800000c4:	00001597          	auipc	a1,0x1
800000c8:	f5458593          	addi	a1,a1,-172 # 80001018 <str1>
800000cc:	00048513          	mv	a0,s1
800000d0:	0e4000ef          	jal	ra,800001b4 <strcpy>
800000d4:	00c42583          	lw	a1,12(s0)
800000d8:	140000ef          	jal	ra,80000218 <strcat>
800000dc:	01042583          	lw	a1,16(s0)
800000e0:	184000ef          	jal	ra,80000264 <strcmp>
800000e4:	00153513          	seqz	a0,a0
800000e8:	f29ff0ef          	jal	ra,80000010 <check>
800000ec:	00500613          	li	a2,5
800000f0:	02300593          	li	a1,35
800000f4:	00048513          	mv	a0,s1
800000f8:	1b4000ef          	jal	ra,800002ac <memset>
800000fc:	01442583          	lw	a1,20(s0)
80000100:	00500613          	li	a2,5
80000104:	1f8000ef          	jal	ra,800002fc <memcmp>
80000108:	00153513          	seqz	a0,a0
8000010c:	f05ff0ef          	jal	ra,80000010 <check>
80000110:	00812083          	lw	ra,8(sp)
80000114:	00412403          	lw	s0,4(sp)
80000118:	00012483          	lw	s1,0(sp)
8000011c:	00000513          	li	a0,0
80000120:	00c10113          	addi	sp,sp,12
80000124:	00008067          	ret

80000128 <putch>:
80000128:	a00007b7          	lui	a5,0xa0000
8000012c:	3ea78c23          	sb	a0,1016(a5) # a00003f8 <_end+0x1fff63f8>
80000130:	00008067          	ret

80000134 <halt>:
80000134:	00050513          	mv	a0,a0
80000138:	00100073          	ebreak
8000013c:	0000006f          	j	8000013c <halt+0x8>

80000140 <_trm_init>:
80000140:	ffc10113          	addi	sp,sp,-4
80000144:	00001517          	auipc	a0,0x1
80000148:	eb850513          	addi	a0,a0,-328 # 80000ffc <mainargs>
8000014c:	00112023          	sw	ra,0(sp)
80000150:	ed9ff0ef          	jal	ra,80000028 <main>
80000154:	00050513          	mv	a0,a0
80000158:	00100073          	ebreak
8000015c:	0000006f          	j	8000015c <_trm_init+0x1c>

80000160 <strlen>:
80000160:	02050663          	beqz	a0,8000018c <strlen+0x2c>
80000164:	00054783          	lbu	a5,0(a0)
80000168:	00050713          	mv	a4,a0
8000016c:	00000513          	li	a0,0
80000170:	00078c63          	beqz	a5,80000188 <strlen+0x28>
80000174:	00150513          	addi	a0,a0,1
80000178:	00a707b3          	add	a5,a4,a0
8000017c:	0007c783          	lbu	a5,0(a5)
80000180:	fe079ae3          	bnez	a5,80000174 <strlen+0x14>
80000184:	00008067          	ret
80000188:	00008067          	ret
8000018c:	ffc10113          	addi	sp,sp,-4
80000190:	00800613          	li	a2,8
80000194:	00001597          	auipc	a1,0x1
80000198:	d5458593          	addi	a1,a1,-684 # 80000ee8 <_etext+0x74>
8000019c:	00001517          	auipc	a0,0x1
800001a0:	d9c50513          	addi	a0,a0,-612 # 80000f38 <_etext+0xc4>
800001a4:	00112023          	sw	ra,0(sp)
800001a8:	770000ef          	jal	ra,80000918 <printf>
800001ac:	00100513          	li	a0,1
800001b0:	f85ff0ef          	jal	ra,80000134 <halt>

800001b4 <strcpy>:
800001b4:	ffc10113          	addi	sp,sp,-4
800001b8:	00112023          	sw	ra,0(sp)
800001bc:	01100613          	li	a2,17
800001c0:	02050e63          	beqz	a0,800001fc <strcpy+0x48>
800001c4:	02058a63          	beqz	a1,800001f8 <strcpy+0x44>
800001c8:	0005c703          	lbu	a4,0(a1)
800001cc:	00050793          	mv	a5,a0
800001d0:	00070c63          	beqz	a4,800001e8 <strcpy+0x34>
800001d4:	00e78023          	sb	a4,0(a5)
800001d8:	0015c703          	lbu	a4,1(a1)
800001dc:	00158593          	addi	a1,a1,1
800001e0:	00178793          	addi	a5,a5,1
800001e4:	fe0718e3          	bnez	a4,800001d4 <strcpy+0x20>
800001e8:	00078023          	sb	zero,0(a5)
800001ec:	00012083          	lw	ra,0(sp)
800001f0:	00410113          	addi	sp,sp,4
800001f4:	00008067          	ret
800001f8:	01200613          	li	a2,18
800001fc:	00001597          	auipc	a1,0x1
80000200:	cec58593          	addi	a1,a1,-788 # 80000ee8 <_etext+0x74>
80000204:	00001517          	auipc	a0,0x1
80000208:	d3450513          	addi	a0,a0,-716 # 80000f38 <_etext+0xc4>
8000020c:	70c000ef          	jal	ra,80000918 <printf>
80000210:	00100513          	li	a0,1
80000214:	f21ff0ef          	jal	ra,80000134 <halt>

80000218 <strcat>:
80000218:	00054783          	lbu	a5,0(a0)
8000021c:	02078663          	beqz	a5,80000248 <strcat+0x30>
80000220:	00050793          	mv	a5,a0
80000224:	0017c703          	lbu	a4,1(a5)
80000228:	00178793          	addi	a5,a5,1
8000022c:	fe071ce3          	bnez	a4,80000224 <strcat+0xc>
80000230:	0005c703          	lbu	a4,0(a1)
80000234:	00178793          	addi	a5,a5,1
80000238:	00158593          	addi	a1,a1,1
8000023c:	fee78fa3          	sb	a4,-1(a5)
80000240:	fe0718e3          	bnez	a4,80000230 <strcat+0x18>
80000244:	00008067          	ret
80000248:	0005c703          	lbu	a4,0(a1)
8000024c:	00050793          	mv	a5,a0
80000250:	00178793          	addi	a5,a5,1
80000254:	fee78fa3          	sb	a4,-1(a5)
80000258:	00158593          	addi	a1,a1,1
8000025c:	fc071ae3          	bnez	a4,80000230 <strcat+0x18>
80000260:	fe5ff06f          	j	80000244 <strcat+0x2c>

80000264 <strcmp>:
80000264:	00054783          	lbu	a5,0(a0)
80000268:	00079c63          	bnez	a5,80000280 <strcmp+0x1c>
8000026c:	0380006f          	j	800002a4 <strcmp+0x40>
80000270:	02f71063          	bne	a4,a5,80000290 <strcmp+0x2c>
80000274:	00054783          	lbu	a5,0(a0)
80000278:	02078063          	beqz	a5,80000298 <strcmp+0x34>
8000027c:	00068593          	mv	a1,a3
80000280:	0005c703          	lbu	a4,0(a1)
80000284:	00150513          	addi	a0,a0,1
80000288:	00158693          	addi	a3,a1,1
8000028c:	fe0712e3          	bnez	a4,80000270 <strcmp+0xc>
80000290:	40e78533          	sub	a0,a5,a4
80000294:	00008067          	ret
80000298:	0015c703          	lbu	a4,1(a1)
8000029c:	40e78533          	sub	a0,a5,a4
800002a0:	00008067          	ret
800002a4:	0005c703          	lbu	a4,0(a1)
800002a8:	fe9ff06f          	j	80000290 <strcmp+0x2c>

800002ac <memset>:
800002ac:	02050463          	beqz	a0,800002d4 <memset+0x28>
800002b0:	0ff5f593          	zext.b	a1,a1
800002b4:	00c50733          	add	a4,a0,a2
800002b8:	00050793          	mv	a5,a0
800002bc:	00060a63          	beqz	a2,800002d0 <memset+0x24>
800002c0:	00178793          	addi	a5,a5,1
800002c4:	feb78fa3          	sb	a1,-1(a5)
800002c8:	fee79ce3          	bne	a5,a4,800002c0 <memset+0x14>
800002cc:	00008067          	ret
800002d0:	00008067          	ret
800002d4:	ffc10113          	addi	sp,sp,-4
800002d8:	04300613          	li	a2,67
800002dc:	00001597          	auipc	a1,0x1
800002e0:	c0c58593          	addi	a1,a1,-1012 # 80000ee8 <_etext+0x74>
800002e4:	00001517          	auipc	a0,0x1
800002e8:	c5450513          	addi	a0,a0,-940 # 80000f38 <_etext+0xc4>
800002ec:	00112023          	sw	ra,0(sp)
800002f0:	628000ef          	jal	ra,80000918 <printf>
800002f4:	00100513          	li	a0,1
800002f8:	e3dff0ef          	jal	ra,80000134 <halt>

800002fc <memcmp>:
800002fc:	00100713          	li	a4,1
80000300:	00050793          	mv	a5,a0
80000304:	00c50833          	add	a6,a0,a2
80000308:	00100893          	li	a7,1
8000030c:	00e61c63          	bne	a2,a4,80000324 <memcmp+0x28>
80000310:	0400006f          	j	80000350 <memcmp+0x54>
80000314:	00158693          	addi	a3,a1,1
80000318:	03160463          	beq	a2,a7,80000340 <memcmp+0x44>
8000031c:	00068593          	mv	a1,a3
80000320:	00070793          	mv	a5,a4
80000324:	0007c503          	lbu	a0,0(a5)
80000328:	0005c683          	lbu	a3,0(a1)
8000032c:	00178713          	addi	a4,a5,1
80000330:	40e80633          	sub	a2,a6,a4
80000334:	fed500e3          	beq	a0,a3,80000314 <memcmp+0x18>
80000338:	40d50533          	sub	a0,a0,a3
8000033c:	00008067          	ret
80000340:	0017c503          	lbu	a0,1(a5)
80000344:	0015c683          	lbu	a3,1(a1)
80000348:	40d50533          	sub	a0,a0,a3
8000034c:	00008067          	ret
80000350:	00054503          	lbu	a0,0(a0)
80000354:	0005c683          	lbu	a3,0(a1)
80000358:	fe1ff06f          	j	80000338 <memcmp+0x3c>

8000035c <number_to_str>:
8000035c:	fe810113          	addi	sp,sp,-24
80000360:	00812823          	sw	s0,16(sp)
80000364:	00912623          	sw	s1,12(sp)
80000368:	00112a23          	sw	ra,20(sp)
8000036c:	00060413          	mv	s0,a2
80000370:	00050493          	mv	s1,a0
80000374:	00058793          	mv	a5,a1
80000378:	04e67463          	bgeu	a2,a4,800003c0 <number_to_str+0x64>
8000037c:	0ff7f713          	zext.b	a4,a5
80000380:	00148513          	addi	a0,s1,1
80000384:	02040463          	beqz	s0,800003ac <number_to_str+0x50>
80000388:	03770793          	addi	a5,a4,55
8000038c:	0ff7f793          	zext.b	a5,a5
80000390:	00f48023          	sb	a5,0(s1)
80000394:	000480a3          	sb	zero,1(s1)
80000398:	01412083          	lw	ra,20(sp)
8000039c:	01012403          	lw	s0,16(sp)
800003a0:	00c12483          	lw	s1,12(sp)
800003a4:	01810113          	addi	sp,sp,24
800003a8:	00008067          	ret
800003ac:	00900693          	li	a3,9
800003b0:	fcf6ece3          	bltu	a3,a5,80000388 <number_to_str+0x2c>
800003b4:	03070793          	addi	a5,a4,48
800003b8:	0ff7f793          	zext.b	a5,a5
800003bc:	fd5ff06f          	j	80000390 <number_to_str+0x34>
800003c0:	00068813          	mv	a6,a3
800003c4:	00c71463          	bne	a4,a2,800003cc <number_to_str+0x70>
800003c8:	fad5eae3          	bltu	a1,a3,8000037c <number_to_str+0x20>
800003cc:	00080613          	mv	a2,a6
800003d0:	00070693          	mv	a3,a4
800003d4:	00078513          	mv	a0,a5
800003d8:	00040593          	mv	a1,s0
800003dc:	00f12423          	sw	a5,8(sp)
800003e0:	01012223          	sw	a6,4(sp)
800003e4:	00e12023          	sw	a4,0(sp)
800003e8:	145000ef          	jal	ra,80000d2c <__udivdi3>
800003ec:	00412803          	lw	a6,4(sp)
800003f0:	00012703          	lw	a4,0(sp)
800003f4:	00058613          	mv	a2,a1
800003f8:	00080693          	mv	a3,a6
800003fc:	00050593          	mv	a1,a0
80000400:	00048513          	mv	a0,s1
80000404:	f59ff0ef          	jal	ra,8000035c <number_to_str>
80000408:	00812783          	lw	a5,8(sp)
8000040c:	00412803          	lw	a6,4(sp)
80000410:	00012703          	lw	a4,0(sp)
80000414:	00050893          	mv	a7,a0
80000418:	00040593          	mv	a1,s0
8000041c:	00078513          	mv	a0,a5
80000420:	00080613          	mv	a2,a6
80000424:	00070693          	mv	a3,a4
80000428:	00088413          	mv	s0,a7
8000042c:	109000ef          	jal	ra,80000d34 <__umoddi3>
80000430:	00900793          	li	a5,9
80000434:	02a7d663          	bge	a5,a0,80000460 <number_to_str+0x104>
80000438:	03750793          	addi	a5,a0,55
8000043c:	0ff7f793          	zext.b	a5,a5
80000440:	00140513          	addi	a0,s0,1
80000444:	00f40023          	sb	a5,0(s0)
80000448:	00050023          	sb	zero,0(a0)
8000044c:	01412083          	lw	ra,20(sp)
80000450:	01012403          	lw	s0,16(sp)
80000454:	00c12483          	lw	s1,12(sp)
80000458:	01810113          	addi	sp,sp,24
8000045c:	00008067          	ret
80000460:	03050793          	addi	a5,a0,48
80000464:	0ff7f793          	zext.b	a5,a5
80000468:	00140513          	addi	a0,s0,1
8000046c:	fd9ff06f          	j	80000444 <number_to_str+0xe8>

80000470 <vsprintf>:
80000470:	bd810113          	addi	sp,sp,-1064
80000474:	42112223          	sw	ra,1060(sp)
80000478:	42812023          	sw	s0,1056(sp)
8000047c:	40912e23          	sw	s1,1052(sp)
80000480:	00a12423          	sw	a0,8(sp)
80000484:	46058a63          	beqz	a1,800008f8 <vsprintf+0x488>
80000488:	0005c683          	lbu	a3,0(a1)
8000048c:	00012223          	sw	zero,4(sp)
80000490:	00012023          	sw	zero,0(sp)
80000494:	00058493          	mv	s1,a1
80000498:	00060313          	mv	t1,a2
8000049c:	00050893          	mv	a7,a0
800004a0:	02068063          	beqz	a3,800004c0 <vsprintf+0x50>
800004a4:	02500713          	li	a4,37
800004a8:	02e68e63          	beq	a3,a4,800004e4 <vsprintf+0x74>
800004ac:	00d88023          	sb	a3,0(a7)
800004b0:	0014c683          	lbu	a3,1(s1)
800004b4:	00188893          	addi	a7,a7,1
800004b8:	00148493          	addi	s1,s1,1
800004bc:	fe0694e3          	bnez	a3,800004a4 <vsprintf+0x34>
800004c0:	00088023          	sb	zero,0(a7)
800004c4:	00812783          	lw	a5,8(sp)
800004c8:	42412083          	lw	ra,1060(sp)
800004cc:	42012403          	lw	s0,1056(sp)
800004d0:	00188513          	addi	a0,a7,1
800004d4:	41c12483          	lw	s1,1052(sp)
800004d8:	40f50533          	sub	a0,a0,a5
800004dc:	42810113          	addi	sp,sp,1064
800004e0:	00008067          	ret
800004e4:	0014c603          	lbu	a2,1(s1)
800004e8:	0cd60a63          	beq	a2,a3,800005bc <vsprintf+0x14c>
800004ec:	fe060693          	addi	a3,a2,-32
800004f0:	0ff6f693          	zext.b	a3,a3
800004f4:	00d00713          	li	a4,13
800004f8:	00d76c63          	bltu	a4,a3,80000510 <vsprintf+0xa0>
800004fc:	00003737          	lui	a4,0x3
80000500:	80170713          	addi	a4,a4,-2047 # 2801 <_entry_offset+0x2801>
80000504:	00d75733          	srl	a4,a4,a3
80000508:	00177713          	andi	a4,a4,1
8000050c:	0a071063          	bnez	a4,800005ac <vsprintf+0x13c>
80000510:	00148493          	addi	s1,s1,1
80000514:	00060593          	mv	a1,a2
80000518:	03000713          	li	a4,48
8000051c:	02000e13          	li	t3,32
80000520:	00e59863          	bne	a1,a4,80000530 <vsprintf+0xc0>
80000524:	0014c583          	lbu	a1,1(s1)
80000528:	03000e13          	li	t3,48
8000052c:	00148493          	addi	s1,s1,1
80000530:	fd058693          	addi	a3,a1,-48
80000534:	0ff6f613          	zext.b	a2,a3
80000538:	00900713          	li	a4,9
8000053c:	00000813          	li	a6,0
80000540:	02c76663          	bltu	a4,a2,8000056c <vsprintf+0xfc>
80000544:	00900513          	li	a0,9
80000548:	0014c583          	lbu	a1,1(s1)
8000054c:	00281713          	slli	a4,a6,0x2
80000550:	01070733          	add	a4,a4,a6
80000554:	00171713          	slli	a4,a4,0x1
80000558:	00d70833          	add	a6,a4,a3
8000055c:	fd058693          	addi	a3,a1,-48
80000560:	0ff6f713          	zext.b	a4,a3
80000564:	00148493          	addi	s1,s1,1
80000568:	fee570e3          	bgeu	a0,a4,80000548 <vsprintf+0xd8>
8000056c:	02e00713          	li	a4,46
80000570:	2ae58a63          	beq	a1,a4,80000824 <vsprintf+0x3b4>
80000574:	0004c683          	lbu	a3,0(s1)
80000578:	07300713          	li	a4,115
8000057c:	26e68463          	beq	a3,a4,800007e4 <vsprintf+0x374>
80000580:	f9d68713          	addi	a4,a3,-99
80000584:	0ff77713          	zext.b	a4,a4
80000588:	01500613          	li	a2,21
8000058c:	04e66463          	bltu	a2,a4,800005d4 <vsprintf+0x164>
80000590:	00001797          	auipc	a5,0x1
80000594:	a1478793          	addi	a5,a5,-1516 # 80000fa4 <_etext+0x130>
80000598:	00271713          	slli	a4,a4,0x2
8000059c:	00f70733          	add	a4,a4,a5
800005a0:	00072703          	lw	a4,0(a4)
800005a4:	00f70733          	add	a4,a4,a5
800005a8:	00070067          	jr	a4
800005ac:	0024c583          	lbu	a1,2(s1)
800005b0:	00c12223          	sw	a2,4(sp)
800005b4:	00248493          	addi	s1,s1,2
800005b8:	f61ff06f          	j	80000518 <vsprintf+0xa8>
800005bc:	00d88023          	sb	a3,0(a7)
800005c0:	0024c683          	lbu	a3,2(s1)
800005c4:	00188893          	addi	a7,a7,1
800005c8:	00248493          	addi	s1,s1,2
800005cc:	ec069ce3          	bnez	a3,800004a4 <vsprintf+0x34>
800005d0:	ef1ff06f          	j	800004c0 <vsprintf+0x50>
800005d4:	06600713          	li	a4,102
800005d8:	2ee69463          	bne	a3,a4,800008c0 <vsprintf+0x450>
800005dc:	00012783          	lw	a5,0(sp)
800005e0:	02e00713          	li	a4,46
800005e4:	00148493          	addi	s1,s1,1
800005e8:	00e78023          	sb	a4,0(a5)
800005ec:	000780a3          	sb	zero,1(a5)
800005f0:	00178793          	addi	a5,a5,1
800005f4:	0004c683          	lbu	a3,0(s1)
800005f8:	00f12023          	sw	a5,0(sp)
800005fc:	ec1ff06f          	j	800004bc <vsprintf+0x4c>
80000600:	00032583          	lw	a1,0(t1)
80000604:	01c10413          	addi	s0,sp,28
80000608:	00000713          	li	a4,0
8000060c:	00430793          	addi	a5,t1,4
80000610:	01000693          	li	a3,16
80000614:	00000613          	li	a2,0
80000618:	00040513          	mv	a0,s0
8000061c:	01012a23          	sw	a6,20(sp)
80000620:	01112823          	sw	a7,16(sp)
80000624:	01c12c23          	sw	t3,24(sp)
80000628:	00f12623          	sw	a5,12(sp)
8000062c:	d31ff0ef          	jal	ra,8000035c <number_to_str>
80000630:	00040513          	mv	a0,s0
80000634:	b2dff0ef          	jal	ra,80000160 <strlen>
80000638:	01412803          	lw	a6,20(sp)
8000063c:	01012883          	lw	a7,16(sp)
80000640:	40a80733          	sub	a4,a6,a0
80000644:	2ae05263          	blez	a4,800008e8 <vsprintf+0x478>
80000648:	01812e03          	lw	t3,24(sp)
8000064c:	00e88733          	add	a4,a7,a4
80000650:	00188893          	addi	a7,a7,1
80000654:	ffc88fa3          	sb	t3,-1(a7)
80000658:	fee89ce3          	bne	a7,a4,80000650 <vsprintf+0x1e0>
8000065c:	00070023          	sb	zero,0(a4)
80000660:	00070513          	mv	a0,a4
80000664:	00040593          	mv	a1,s0
80000668:	00e12823          	sw	a4,16(sp)
8000066c:	badff0ef          	jal	ra,80000218 <strcat>
80000670:	00040513          	mv	a0,s0
80000674:	aedff0ef          	jal	ra,80000160 <strlen>
80000678:	01012703          	lw	a4,16(sp)
8000067c:	0014c683          	lbu	a3,1(s1)
80000680:	00c12303          	lw	t1,12(sp)
80000684:	00a708b3          	add	a7,a4,a0
80000688:	00148493          	addi	s1,s1,1
8000068c:	e31ff06f          	j	800004bc <vsprintf+0x4c>
80000690:	00032583          	lw	a1,0(t1)
80000694:	01c10413          	addi	s0,sp,28
80000698:	00000713          	li	a4,0
8000069c:	00430793          	addi	a5,t1,4
800006a0:	00a00693          	li	a3,10
800006a4:	00000613          	li	a2,0
800006a8:	00040513          	mv	a0,s0
800006ac:	01012a23          	sw	a6,20(sp)
800006b0:	01112823          	sw	a7,16(sp)
800006b4:	01c12c23          	sw	t3,24(sp)
800006b8:	00f12623          	sw	a5,12(sp)
800006bc:	ca1ff0ef          	jal	ra,8000035c <number_to_str>
800006c0:	00040513          	mv	a0,s0
800006c4:	a9dff0ef          	jal	ra,80000160 <strlen>
800006c8:	01412803          	lw	a6,20(sp)
800006cc:	01012883          	lw	a7,16(sp)
800006d0:	40a80733          	sub	a4,a6,a0
800006d4:	20e05a63          	blez	a4,800008e8 <vsprintf+0x478>
800006d8:	01812e03          	lw	t3,24(sp)
800006dc:	00e88733          	add	a4,a7,a4
800006e0:	00188893          	addi	a7,a7,1
800006e4:	ffc88fa3          	sb	t3,-1(a7)
800006e8:	fee89ce3          	bne	a7,a4,800006e0 <vsprintf+0x270>
800006ec:	f71ff06f          	j	8000065c <vsprintf+0x1ec>
800006f0:	0014c683          	lbu	a3,1(s1)
800006f4:	06400713          	li	a4,100
800006f8:	dce690e3          	bne	a3,a4,800004b8 <vsprintf+0x48>
800006fc:	00032583          	lw	a1,0(t1)
80000700:	01c10413          	addi	s0,sp,28
80000704:	00000713          	li	a4,0
80000708:	00430793          	addi	a5,t1,4
8000070c:	00a00693          	li	a3,10
80000710:	00000613          	li	a2,0
80000714:	00040513          	mv	a0,s0
80000718:	01012c23          	sw	a6,24(sp)
8000071c:	01112823          	sw	a7,16(sp)
80000720:	01c12a23          	sw	t3,20(sp)
80000724:	00f12623          	sw	a5,12(sp)
80000728:	c35ff0ef          	jal	ra,8000035c <number_to_str>
8000072c:	00040513          	mv	a0,s0
80000730:	a31ff0ef          	jal	ra,80000160 <strlen>
80000734:	01812803          	lw	a6,24(sp)
80000738:	01012883          	lw	a7,16(sp)
8000073c:	40a80733          	sub	a4,a6,a0
80000740:	1ae05863          	blez	a4,800008f0 <vsprintf+0x480>
80000744:	01412e03          	lw	t3,20(sp)
80000748:	00e88733          	add	a4,a7,a4
8000074c:	00188893          	addi	a7,a7,1
80000750:	ffc88fa3          	sb	t3,-1(a7)
80000754:	fee89ce3          	bne	a7,a4,8000074c <vsprintf+0x2dc>
80000758:	00070023          	sb	zero,0(a4)
8000075c:	00070513          	mv	a0,a4
80000760:	00040593          	mv	a1,s0
80000764:	00e12823          	sw	a4,16(sp)
80000768:	ab1ff0ef          	jal	ra,80000218 <strcat>
8000076c:	00040513          	mv	a0,s0
80000770:	9f1ff0ef          	jal	ra,80000160 <strlen>
80000774:	01012703          	lw	a4,16(sp)
80000778:	00148613          	addi	a2,s1,1
8000077c:	0024c683          	lbu	a3,2(s1)
80000780:	00060493          	mv	s1,a2
80000784:	00c12303          	lw	t1,12(sp)
80000788:	00a708b3          	add	a7,a4,a0
8000078c:	00148493          	addi	s1,s1,1
80000790:	d2dff06f          	j	800004bc <vsprintf+0x4c>
80000794:	00032583          	lw	a1,0(t1)
80000798:	00430793          	addi	a5,t1,4
8000079c:	00f12623          	sw	a5,12(sp)
800007a0:	0a05cc63          	bltz	a1,80000858 <vsprintf+0x3e8>
800007a4:	00412783          	lw	a5,4(sp)
800007a8:	02b00713          	li	a4,43
800007ac:	12e78063          	beq	a5,a4,800008cc <vsprintf+0x45c>
800007b0:	01c10413          	addi	s0,sp,28
800007b4:	02000713          	li	a4,32
800007b8:	00812023          	sw	s0,0(sp)
800007bc:	10e78863          	beq	a5,a4,800008cc <vsprintf+0x45c>
800007c0:	00012223          	sw	zero,4(sp)
800007c4:	0ac0006f          	j	80000870 <vsprintf+0x400>
800007c8:	00032703          	lw	a4,0(t1)
800007cc:	00188893          	addi	a7,a7,1
800007d0:	00430313          	addi	t1,t1,4
800007d4:	fee88fa3          	sb	a4,-1(a7)
800007d8:	0014c683          	lbu	a3,1(s1)
800007dc:	00148493          	addi	s1,s1,1
800007e0:	cddff06f          	j	800004bc <vsprintf+0x4c>
800007e4:	00032783          	lw	a5,0(t1)
800007e8:	00088513          	mv	a0,a7
800007ec:	00088023          	sb	zero,0(a7)
800007f0:	00078593          	mv	a1,a5
800007f4:	01112623          	sw	a7,12(sp)
800007f8:	00430413          	addi	s0,t1,4
800007fc:	00f12023          	sw	a5,0(sp)
80000800:	a19ff0ef          	jal	ra,80000218 <strcat>
80000804:	00012503          	lw	a0,0(sp)
80000808:	00148493          	addi	s1,s1,1
8000080c:	955ff0ef          	jal	ra,80000160 <strlen>
80000810:	00c12883          	lw	a7,12(sp)
80000814:	0004c683          	lbu	a3,0(s1)
80000818:	00040313          	mv	t1,s0
8000081c:	00a888b3          	add	a7,a7,a0
80000820:	c9dff06f          	j	800004bc <vsprintf+0x4c>
80000824:	0014c683          	lbu	a3,1(s1)
80000828:	00900613          	li	a2,9
8000082c:	00148793          	addi	a5,s1,1
80000830:	fd068713          	addi	a4,a3,-48
80000834:	0ff77713          	zext.b	a4,a4
80000838:	00e66c63          	bltu	a2,a4,80000850 <vsprintf+0x3e0>
8000083c:	0017c683          	lbu	a3,1(a5)
80000840:	00178793          	addi	a5,a5,1
80000844:	fd068713          	addi	a4,a3,-48
80000848:	0ff77713          	zext.b	a4,a4
8000084c:	fee678e3          	bgeu	a2,a4,8000083c <vsprintf+0x3cc>
80000850:	00078493          	mv	s1,a5
80000854:	d25ff06f          	j	80000578 <vsprintf+0x108>
80000858:	02d00713          	li	a4,45
8000085c:	01d10793          	addi	a5,sp,29
80000860:	00e10e23          	sb	a4,28(sp)
80000864:	40b005b3          	neg	a1,a1
80000868:	00f12023          	sw	a5,0(sp)
8000086c:	01c10413          	addi	s0,sp,28
80000870:	00012503          	lw	a0,0(sp)
80000874:	00000713          	li	a4,0
80000878:	00a00693          	li	a3,10
8000087c:	00000613          	li	a2,0
80000880:	01012a23          	sw	a6,20(sp)
80000884:	01112823          	sw	a7,16(sp)
80000888:	01c12c23          	sw	t3,24(sp)
8000088c:	ad1ff0ef          	jal	ra,8000035c <number_to_str>
80000890:	00040513          	mv	a0,s0
80000894:	8cdff0ef          	jal	ra,80000160 <strlen>
80000898:	01412803          	lw	a6,20(sp)
8000089c:	01012883          	lw	a7,16(sp)
800008a0:	40a80733          	sub	a4,a6,a0
800008a4:	04e05263          	blez	a4,800008e8 <vsprintf+0x478>
800008a8:	01812e03          	lw	t3,24(sp)
800008ac:	00e88733          	add	a4,a7,a4
800008b0:	00188893          	addi	a7,a7,1
800008b4:	ffc88fa3          	sb	t3,-1(a7)
800008b8:	fee89ce3          	bne	a7,a4,800008b0 <vsprintf+0x440>
800008bc:	da1ff06f          	j	8000065c <vsprintf+0x1ec>
800008c0:	0014c683          	lbu	a3,1(s1)
800008c4:	00148493          	addi	s1,s1,1
800008c8:	bf5ff06f          	j	800004bc <vsprintf+0x4c>
800008cc:	00412783          	lw	a5,4(sp)
800008d0:	01c10413          	addi	s0,sp,28
800008d4:	00012223          	sw	zero,4(sp)
800008d8:	00f10e23          	sb	a5,28(sp)
800008dc:	01d10793          	addi	a5,sp,29
800008e0:	00f12023          	sw	a5,0(sp)
800008e4:	f8dff06f          	j	80000870 <vsprintf+0x400>
800008e8:	00088713          	mv	a4,a7
800008ec:	d71ff06f          	j	8000065c <vsprintf+0x1ec>
800008f0:	00088713          	mv	a4,a7
800008f4:	e65ff06f          	j	80000758 <vsprintf+0x2e8>
800008f8:	08100613          	li	a2,129
800008fc:	00000597          	auipc	a1,0x0
80000900:	65858593          	addi	a1,a1,1624 # 80000f54 <_etext+0xe0>
80000904:	00000517          	auipc	a0,0x0
80000908:	63450513          	addi	a0,a0,1588 # 80000f38 <_etext+0xc4>
8000090c:	00c000ef          	jal	ra,80000918 <printf>
80000910:	00100513          	li	a0,1
80000914:	821ff0ef          	jal	ra,80000134 <halt>

80000918 <printf>:
80000918:	bd810113          	addi	sp,sp,-1064
8000091c:	40112823          	sw	ra,1040(sp)
80000920:	40812623          	sw	s0,1036(sp)
80000924:	40912423          	sw	s1,1032(sp)
80000928:	40b12a23          	sw	a1,1044(sp)
8000092c:	40c12c23          	sw	a2,1048(sp)
80000930:	40d12e23          	sw	a3,1052(sp)
80000934:	42e12023          	sw	a4,1056(sp)
80000938:	42f12223          	sw	a5,1060(sp)
8000093c:	04050863          	beqz	a0,8000098c <printf+0x74>
80000940:	41410613          	addi	a2,sp,1044
80000944:	00050593          	mv	a1,a0
80000948:	00810513          	addi	a0,sp,8
8000094c:	00c12223          	sw	a2,4(sp)
80000950:	b21ff0ef          	jal	ra,80000470 <vsprintf>
80000954:	00a12023          	sw	a0,0(sp)
80000958:	00a05e63          	blez	a0,80000974 <printf+0x5c>
8000095c:	00810493          	addi	s1,sp,8
80000960:	00a48433          	add	s0,s1,a0
80000964:	0004c503          	lbu	a0,0(s1)
80000968:	00148493          	addi	s1,s1,1
8000096c:	fbcff0ef          	jal	ra,80000128 <putch>
80000970:	fe849ae3          	bne	s1,s0,80000964 <printf+0x4c>
80000974:	41012083          	lw	ra,1040(sp)
80000978:	40c12403          	lw	s0,1036(sp)
8000097c:	00012503          	lw	a0,0(sp)
80000980:	40812483          	lw	s1,1032(sp)
80000984:	42810113          	addi	sp,sp,1064
80000988:	00008067          	ret
8000098c:	07200613          	li	a2,114
80000990:	00000597          	auipc	a1,0x0
80000994:	5c458593          	addi	a1,a1,1476 # 80000f54 <_etext+0xe0>
80000998:	00000517          	auipc	a0,0x0
8000099c:	5a050513          	addi	a0,a0,1440 # 80000f38 <_etext+0xc4>
800009a0:	f79ff0ef          	jal	ra,80000918 <printf>
800009a4:	00100513          	li	a0,1
800009a8:	f8cff0ef          	jal	ra,80000134 <halt>

800009ac <__udivmoddi4>:
800009ac:	00050313          	mv	t1,a0
800009b0:	02059263          	bnez	a1,800009d4 <__udivmoddi4+0x28>
800009b4:	1c069c63          	bnez	a3,80000b8c <__udivmoddi4+0x1e0>
800009b8:	00070863          	beqz	a4,800009c8 <__udivmoddi4+0x1c>
800009bc:	02c577b3          	remu	a5,a0,a2
800009c0:	00072223          	sw	zero,4(a4)
800009c4:	00f72023          	sw	a5,0(a4)
800009c8:	02c35533          	divu	a0,t1,a2
800009cc:	00000593          	li	a1,0
800009d0:	00008067          	ret
800009d4:	fe010113          	addi	sp,sp,-32
800009d8:	00812c23          	sw	s0,24(sp)
800009dc:	00112e23          	sw	ra,28(sp)
800009e0:	00912a23          	sw	s1,20(sp)
800009e4:	00058413          	mv	s0,a1
800009e8:	12061463          	bnez	a2,80000b10 <__udivmoddi4+0x164>
800009ec:	20068c63          	beqz	a3,80000c04 <__udivmoddi4+0x258>
800009f0:	2a050c63          	beqz	a0,80000ca8 <__udivmoddi4+0x2fc>
800009f4:	fff68793          	addi	a5,a3,-1
800009f8:	00d7f533          	and	a0,a5,a3
800009fc:	2c050a63          	beqz	a0,80000cd0 <__udivmoddi4+0x324>
80000a00:	00068513          	mv	a0,a3
80000a04:	00c12823          	sw	a2,16(sp)
80000a08:	00b12623          	sw	a1,12(sp)
80000a0c:	00612423          	sw	t1,8(sp)
80000a10:	00e12223          	sw	a4,4(sp)
80000a14:	00d12023          	sw	a3,0(sp)
80000a18:	350000ef          	jal	ra,80000d68 <__clzsi2>
80000a1c:	00050493          	mv	s1,a0
80000a20:	00040513          	mv	a0,s0
80000a24:	344000ef          	jal	ra,80000d68 <__clzsi2>
80000a28:	40a48533          	sub	a0,s1,a0
80000a2c:	01e00793          	li	a5,30
80000a30:	00012683          	lw	a3,0(sp)
80000a34:	00412703          	lw	a4,4(sp)
80000a38:	00812303          	lw	t1,8(sp)
80000a3c:	00c12583          	lw	a1,12(sp)
80000a40:	01012603          	lw	a2,16(sp)
80000a44:	1ca7e863          	bltu	a5,a0,80000c14 <__udivmoddi4+0x268>
80000a48:	00150593          	addi	a1,a0,1
80000a4c:	02000e93          	li	t4,32
80000a50:	40be8eb3          	sub	t4,t4,a1
80000a54:	01d41833          	sll	a6,s0,t4
80000a58:	00b35533          	srl	a0,t1,a1
80000a5c:	00b457b3          	srl	a5,s0,a1
80000a60:	01d31eb3          	sll	t4,t1,t4
80000a64:	00a86433          	or	s0,a6,a0
80000a68:	00000493          	li	s1,0
80000a6c:	00000313          	li	t1,0
80000a70:	01fed513          	srli	a0,t4,0x1f
80000a74:	00141813          	slli	a6,s0,0x1
80000a78:	00a86833          	or	a6,a6,a0
80000a7c:	01f45413          	srli	s0,s0,0x1f
80000a80:	00179793          	slli	a5,a5,0x1
80000a84:	0087e7b3          	or	a5,a5,s0
80000a88:	41060e33          	sub	t3,a2,a6
80000a8c:	01c63533          	sltu	a0,a2,t3
80000a90:	40f688b3          	sub	a7,a3,a5
80000a94:	40a888b3          	sub	a7,a7,a0
80000a98:	001e3e13          	seqz	t3,t3
80000a9c:	41c888b3          	sub	a7,a7,t3
80000aa0:	41f8de13          	srai	t3,a7,0x1f
80000aa4:	00ce7433          	and	s0,t3,a2
80000aa8:	40880433          	sub	s0,a6,s0
80000aac:	00de7e33          	and	t3,t3,a3
80000ab0:	01f4d513          	srli	a0,s1,0x1f
80000ab4:	001e9e93          	slli	t4,t4,0x1
80000ab8:	00149493          	slli	s1,s1,0x1
80000abc:	00883833          	sltu	a6,a6,s0
80000ac0:	41c787b3          	sub	a5,a5,t3
80000ac4:	fff58593          	addi	a1,a1,-1
80000ac8:	0064e4b3          	or	s1,s1,t1
80000acc:	00aeeeb3          	or	t4,t4,a0
80000ad0:	01f8d313          	srli	t1,a7,0x1f
80000ad4:	410787b3          	sub	a5,a5,a6
80000ad8:	f8059ce3          	bnez	a1,80000a70 <__udivmoddi4+0xc4>
80000adc:	01f4d593          	srli	a1,s1,0x1f
80000ae0:	001e9e93          	slli	t4,t4,0x1
80000ae4:	00149493          	slli	s1,s1,0x1
80000ae8:	0064e533          	or	a0,s1,t1
80000aec:	01d5e5b3          	or	a1,a1,t4
80000af0:	00070663          	beqz	a4,80000afc <__udivmoddi4+0x150>
80000af4:	00872023          	sw	s0,0(a4)
80000af8:	00f72223          	sw	a5,4(a4)
80000afc:	01c12083          	lw	ra,28(sp)
80000b00:	01812403          	lw	s0,24(sp)
80000b04:	01412483          	lw	s1,20(sp)
80000b08:	02010113          	addi	sp,sp,32
80000b0c:	00008067          	ret
80000b10:	08068a63          	beqz	a3,80000ba4 <__udivmoddi4+0x1f8>
80000b14:	00a12223          	sw	a0,4(sp)
80000b18:	00068513          	mv	a0,a3
80000b1c:	00b12423          	sw	a1,8(sp)
80000b20:	00e12023          	sw	a4,0(sp)
80000b24:	00c12823          	sw	a2,16(sp)
80000b28:	00d12623          	sw	a3,12(sp)
80000b2c:	23c000ef          	jal	ra,80000d68 <__clzsi2>
80000b30:	00050493          	mv	s1,a0
80000b34:	00040513          	mv	a0,s0
80000b38:	230000ef          	jal	ra,80000d68 <__clzsi2>
80000b3c:	40a48533          	sub	a0,s1,a0
80000b40:	01f00793          	li	a5,31
80000b44:	00012703          	lw	a4,0(sp)
80000b48:	00412303          	lw	t1,4(sp)
80000b4c:	00812583          	lw	a1,8(sp)
80000b50:	0ca7e263          	bltu	a5,a0,80000c14 <__udivmoddi4+0x268>
80000b54:	00150593          	addi	a1,a0,1
80000b58:	02000793          	li	a5,32
80000b5c:	00c12683          	lw	a3,12(sp)
80000b60:	01012603          	lw	a2,16(sp)
80000b64:	00030e93          	mv	t4,t1
80000b68:	18f58a63          	beq	a1,a5,80000cfc <__udivmoddi4+0x350>
80000b6c:	40b78533          	sub	a0,a5,a1
80000b70:	00b35833          	srl	a6,t1,a1
80000b74:	00a418b3          	sll	a7,s0,a0
80000b78:	00b457b3          	srl	a5,s0,a1
80000b7c:	00a31eb3          	sll	t4,t1,a0
80000b80:	0108e433          	or	s0,a7,a6
80000b84:	00000493          	li	s1,0
80000b88:	ee5ff06f          	j	80000a6c <__udivmoddi4+0xc0>
80000b8c:	06070e63          	beqz	a4,80000c08 <__udivmoddi4+0x25c>
80000b90:	00a72023          	sw	a0,0(a4)
80000b94:	00072223          	sw	zero,4(a4)
80000b98:	00000513          	li	a0,0
80000b9c:	00000593          	li	a1,0
80000ba0:	00008067          	ret
80000ba4:	fff60793          	addi	a5,a2,-1
80000ba8:	00c7f533          	and	a0,a5,a2
80000bac:	08051063          	bnez	a0,80000c2c <__udivmoddi4+0x280>
80000bb0:	00070863          	beqz	a4,80000bc0 <__udivmoddi4+0x214>
80000bb4:	0067f7b3          	and	a5,a5,t1
80000bb8:	00f72023          	sw	a5,0(a4)
80000bbc:	00072223          	sw	zero,4(a4)
80000bc0:	00100793          	li	a5,1
80000bc4:	00030513          	mv	a0,t1
80000bc8:	f2f60ae3          	beq	a2,a5,80000afc <__udivmoddi4+0x150>
80000bcc:	00060513          	mv	a0,a2
80000bd0:	00b12223          	sw	a1,4(sp)
80000bd4:	00612023          	sw	t1,0(sp)
80000bd8:	228000ef          	jal	ra,80000e00 <__ctzsi2>
80000bdc:	00412583          	lw	a1,4(sp)
80000be0:	00012303          	lw	t1,0(sp)
80000be4:	02000713          	li	a4,32
80000be8:	40a70733          	sub	a4,a4,a0
80000bec:	00050793          	mv	a5,a0
80000bf0:	00e59733          	sll	a4,a1,a4
80000bf4:	00a35333          	srl	t1,t1,a0
80000bf8:	00676533          	or	a0,a4,t1
80000bfc:	00f5d5b3          	srl	a1,a1,a5
80000c00:	efdff06f          	j	80000afc <__udivmoddi4+0x150>
80000c04:	00100073          	ebreak
80000c08:	00000513          	li	a0,0
80000c0c:	00000593          	li	a1,0
80000c10:	00008067          	ret
80000c14:	0a070863          	beqz	a4,80000cc4 <__udivmoddi4+0x318>
80000c18:	00b72223          	sw	a1,4(a4)
80000c1c:	00672023          	sw	t1,0(a4)
80000c20:	00000513          	li	a0,0
80000c24:	00000593          	li	a1,0
80000c28:	ed5ff06f          	j	80000afc <__udivmoddi4+0x150>
80000c2c:	00060513          	mv	a0,a2
80000c30:	00068493          	mv	s1,a3
80000c34:	00d12823          	sw	a3,16(sp)
80000c38:	00612623          	sw	t1,12(sp)
80000c3c:	00e12423          	sw	a4,8(sp)
80000c40:	00c12223          	sw	a2,4(sp)
80000c44:	124000ef          	jal	ra,80000d68 <__clzsi2>
80000c48:	00050793          	mv	a5,a0
80000c4c:	00040513          	mv	a0,s0
80000c50:	00f12023          	sw	a5,0(sp)
80000c54:	114000ef          	jal	ra,80000d68 <__clzsi2>
80000c58:	00012783          	lw	a5,0(sp)
80000c5c:	00c12303          	lw	t1,12(sp)
80000c60:	02000813          	li	a6,32
80000c64:	40a78533          	sub	a0,a5,a0
80000c68:	02150593          	addi	a1,a0,33
80000c6c:	00412603          	lw	a2,4(sp)
80000c70:	00812703          	lw	a4,8(sp)
80000c74:	01012683          	lw	a3,16(sp)
80000c78:	00030e93          	mv	t4,t1
80000c7c:	00000793          	li	a5,0
80000c80:	df0586e3          	beq	a1,a6,80000a6c <__udivmoddi4+0xc0>
80000c84:	01f00893          	li	a7,31
80000c88:	08b8e063          	bltu	a7,a1,80000d08 <__udivmoddi4+0x35c>
80000c8c:	40b80833          	sub	a6,a6,a1
80000c90:	00b35533          	srl	a0,t1,a1
80000c94:	010418b3          	sll	a7,s0,a6
80000c98:	00b457b3          	srl	a5,s0,a1
80000c9c:	01031eb3          	sll	t4,t1,a6
80000ca0:	00a8e433          	or	s0,a7,a0
80000ca4:	dc9ff06f          	j	80000a6c <__udivmoddi4+0xc0>
80000ca8:	00070863          	beqz	a4,80000cb8 <__udivmoddi4+0x30c>
80000cac:	02d5f7b3          	remu	a5,a1,a3
80000cb0:	00072023          	sw	zero,0(a4)
80000cb4:	00f72223          	sw	a5,4(a4)
80000cb8:	02d5d533          	divu	a0,a1,a3
80000cbc:	00000593          	li	a1,0
80000cc0:	e3dff06f          	j	80000afc <__udivmoddi4+0x150>
80000cc4:	00000513          	li	a0,0
80000cc8:	00000593          	li	a1,0
80000ccc:	e31ff06f          	j	80000afc <__udivmoddi4+0x150>
80000cd0:	00070863          	beqz	a4,80000ce0 <__udivmoddi4+0x334>
80000cd4:	00b7f7b3          	and	a5,a5,a1
80000cd8:	00672023          	sw	t1,0(a4)
80000cdc:	00f72223          	sw	a5,4(a4)
80000ce0:	00068513          	mv	a0,a3
80000ce4:	00b12023          	sw	a1,0(sp)
80000ce8:	118000ef          	jal	ra,80000e00 <__ctzsi2>
80000cec:	00012583          	lw	a1,0(sp)
80000cf0:	00a5d533          	srl	a0,a1,a0
80000cf4:	00000593          	li	a1,0
80000cf8:	e05ff06f          	j	80000afc <__udivmoddi4+0x150>
80000cfc:	00000793          	li	a5,0
80000d00:	00000493          	li	s1,0
80000d04:	d69ff06f          	j	80000a6c <__udivmoddi4+0xc0>
80000d08:	04000813          	li	a6,64
80000d0c:	40b80833          	sub	a6,a6,a1
80000d10:	00150513          	addi	a0,a0,1
80000d14:	010314b3          	sll	s1,t1,a6
80000d18:	00a35eb3          	srl	t4,t1,a0
80000d1c:	01041833          	sll	a6,s0,a6
80000d20:	01d86eb3          	or	t4,a6,t4
80000d24:	00a45433          	srl	s0,s0,a0
80000d28:	d45ff06f          	j	80000a6c <__udivmoddi4+0xc0>

80000d2c <__udivdi3>:
80000d2c:	00000713          	li	a4,0
80000d30:	c7dff06f          	j	800009ac <__udivmoddi4>

80000d34 <__umoddi3>:
80000d34:	fec10113          	addi	sp,sp,-20
80000d38:	00812623          	sw	s0,12(sp)
80000d3c:	00710413          	addi	s0,sp,7
80000d40:	ff847413          	andi	s0,s0,-8
80000d44:	00040713          	mv	a4,s0
80000d48:	00112823          	sw	ra,16(sp)
80000d4c:	c61ff0ef          	jal	ra,800009ac <__udivmoddi4>
80000d50:	00042503          	lw	a0,0(s0)
80000d54:	00442583          	lw	a1,4(s0)
80000d58:	01012083          	lw	ra,16(sp)
80000d5c:	00c12403          	lw	s0,12(sp)
80000d60:	01410113          	addi	sp,sp,20
80000d64:	00008067          	ret

80000d68 <__clzsi2>:
80000d68:	ffff05b7          	lui	a1,0xffff0
80000d6c:	00b575b3          	and	a1,a0,a1
80000d70:	0015b593          	seqz	a1,a1
80000d74:	00459593          	slli	a1,a1,0x4
80000d78:	01000793          	li	a5,16
80000d7c:	40b787b3          	sub	a5,a5,a1
80000d80:	00010737          	lui	a4,0x10
80000d84:	00f557b3          	srl	a5,a0,a5
80000d88:	f0070713          	addi	a4,a4,-256 # ff00 <_entry_offset+0xff00>
80000d8c:	00e7f733          	and	a4,a5,a4
80000d90:	00173713          	seqz	a4,a4
80000d94:	00371713          	slli	a4,a4,0x3
80000d98:	00800693          	li	a3,8
80000d9c:	40e686b3          	sub	a3,a3,a4
80000da0:	00d7d7b3          	srl	a5,a5,a3
80000da4:	0f07f613          	andi	a2,a5,240
80000da8:	00163613          	seqz	a2,a2
80000dac:	00261613          	slli	a2,a2,0x2
80000db0:	00400693          	li	a3,4
80000db4:	40c686b3          	sub	a3,a3,a2
80000db8:	00d7d7b3          	srl	a5,a5,a3
80000dbc:	00c7f693          	andi	a3,a5,12
80000dc0:	0016b693          	seqz	a3,a3
80000dc4:	00169693          	slli	a3,a3,0x1
80000dc8:	00200813          	li	a6,2
80000dcc:	40d80533          	sub	a0,a6,a3
80000dd0:	00a7d7b3          	srl	a5,a5,a0
80000dd4:	0017d513          	srli	a0,a5,0x1
80000dd8:	00154513          	xori	a0,a0,1
80000ddc:	00b70733          	add	a4,a4,a1
80000de0:	00157513          	andi	a0,a0,1
80000de4:	00e60633          	add	a2,a2,a4
80000de8:	40f80833          	sub	a6,a6,a5
80000dec:	40a00733          	neg	a4,a0
80000df0:	01077733          	and	a4,a4,a6
80000df4:	00c68533          	add	a0,a3,a2
80000df8:	00a70533          	add	a0,a4,a0
80000dfc:	00008067          	ret

80000e00 <__ctzsi2>:
80000e00:	01051593          	slli	a1,a0,0x10
80000e04:	0105d593          	srli	a1,a1,0x10
80000e08:	0015b593          	seqz	a1,a1
80000e0c:	00459593          	slli	a1,a1,0x4
80000e10:	00b557b3          	srl	a5,a0,a1
80000e14:	0ff7f613          	zext.b	a2,a5
80000e18:	00163613          	seqz	a2,a2
80000e1c:	00361613          	slli	a2,a2,0x3
80000e20:	00c7d7b3          	srl	a5,a5,a2
80000e24:	00f7f693          	andi	a3,a5,15
80000e28:	0016b693          	seqz	a3,a3
80000e2c:	00269693          	slli	a3,a3,0x2
80000e30:	00d7d7b3          	srl	a5,a5,a3
80000e34:	0037f713          	andi	a4,a5,3
80000e38:	00173713          	seqz	a4,a4
80000e3c:	00171713          	slli	a4,a4,0x1
80000e40:	00e7d7b3          	srl	a5,a5,a4
80000e44:	0017d513          	srli	a0,a5,0x1
80000e48:	00b60633          	add	a2,a2,a1
80000e4c:	0017f793          	andi	a5,a5,1
80000e50:	00157593          	andi	a1,a0,1
80000e54:	00200513          	li	a0,2
80000e58:	00c686b3          	add	a3,a3,a2
80000e5c:	40b50533          	sub	a0,a0,a1
80000e60:	fff78793          	addi	a5,a5,-1
80000e64:	00f57533          	and	a0,a0,a5
80000e68:	00d70733          	add	a4,a4,a3
80000e6c:	00e50533          	add	a0,a0,a4
80000e70:	00008067          	ret
