
/home/jimple/Documents/ysyx/ysyx-workbench/am-kernels/tests/cpu-tests/build/string-riscv32e-npc.elf:     file format elf32-littleriscv


Disassembly of section .text:

80000000 <_start>:
80000000:	00000413          	li	s0,0
80000004:	0000a117          	auipc	sp,0xa
80000008:	ffc10113          	addi	sp,sp,-4 # 8000a000 <_end>
8000000c:	134000ef          	jal	ra,80000140 <_trm_init>

80000010 <check>:
80000010:	00050463          	beqz	a0,80000018 <check+0x8>
80000014:	00008067          	ret
80000018:	ff410113          	addi	sp,sp,-12
8000001c:	00100513          	li	a0,1
80000020:	00112423          	sw	ra,8(sp)
80000024:	110000ef          	jal	ra,80000134 <halt>

80000028 <main>:
80000028:	ff410113          	addi	sp,sp,-12
8000002c:	00812223          	sw	s0,4(sp)
80000030:	00001417          	auipc	s0,0x1
80000034:	13c40413          	addi	s0,s0,316 # 8000116c <s>
80000038:	00842583          	lw	a1,8(s0)
8000003c:	00042503          	lw	a0,0(s0)
80000040:	00112423          	sw	ra,8(sp)
80000044:	00912023          	sw	s1,0(sp)
80000048:	21c000ef          	jal	ra,80000264 <strcmp>
8000004c:	00153513          	seqz	a0,a0
80000050:	fc1ff0ef          	jal	ra,80000010 <check>
80000054:	00442583          	lw	a1,4(s0)
80000058:	00042503          	lw	a0,0(s0)
8000005c:	00001497          	auipc	s1,0x1
80000060:	13048493          	addi	s1,s1,304 # 8000118c <str>
80000064:	200000ef          	jal	ra,80000264 <strcmp>
80000068:	01f55513          	srli	a0,a0,0x1f
8000006c:	fa5ff0ef          	jal	ra,80000010 <check>
80000070:	00442583          	lw	a1,4(s0)
80000074:	00042503          	lw	a0,0(s0)
80000078:	00158593          	addi	a1,a1,1
8000007c:	00150513          	addi	a0,a0,1
80000080:	1e4000ef          	jal	ra,80000264 <strcmp>
80000084:	01f55513          	srli	a0,a0,0x1f
80000088:	f89ff0ef          	jal	ra,80000010 <check>
8000008c:	00442583          	lw	a1,4(s0)
80000090:	00042503          	lw	a0,0(s0)
80000094:	00258593          	addi	a1,a1,2
80000098:	00250513          	addi	a0,a0,2
8000009c:	1c8000ef          	jal	ra,80000264 <strcmp>
800000a0:	01f55513          	srli	a0,a0,0x1f
800000a4:	f6dff0ef          	jal	ra,80000010 <check>
800000a8:	00442583          	lw	a1,4(s0)
800000ac:	00042503          	lw	a0,0(s0)
800000b0:	00358593          	addi	a1,a1,3
800000b4:	00350513          	addi	a0,a0,3
800000b8:	1ac000ef          	jal	ra,80000264 <strcmp>
800000bc:	01f55513          	srli	a0,a0,0x1f
800000c0:	f51ff0ef          	jal	ra,80000010 <check>
800000c4:	00001597          	auipc	a1,0x1
800000c8:	0c058593          	addi	a1,a1,192 # 80001184 <str1>
800000cc:	00048513          	mv	a0,s1
800000d0:	0e4000ef          	jal	ra,800001b4 <strcpy>
800000d4:	00c42583          	lw	a1,12(s0)
800000d8:	140000ef          	jal	ra,80000218 <strcat>
800000dc:	01042583          	lw	a1,16(s0)
800000e0:	184000ef          	jal	ra,80000264 <strcmp>
800000e4:	00153513          	seqz	a0,a0
800000e8:	f29ff0ef          	jal	ra,80000010 <check>
800000ec:	00500613          	li	a2,5
800000f0:	02300593          	li	a1,35
800000f4:	00048513          	mv	a0,s1
800000f8:	1b4000ef          	jal	ra,800002ac <memset>
800000fc:	01442583          	lw	a1,20(s0)
80000100:	00500613          	li	a2,5
80000104:	1f8000ef          	jal	ra,800002fc <memcmp>
80000108:	00153513          	seqz	a0,a0
8000010c:	f05ff0ef          	jal	ra,80000010 <check>
80000110:	00812083          	lw	ra,8(sp)
80000114:	00412403          	lw	s0,4(sp)
80000118:	00012483          	lw	s1,0(sp)
8000011c:	00000513          	li	a0,0
80000120:	00c10113          	addi	sp,sp,12
80000124:	00008067          	ret

80000128 <putch>:
80000128:	a00007b7          	lui	a5,0xa0000
8000012c:	3ea78c23          	sb	a0,1016(a5) # a00003f8 <_end+0x1fff63f8>
80000130:	00008067          	ret

80000134 <halt>:
80000134:	00050513          	mv	a0,a0
80000138:	00100073          	ebreak
8000013c:	0000006f          	j	8000013c <halt+0x8>

80000140 <_trm_init>:
80000140:	ff410113          	addi	sp,sp,-12
80000144:	00001517          	auipc	a0,0x1
80000148:	02450513          	addi	a0,a0,36 # 80001168 <mainargs>
8000014c:	00112423          	sw	ra,8(sp)
80000150:	ed9ff0ef          	jal	ra,80000028 <main>
80000154:	00050513          	mv	a0,a0
80000158:	00100073          	ebreak
8000015c:	0000006f          	j	8000015c <_trm_init+0x1c>

80000160 <strlen>:
80000160:	02050663          	beqz	a0,8000018c <strlen+0x2c>
80000164:	00054783          	lbu	a5,0(a0)
80000168:	00050713          	mv	a4,a0
8000016c:	00000513          	li	a0,0
80000170:	00078c63          	beqz	a5,80000188 <strlen+0x28>
80000174:	00150513          	addi	a0,a0,1
80000178:	00a707b3          	add	a5,a4,a0
8000017c:	0007c783          	lbu	a5,0(a5)
80000180:	fe079ae3          	bnez	a5,80000174 <strlen+0x14>
80000184:	00008067          	ret
80000188:	00008067          	ret
8000018c:	ff410113          	addi	sp,sp,-12
80000190:	00800613          	li	a2,8
80000194:	00001597          	auipc	a1,0x1
80000198:	ec058593          	addi	a1,a1,-320 # 80001054 <_etext+0x74>
8000019c:	00001517          	auipc	a0,0x1
800001a0:	f0850513          	addi	a0,a0,-248 # 800010a4 <_etext+0xc4>
800001a4:	00112423          	sw	ra,8(sp)
800001a8:	7a0000ef          	jal	ra,80000948 <printf>
800001ac:	00100513          	li	a0,1
800001b0:	f85ff0ef          	jal	ra,80000134 <halt>

800001b4 <strcpy>:
800001b4:	ff410113          	addi	sp,sp,-12
800001b8:	00112423          	sw	ra,8(sp)
800001bc:	01100613          	li	a2,17
800001c0:	02050e63          	beqz	a0,800001fc <strcpy+0x48>
800001c4:	02058a63          	beqz	a1,800001f8 <strcpy+0x44>
800001c8:	0005c703          	lbu	a4,0(a1)
800001cc:	00050793          	mv	a5,a0
800001d0:	00070c63          	beqz	a4,800001e8 <strcpy+0x34>
800001d4:	00e78023          	sb	a4,0(a5)
800001d8:	0015c703          	lbu	a4,1(a1)
800001dc:	00158593          	addi	a1,a1,1
800001e0:	00178793          	addi	a5,a5,1
800001e4:	fe0718e3          	bnez	a4,800001d4 <strcpy+0x20>
800001e8:	00078023          	sb	zero,0(a5)
800001ec:	00812083          	lw	ra,8(sp)
800001f0:	00c10113          	addi	sp,sp,12
800001f4:	00008067          	ret
800001f8:	01200613          	li	a2,18
800001fc:	00001597          	auipc	a1,0x1
80000200:	e5858593          	addi	a1,a1,-424 # 80001054 <_etext+0x74>
80000204:	00001517          	auipc	a0,0x1
80000208:	ea050513          	addi	a0,a0,-352 # 800010a4 <_etext+0xc4>
8000020c:	73c000ef          	jal	ra,80000948 <printf>
80000210:	00100513          	li	a0,1
80000214:	f21ff0ef          	jal	ra,80000134 <halt>

80000218 <strcat>:
80000218:	00054783          	lbu	a5,0(a0)
8000021c:	02078663          	beqz	a5,80000248 <strcat+0x30>
80000220:	00050793          	mv	a5,a0
80000224:	0017c703          	lbu	a4,1(a5)
80000228:	00178793          	addi	a5,a5,1
8000022c:	fe071ce3          	bnez	a4,80000224 <strcat+0xc>
80000230:	0005c703          	lbu	a4,0(a1)
80000234:	00178793          	addi	a5,a5,1
80000238:	00158593          	addi	a1,a1,1
8000023c:	fee78fa3          	sb	a4,-1(a5)
80000240:	fe0718e3          	bnez	a4,80000230 <strcat+0x18>
80000244:	00008067          	ret
80000248:	0005c703          	lbu	a4,0(a1)
8000024c:	00050793          	mv	a5,a0
80000250:	00178793          	addi	a5,a5,1
80000254:	fee78fa3          	sb	a4,-1(a5)
80000258:	00158593          	addi	a1,a1,1
8000025c:	fc071ae3          	bnez	a4,80000230 <strcat+0x18>
80000260:	fe5ff06f          	j	80000244 <strcat+0x2c>

80000264 <strcmp>:
80000264:	00054783          	lbu	a5,0(a0)
80000268:	00079c63          	bnez	a5,80000280 <strcmp+0x1c>
8000026c:	0380006f          	j	800002a4 <strcmp+0x40>
80000270:	02f71063          	bne	a4,a5,80000290 <strcmp+0x2c>
80000274:	00054783          	lbu	a5,0(a0)
80000278:	02078063          	beqz	a5,80000298 <strcmp+0x34>
8000027c:	00068593          	mv	a1,a3
80000280:	0005c703          	lbu	a4,0(a1)
80000284:	00150513          	addi	a0,a0,1
80000288:	00158693          	addi	a3,a1,1
8000028c:	fe0712e3          	bnez	a4,80000270 <strcmp+0xc>
80000290:	40e78533          	sub	a0,a5,a4
80000294:	00008067          	ret
80000298:	0015c703          	lbu	a4,1(a1)
8000029c:	40e78533          	sub	a0,a5,a4
800002a0:	00008067          	ret
800002a4:	0005c703          	lbu	a4,0(a1)
800002a8:	fe9ff06f          	j	80000290 <strcmp+0x2c>

800002ac <memset>:
800002ac:	02050463          	beqz	a0,800002d4 <memset+0x28>
800002b0:	0ff5f593          	zext.b	a1,a1
800002b4:	00c50733          	add	a4,a0,a2
800002b8:	00050793          	mv	a5,a0
800002bc:	00060a63          	beqz	a2,800002d0 <memset+0x24>
800002c0:	00178793          	addi	a5,a5,1
800002c4:	feb78fa3          	sb	a1,-1(a5)
800002c8:	fee79ce3          	bne	a5,a4,800002c0 <memset+0x14>
800002cc:	00008067          	ret
800002d0:	00008067          	ret
800002d4:	ff410113          	addi	sp,sp,-12
800002d8:	04300613          	li	a2,67
800002dc:	00001597          	auipc	a1,0x1
800002e0:	d7858593          	addi	a1,a1,-648 # 80001054 <_etext+0x74>
800002e4:	00001517          	auipc	a0,0x1
800002e8:	dc050513          	addi	a0,a0,-576 # 800010a4 <_etext+0xc4>
800002ec:	00112423          	sw	ra,8(sp)
800002f0:	658000ef          	jal	ra,80000948 <printf>
800002f4:	00100513          	li	a0,1
800002f8:	e3dff0ef          	jal	ra,80000134 <halt>

800002fc <memcmp>:
800002fc:	00100713          	li	a4,1
80000300:	00050793          	mv	a5,a0
80000304:	00c50333          	add	t1,a0,a2
80000308:	00100293          	li	t0,1
8000030c:	00e61c63          	bne	a2,a4,80000324 <memcmp+0x28>
80000310:	0400006f          	j	80000350 <memcmp+0x54>
80000314:	00158693          	addi	a3,a1,1
80000318:	02560463          	beq	a2,t0,80000340 <memcmp+0x44>
8000031c:	00068593          	mv	a1,a3
80000320:	00070793          	mv	a5,a4
80000324:	0007c503          	lbu	a0,0(a5)
80000328:	0005c683          	lbu	a3,0(a1)
8000032c:	00178713          	addi	a4,a5,1
80000330:	40e30633          	sub	a2,t1,a4
80000334:	fed500e3          	beq	a0,a3,80000314 <memcmp+0x18>
80000338:	40d50533          	sub	a0,a0,a3
8000033c:	00008067          	ret
80000340:	0017c503          	lbu	a0,1(a5)
80000344:	0015c683          	lbu	a3,1(a1)
80000348:	40d50533          	sub	a0,a0,a3
8000034c:	00008067          	ret
80000350:	00054503          	lbu	a0,0(a0)
80000354:	0005c683          	lbu	a3,0(a1)
80000358:	fe1ff06f          	j	80000338 <memcmp+0x3c>

8000035c <number_to_str>:
8000035c:	fe810113          	addi	sp,sp,-24
80000360:	00812823          	sw	s0,16(sp)
80000364:	00912623          	sw	s1,12(sp)
80000368:	00112a23          	sw	ra,20(sp)
8000036c:	00060413          	mv	s0,a2
80000370:	00050493          	mv	s1,a0
80000374:	00058793          	mv	a5,a1
80000378:	04e67463          	bgeu	a2,a4,800003c0 <number_to_str+0x64>
8000037c:	0ff7f713          	zext.b	a4,a5
80000380:	00148513          	addi	a0,s1,1
80000384:	02040463          	beqz	s0,800003ac <number_to_str+0x50>
80000388:	03770793          	addi	a5,a4,55
8000038c:	0ff7f793          	zext.b	a5,a5
80000390:	00f48023          	sb	a5,0(s1)
80000394:	000480a3          	sb	zero,1(s1)
80000398:	01412083          	lw	ra,20(sp)
8000039c:	01012403          	lw	s0,16(sp)
800003a0:	00c12483          	lw	s1,12(sp)
800003a4:	01810113          	addi	sp,sp,24
800003a8:	00008067          	ret
800003ac:	00900693          	li	a3,9
800003b0:	fcf6ece3          	bltu	a3,a5,80000388 <number_to_str+0x2c>
800003b4:	03070793          	addi	a5,a4,48
800003b8:	0ff7f793          	zext.b	a5,a5
800003bc:	fd5ff06f          	j	80000390 <number_to_str+0x34>
800003c0:	00068313          	mv	t1,a3
800003c4:	00c71463          	bne	a4,a2,800003cc <number_to_str+0x70>
800003c8:	fad5eae3          	bltu	a1,a3,8000037c <number_to_str+0x20>
800003cc:	00030613          	mv	a2,t1
800003d0:	00070693          	mv	a3,a4
800003d4:	00078513          	mv	a0,a5
800003d8:	00040593          	mv	a1,s0
800003dc:	00f12423          	sw	a5,8(sp)
800003e0:	00612223          	sw	t1,4(sp)
800003e4:	00e12023          	sw	a4,0(sp)
800003e8:	1fd000ef          	jal	ra,80000de4 <__udivdi3>
800003ec:	00412303          	lw	t1,4(sp)
800003f0:	00012703          	lw	a4,0(sp)
800003f4:	00058613          	mv	a2,a1
800003f8:	00030693          	mv	a3,t1
800003fc:	00050593          	mv	a1,a0
80000400:	00048513          	mv	a0,s1
80000404:	f59ff0ef          	jal	ra,8000035c <number_to_str>
80000408:	00812783          	lw	a5,8(sp)
8000040c:	00412303          	lw	t1,4(sp)
80000410:	00012703          	lw	a4,0(sp)
80000414:	00050293          	mv	t0,a0
80000418:	00040593          	mv	a1,s0
8000041c:	00078513          	mv	a0,a5
80000420:	00030613          	mv	a2,t1
80000424:	00070693          	mv	a3,a4
80000428:	00028413          	mv	s0,t0
8000042c:	1c1000ef          	jal	ra,80000dec <__umoddi3>
80000430:	00900793          	li	a5,9
80000434:	02a7d663          	bge	a5,a0,80000460 <number_to_str+0x104>
80000438:	03750793          	addi	a5,a0,55
8000043c:	0ff7f793          	zext.b	a5,a5
80000440:	00140513          	addi	a0,s0,1
80000444:	00f40023          	sb	a5,0(s0)
80000448:	00050023          	sb	zero,0(a0)
8000044c:	01412083          	lw	ra,20(sp)
80000450:	01012403          	lw	s0,16(sp)
80000454:	00c12483          	lw	s1,12(sp)
80000458:	01810113          	addi	sp,sp,24
8000045c:	00008067          	ret
80000460:	03050793          	addi	a5,a0,48
80000464:	0ff7f793          	zext.b	a5,a5
80000468:	00140513          	addi	a0,s0,1
8000046c:	fd9ff06f          	j	80000444 <number_to_str+0xe8>

80000470 <vsprintf>:
80000470:	bd810113          	addi	sp,sp,-1064
80000474:	42112223          	sw	ra,1060(sp)
80000478:	42812023          	sw	s0,1056(sp)
8000047c:	40912e23          	sw	s1,1052(sp)
80000480:	00a12423          	sw	a0,8(sp)
80000484:	4a058263          	beqz	a1,80000928 <vsprintf+0x4b8>
80000488:	0005c703          	lbu	a4,0(a1)
8000048c:	00012023          	sw	zero,0(sp)
80000490:	00012223          	sw	zero,4(sp)
80000494:	00058793          	mv	a5,a1
80000498:	00060493          	mv	s1,a2
8000049c:	00050313          	mv	t1,a0
800004a0:	02070063          	beqz	a4,800004c0 <vsprintf+0x50>
800004a4:	02500693          	li	a3,37
800004a8:	02d70e63          	beq	a4,a3,800004e4 <vsprintf+0x74>
800004ac:	00e30023          	sb	a4,0(t1)
800004b0:	0017c703          	lbu	a4,1(a5)
800004b4:	00130313          	addi	t1,t1,1
800004b8:	00178793          	addi	a5,a5,1
800004bc:	fe0714e3          	bnez	a4,800004a4 <vsprintf+0x34>
800004c0:	00030023          	sb	zero,0(t1)
800004c4:	00812783          	lw	a5,8(sp)
800004c8:	42412083          	lw	ra,1060(sp)
800004cc:	42012403          	lw	s0,1056(sp)
800004d0:	00130513          	addi	a0,t1,1
800004d4:	41c12483          	lw	s1,1052(sp)
800004d8:	40f50533          	sub	a0,a0,a5
800004dc:	42810113          	addi	sp,sp,1064
800004e0:	00008067          	ret
800004e4:	0017c603          	lbu	a2,1(a5)
800004e8:	0ce60c63          	beq	a2,a4,800005c0 <vsprintf+0x150>
800004ec:	fe060693          	addi	a3,a2,-32
800004f0:	0ff6f693          	zext.b	a3,a3
800004f4:	00d00713          	li	a4,13
800004f8:	00d76c63          	bltu	a4,a3,80000510 <vsprintf+0xa0>
800004fc:	00003737          	lui	a4,0x3
80000500:	80170713          	addi	a4,a4,-2047 # 2801 <_entry_offset+0x2801>
80000504:	00d75733          	srl	a4,a4,a3
80000508:	00177713          	andi	a4,a4,1
8000050c:	0a071263          	bnez	a4,800005b0 <vsprintf+0x140>
80000510:	00178793          	addi	a5,a5,1
80000514:	00060693          	mv	a3,a2
80000518:	03000713          	li	a4,48
8000051c:	02000393          	li	t2,32
80000520:	00e69863          	bne	a3,a4,80000530 <vsprintf+0xc0>
80000524:	0017c683          	lbu	a3,1(a5)
80000528:	03000393          	li	t2,48
8000052c:	00178793          	addi	a5,a5,1
80000530:	fd068713          	addi	a4,a3,-48
80000534:	0ff77593          	zext.b	a1,a4
80000538:	00900613          	li	a2,9
8000053c:	00000413          	li	s0,0
80000540:	02b66863          	bltu	a2,a1,80000570 <vsprintf+0x100>
80000544:	00040593          	mv	a1,s0
80000548:	0017c683          	lbu	a3,1(a5)
8000054c:	00259413          	slli	s0,a1,0x2
80000550:	00b40433          	add	s0,s0,a1
80000554:	00141413          	slli	s0,s0,0x1
80000558:	00e405b3          	add	a1,s0,a4
8000055c:	fd068713          	addi	a4,a3,-48
80000560:	0ff77513          	zext.b	a0,a4
80000564:	00178793          	addi	a5,a5,1
80000568:	fea670e3          	bgeu	a2,a0,80000548 <vsprintf+0xd8>
8000056c:	00058413          	mv	s0,a1
80000570:	02e00713          	li	a4,46
80000574:	2ce68c63          	beq	a3,a4,8000084c <vsprintf+0x3dc>
80000578:	0007c683          	lbu	a3,0(a5)
8000057c:	07300713          	li	a4,115
80000580:	28e68263          	beq	a3,a4,80000804 <vsprintf+0x394>
80000584:	f9d68713          	addi	a4,a3,-99
80000588:	0ff77713          	zext.b	a4,a4
8000058c:	01500613          	li	a2,21
80000590:	04e66463          	bltu	a2,a4,800005d8 <vsprintf+0x168>
80000594:	00001617          	auipc	a2,0x1
80000598:	b7c60613          	addi	a2,a2,-1156 # 80001110 <_etext+0x130>
8000059c:	00271713          	slli	a4,a4,0x2
800005a0:	00c70733          	add	a4,a4,a2
800005a4:	00072703          	lw	a4,0(a4)
800005a8:	00c70733          	add	a4,a4,a2
800005ac:	00070067          	jr	a4
800005b0:	0027c683          	lbu	a3,2(a5)
800005b4:	00c12023          	sw	a2,0(sp)
800005b8:	00278793          	addi	a5,a5,2
800005bc:	f5dff06f          	j	80000518 <vsprintf+0xa8>
800005c0:	00e30023          	sb	a4,0(t1)
800005c4:	0027c703          	lbu	a4,2(a5)
800005c8:	00130313          	addi	t1,t1,1
800005cc:	00278793          	addi	a5,a5,2
800005d0:	ec071ae3          	bnez	a4,800004a4 <vsprintf+0x34>
800005d4:	eedff06f          	j	800004c0 <vsprintf+0x50>
800005d8:	06600713          	li	a4,102
800005dc:	30e69a63          	bne	a3,a4,800008f0 <vsprintf+0x480>
800005e0:	00412683          	lw	a3,4(sp)
800005e4:	02e00713          	li	a4,46
800005e8:	00178793          	addi	a5,a5,1
800005ec:	00e68023          	sb	a4,0(a3)
800005f0:	000680a3          	sb	zero,1(a3)
800005f4:	00168693          	addi	a3,a3,1
800005f8:	0007c703          	lbu	a4,0(a5)
800005fc:	00d12223          	sw	a3,4(sp)
80000600:	ebdff06f          	j	800004bc <vsprintf+0x4c>
80000604:	0004a583          	lw	a1,0(s1)
80000608:	01c10293          	addi	t0,sp,28
8000060c:	01000693          	li	a3,16
80000610:	00000713          	li	a4,0
80000614:	00000613          	li	a2,0
80000618:	00028513          	mv	a0,t0
8000061c:	00f12a23          	sw	a5,20(sp)
80000620:	00612823          	sw	t1,16(sp)
80000624:	00712c23          	sw	t2,24(sp)
80000628:	00512623          	sw	t0,12(sp)
8000062c:	d31ff0ef          	jal	ra,8000035c <number_to_str>
80000630:	00c12283          	lw	t0,12(sp)
80000634:	00448493          	addi	s1,s1,4
80000638:	00028513          	mv	a0,t0
8000063c:	b25ff0ef          	jal	ra,80000160 <strlen>
80000640:	40a40433          	sub	s0,s0,a0
80000644:	00c12283          	lw	t0,12(sp)
80000648:	01012303          	lw	t1,16(sp)
8000064c:	01412783          	lw	a5,20(sp)
80000650:	2c805463          	blez	s0,80000918 <vsprintf+0x4a8>
80000654:	01812383          	lw	t2,24(sp)
80000658:	00830433          	add	s0,t1,s0
8000065c:	00130313          	addi	t1,t1,1
80000660:	fe730fa3          	sb	t2,-1(t1)
80000664:	fe831ce3          	bne	t1,s0,8000065c <vsprintf+0x1ec>
80000668:	00f12823          	sw	a5,16(sp)
8000066c:	00512623          	sw	t0,12(sp)
80000670:	00028593          	mv	a1,t0
80000674:	00040023          	sb	zero,0(s0)
80000678:	00040513          	mv	a0,s0
8000067c:	b9dff0ef          	jal	ra,80000218 <strcat>
80000680:	00c12283          	lw	t0,12(sp)
80000684:	00028513          	mv	a0,t0
80000688:	ad9ff0ef          	jal	ra,80000160 <strlen>
8000068c:	01012783          	lw	a5,16(sp)
80000690:	00a40333          	add	t1,s0,a0
80000694:	0017c703          	lbu	a4,1(a5)
80000698:	00178793          	addi	a5,a5,1
8000069c:	e21ff06f          	j	800004bc <vsprintf+0x4c>
800006a0:	0004a583          	lw	a1,0(s1)
800006a4:	01c10293          	addi	t0,sp,28
800006a8:	00a00693          	li	a3,10
800006ac:	00000713          	li	a4,0
800006b0:	00000613          	li	a2,0
800006b4:	00028513          	mv	a0,t0
800006b8:	00f12a23          	sw	a5,20(sp)
800006bc:	00612823          	sw	t1,16(sp)
800006c0:	00712c23          	sw	t2,24(sp)
800006c4:	00512623          	sw	t0,12(sp)
800006c8:	c95ff0ef          	jal	ra,8000035c <number_to_str>
800006cc:	00c12283          	lw	t0,12(sp)
800006d0:	00448493          	addi	s1,s1,4
800006d4:	00028513          	mv	a0,t0
800006d8:	a89ff0ef          	jal	ra,80000160 <strlen>
800006dc:	40a40433          	sub	s0,s0,a0
800006e0:	00c12283          	lw	t0,12(sp)
800006e4:	01012303          	lw	t1,16(sp)
800006e8:	01412783          	lw	a5,20(sp)
800006ec:	22805663          	blez	s0,80000918 <vsprintf+0x4a8>
800006f0:	01812383          	lw	t2,24(sp)
800006f4:	00830433          	add	s0,t1,s0
800006f8:	00130313          	addi	t1,t1,1
800006fc:	fe730fa3          	sb	t2,-1(t1)
80000700:	fe831ce3          	bne	t1,s0,800006f8 <vsprintf+0x288>
80000704:	f65ff06f          	j	80000668 <vsprintf+0x1f8>
80000708:	0017c703          	lbu	a4,1(a5)
8000070c:	06400693          	li	a3,100
80000710:	dad714e3          	bne	a4,a3,800004b8 <vsprintf+0x48>
80000714:	0004a583          	lw	a1,0(s1)
80000718:	01c10293          	addi	t0,sp,28
8000071c:	00a00693          	li	a3,10
80000720:	00000713          	li	a4,0
80000724:	00000613          	li	a2,0
80000728:	00028513          	mv	a0,t0
8000072c:	00f12c23          	sw	a5,24(sp)
80000730:	00612a23          	sw	t1,20(sp)
80000734:	00712823          	sw	t2,16(sp)
80000738:	00512623          	sw	t0,12(sp)
8000073c:	c21ff0ef          	jal	ra,8000035c <number_to_str>
80000740:	00c12283          	lw	t0,12(sp)
80000744:	00448493          	addi	s1,s1,4
80000748:	00028513          	mv	a0,t0
8000074c:	a15ff0ef          	jal	ra,80000160 <strlen>
80000750:	40a40433          	sub	s0,s0,a0
80000754:	00c12283          	lw	t0,12(sp)
80000758:	01412303          	lw	t1,20(sp)
8000075c:	01812783          	lw	a5,24(sp)
80000760:	1c805063          	blez	s0,80000920 <vsprintf+0x4b0>
80000764:	01012383          	lw	t2,16(sp)
80000768:	00830433          	add	s0,t1,s0
8000076c:	00130313          	addi	t1,t1,1
80000770:	fe730fa3          	sb	t2,-1(t1)
80000774:	fe831ce3          	bne	t1,s0,8000076c <vsprintf+0x2fc>
80000778:	00028593          	mv	a1,t0
8000077c:	00040023          	sb	zero,0(s0)
80000780:	00040513          	mv	a0,s0
80000784:	00f12823          	sw	a5,16(sp)
80000788:	00512623          	sw	t0,12(sp)
8000078c:	a8dff0ef          	jal	ra,80000218 <strcat>
80000790:	00c12283          	lw	t0,12(sp)
80000794:	00028513          	mv	a0,t0
80000798:	9c9ff0ef          	jal	ra,80000160 <strlen>
8000079c:	01012783          	lw	a5,16(sp)
800007a0:	00a40333          	add	t1,s0,a0
800007a4:	00178693          	addi	a3,a5,1
800007a8:	0027c703          	lbu	a4,2(a5)
800007ac:	00068793          	mv	a5,a3
800007b0:	00178793          	addi	a5,a5,1
800007b4:	d09ff06f          	j	800004bc <vsprintf+0x4c>
800007b8:	0004a583          	lw	a1,0(s1)
800007bc:	00448493          	addi	s1,s1,4
800007c0:	0a05ce63          	bltz	a1,8000087c <vsprintf+0x40c>
800007c4:	00012683          	lw	a3,0(sp)
800007c8:	02b00713          	li	a4,43
800007cc:	12e68863          	beq	a3,a4,800008fc <vsprintf+0x48c>
800007d0:	01c10293          	addi	t0,sp,28
800007d4:	02000713          	li	a4,32
800007d8:	00512223          	sw	t0,4(sp)
800007dc:	12e68063          	beq	a3,a4,800008fc <vsprintf+0x48c>
800007e0:	00012023          	sw	zero,0(sp)
800007e4:	0b00006f          	j	80000894 <vsprintf+0x424>
800007e8:	0004a703          	lw	a4,0(s1)
800007ec:	00130313          	addi	t1,t1,1
800007f0:	00448493          	addi	s1,s1,4
800007f4:	fee30fa3          	sb	a4,-1(t1)
800007f8:	0017c703          	lbu	a4,1(a5)
800007fc:	00178793          	addi	a5,a5,1
80000800:	cbdff06f          	j	800004bc <vsprintf+0x4c>
80000804:	00f12823          	sw	a5,16(sp)
80000808:	0004a783          	lw	a5,0(s1)
8000080c:	00030513          	mv	a0,t1
80000810:	00030023          	sb	zero,0(t1)
80000814:	00078593          	mv	a1,a5
80000818:	00078413          	mv	s0,a5
8000081c:	00f12223          	sw	a5,4(sp)
80000820:	00612623          	sw	t1,12(sp)
80000824:	9f5ff0ef          	jal	ra,80000218 <strcat>
80000828:	00040513          	mv	a0,s0
8000082c:	935ff0ef          	jal	ra,80000160 <strlen>
80000830:	01012783          	lw	a5,16(sp)
80000834:	00c12303          	lw	t1,12(sp)
80000838:	00448493          	addi	s1,s1,4
8000083c:	0017c703          	lbu	a4,1(a5)
80000840:	00a30333          	add	t1,t1,a0
80000844:	00178793          	addi	a5,a5,1
80000848:	c75ff06f          	j	800004bc <vsprintf+0x4c>
8000084c:	0017c683          	lbu	a3,1(a5)
80000850:	00900613          	li	a2,9
80000854:	00178793          	addi	a5,a5,1
80000858:	fd068713          	addi	a4,a3,-48
8000085c:	0ff77713          	zext.b	a4,a4
80000860:	d0e66ee3          	bltu	a2,a4,8000057c <vsprintf+0x10c>
80000864:	0017c683          	lbu	a3,1(a5)
80000868:	00178793          	addi	a5,a5,1
8000086c:	fd068713          	addi	a4,a3,-48
80000870:	0ff77713          	zext.b	a4,a4
80000874:	fee678e3          	bgeu	a2,a4,80000864 <vsprintf+0x3f4>
80000878:	d05ff06f          	j	8000057c <vsprintf+0x10c>
8000087c:	02d00713          	li	a4,45
80000880:	00e10e23          	sb	a4,28(sp)
80000884:	01d10713          	addi	a4,sp,29
80000888:	40b005b3          	neg	a1,a1
8000088c:	00e12223          	sw	a4,4(sp)
80000890:	01c10293          	addi	t0,sp,28
80000894:	00412503          	lw	a0,4(sp)
80000898:	00a00693          	li	a3,10
8000089c:	00000713          	li	a4,0
800008a0:	00000613          	li	a2,0
800008a4:	00f12a23          	sw	a5,20(sp)
800008a8:	00612823          	sw	t1,16(sp)
800008ac:	00512623          	sw	t0,12(sp)
800008b0:	00712c23          	sw	t2,24(sp)
800008b4:	aa9ff0ef          	jal	ra,8000035c <number_to_str>
800008b8:	00c12283          	lw	t0,12(sp)
800008bc:	00028513          	mv	a0,t0
800008c0:	8a1ff0ef          	jal	ra,80000160 <strlen>
800008c4:	40a40433          	sub	s0,s0,a0
800008c8:	00c12283          	lw	t0,12(sp)
800008cc:	01012303          	lw	t1,16(sp)
800008d0:	01412783          	lw	a5,20(sp)
800008d4:	04805263          	blez	s0,80000918 <vsprintf+0x4a8>
800008d8:	01812383          	lw	t2,24(sp)
800008dc:	00830433          	add	s0,t1,s0
800008e0:	00130313          	addi	t1,t1,1
800008e4:	fe730fa3          	sb	t2,-1(t1)
800008e8:	fe831ce3          	bne	t1,s0,800008e0 <vsprintf+0x470>
800008ec:	d7dff06f          	j	80000668 <vsprintf+0x1f8>
800008f0:	0017c703          	lbu	a4,1(a5)
800008f4:	00178793          	addi	a5,a5,1
800008f8:	bc5ff06f          	j	800004bc <vsprintf+0x4c>
800008fc:	00012703          	lw	a4,0(sp)
80000900:	01c10293          	addi	t0,sp,28
80000904:	00012023          	sw	zero,0(sp)
80000908:	00e10e23          	sb	a4,28(sp)
8000090c:	01d10713          	addi	a4,sp,29
80000910:	00e12223          	sw	a4,4(sp)
80000914:	f81ff06f          	j	80000894 <vsprintf+0x424>
80000918:	00030413          	mv	s0,t1
8000091c:	d4dff06f          	j	80000668 <vsprintf+0x1f8>
80000920:	00030413          	mv	s0,t1
80000924:	e55ff06f          	j	80000778 <vsprintf+0x308>
80000928:	08100613          	li	a2,129
8000092c:	00000597          	auipc	a1,0x0
80000930:	79458593          	addi	a1,a1,1940 # 800010c0 <_etext+0xe0>
80000934:	00000517          	auipc	a0,0x0
80000938:	77050513          	addi	a0,a0,1904 # 800010a4 <_etext+0xc4>
8000093c:	00c000ef          	jal	ra,80000948 <printf>
80000940:	00100513          	li	a0,1
80000944:	ff0ff0ef          	jal	ra,80000134 <halt>

80000948 <printf>:
80000948:	bd810113          	addi	sp,sp,-1064
8000094c:	40112823          	sw	ra,1040(sp)
80000950:	40812623          	sw	s0,1036(sp)
80000954:	40912423          	sw	s1,1032(sp)
80000958:	40b12a23          	sw	a1,1044(sp)
8000095c:	40c12c23          	sw	a2,1048(sp)
80000960:	40d12e23          	sw	a3,1052(sp)
80000964:	42e12023          	sw	a4,1056(sp)
80000968:	42f12223          	sw	a5,1060(sp)
8000096c:	04050863          	beqz	a0,800009bc <printf+0x74>
80000970:	41410613          	addi	a2,sp,1044
80000974:	00050593          	mv	a1,a0
80000978:	00810513          	addi	a0,sp,8
8000097c:	00c12223          	sw	a2,4(sp)
80000980:	af1ff0ef          	jal	ra,80000470 <vsprintf>
80000984:	00a12023          	sw	a0,0(sp)
80000988:	00a05e63          	blez	a0,800009a4 <printf+0x5c>
8000098c:	00810493          	addi	s1,sp,8
80000990:	00a48433          	add	s0,s1,a0
80000994:	0004c503          	lbu	a0,0(s1)
80000998:	00148493          	addi	s1,s1,1
8000099c:	f8cff0ef          	jal	ra,80000128 <putch>
800009a0:	fe849ae3          	bne	s1,s0,80000994 <printf+0x4c>
800009a4:	41012083          	lw	ra,1040(sp)
800009a8:	40c12403          	lw	s0,1036(sp)
800009ac:	00012503          	lw	a0,0(sp)
800009b0:	40812483          	lw	s1,1032(sp)
800009b4:	42810113          	addi	sp,sp,1064
800009b8:	00008067          	ret
800009bc:	07200613          	li	a2,114
800009c0:	00000597          	auipc	a1,0x0
800009c4:	70058593          	addi	a1,a1,1792 # 800010c0 <_etext+0xe0>
800009c8:	00000517          	auipc	a0,0x0
800009cc:	6dc50513          	addi	a0,a0,1756 # 800010a4 <_etext+0xc4>
800009d0:	f79ff0ef          	jal	ra,80000948 <printf>
800009d4:	00100513          	li	a0,1
800009d8:	f5cff0ef          	jal	ra,80000134 <halt>

800009dc <__udivmoddi4>:
800009dc:	fe010113          	addi	sp,sp,-32
800009e0:	00912a23          	sw	s1,20(sp)
800009e4:	00112e23          	sw	ra,28(sp)
800009e8:	00812c23          	sw	s0,24(sp)
800009ec:	00e12223          	sw	a4,4(sp)
800009f0:	00050313          	mv	t1,a0
800009f4:	00060493          	mv	s1,a2
800009f8:	04059663          	bnez	a1,80000a44 <__udivmoddi4+0x68>
800009fc:	20069463          	bnez	a3,80000c04 <__udivmoddi4+0x228>
80000a00:	00070413          	mv	s0,a4
80000a04:	00070e63          	beqz	a4,80000a20 <__udivmoddi4+0x44>
80000a08:	00048593          	mv	a1,s1
80000a0c:	00a12023          	sw	a0,0(sp)
80000a10:	56c000ef          	jal	ra,80000f7c <__umodsi3>
80000a14:	00012303          	lw	t1,0(sp)
80000a18:	00a42023          	sw	a0,0(s0)
80000a1c:	00042223          	sw	zero,4(s0)
80000a20:	00048593          	mv	a1,s1
80000a24:	00030513          	mv	a0,t1
80000a28:	50c000ef          	jal	ra,80000f34 <__hidden___udivsi3>
80000a2c:	00000593          	li	a1,0
80000a30:	01c12083          	lw	ra,28(sp)
80000a34:	01812403          	lw	s0,24(sp)
80000a38:	01412483          	lw	s1,20(sp)
80000a3c:	02010113          	addi	sp,sp,32
80000a40:	00008067          	ret
80000a44:	00058793          	mv	a5,a1
80000a48:	08061263          	bnez	a2,80000acc <__udivmoddi4+0xf0>
80000a4c:	24068263          	beqz	a3,80000c90 <__udivmoddi4+0x2b4>
80000a50:	2c050a63          	beqz	a0,80000d24 <__udivmoddi4+0x348>
80000a54:	fff68613          	addi	a2,a3,-1
80000a58:	00d675b3          	and	a1,a2,a3
80000a5c:	32058463          	beqz	a1,80000d84 <__udivmoddi4+0x3a8>
80000a60:	00a12623          	sw	a0,12(sp)
80000a64:	00068513          	mv	a0,a3
80000a68:	00f12823          	sw	a5,16(sp)
80000a6c:	00f12023          	sw	a5,0(sp)
80000a70:	00d12423          	sw	a3,8(sp)
80000a74:	3ac000ef          	jal	ra,80000e20 <__clzsi2>
80000a78:	00012703          	lw	a4,0(sp)
80000a7c:	00050413          	mv	s0,a0
80000a80:	00070513          	mv	a0,a4
80000a84:	39c000ef          	jal	ra,80000e20 <__clzsi2>
80000a88:	40a40533          	sub	a0,s0,a0
80000a8c:	01e00613          	li	a2,30
80000a90:	00012703          	lw	a4,0(sp)
80000a94:	00812683          	lw	a3,8(sp)
80000a98:	00c12303          	lw	t1,12(sp)
80000a9c:	01012783          	lw	a5,16(sp)
80000aa0:	1ea66a63          	bltu	a2,a0,80000c94 <__udivmoddi4+0x2b8>
80000aa4:	00150393          	addi	t2,a0,1
80000aa8:	02000613          	li	a2,32
80000aac:	40760633          	sub	a2,a2,t2
80000ab0:	00c712b3          	sll	t0,a4,a2
80000ab4:	007355b3          	srl	a1,t1,t2
80000ab8:	007757b3          	srl	a5,a4,t2
80000abc:	00c31533          	sll	a0,t1,a2
80000ac0:	00b2e733          	or	a4,t0,a1
80000ac4:	00000413          	li	s0,0
80000ac8:	0780006f          	j	80000b40 <__udivmoddi4+0x164>
80000acc:	16068263          	beqz	a3,80000c30 <__udivmoddi4+0x254>
80000ad0:	00a12423          	sw	a0,8(sp)
80000ad4:	00068513          	mv	a0,a3
80000ad8:	00b12623          	sw	a1,12(sp)
80000adc:	00b12023          	sw	a1,0(sp)
80000ae0:	00d12823          	sw	a3,16(sp)
80000ae4:	33c000ef          	jal	ra,80000e20 <__clzsi2>
80000ae8:	00012703          	lw	a4,0(sp)
80000aec:	00050413          	mv	s0,a0
80000af0:	00070513          	mv	a0,a4
80000af4:	32c000ef          	jal	ra,80000e20 <__clzsi2>
80000af8:	40a40533          	sub	a0,s0,a0
80000afc:	01f00613          	li	a2,31
80000b00:	00812303          	lw	t1,8(sp)
80000b04:	00c12783          	lw	a5,12(sp)
80000b08:	18a66663          	bltu	a2,a0,80000c94 <__udivmoddi4+0x2b8>
80000b0c:	00150393          	addi	t2,a0,1
80000b10:	02000793          	li	a5,32
80000b14:	00012703          	lw	a4,0(sp)
80000b18:	01012683          	lw	a3,16(sp)
80000b1c:	00030513          	mv	a0,t1
80000b20:	28f38a63          	beq	t2,a5,80000db4 <__udivmoddi4+0x3d8>
80000b24:	40778633          	sub	a2,a5,t2
80000b28:	007355b3          	srl	a1,t1,t2
80000b2c:	00c71333          	sll	t1,a4,a2
80000b30:	007757b3          	srl	a5,a4,t2
80000b34:	00c51533          	sll	a0,a0,a2
80000b38:	00b36733          	or	a4,t1,a1
80000b3c:	00000413          	li	s0,0
80000b40:	00068613          	mv	a2,a3
80000b44:	00012023          	sw	zero,0(sp)
80000b48:	00078693          	mv	a3,a5
80000b4c:	00060793          	mv	a5,a2
80000b50:	01f55593          	srli	a1,a0,0x1f
80000b54:	00171613          	slli	a2,a4,0x1
80000b58:	00b66633          	or	a2,a2,a1
80000b5c:	01f75713          	srli	a4,a4,0x1f
80000b60:	00169693          	slli	a3,a3,0x1
80000b64:	00e6e6b3          	or	a3,a3,a4
80000b68:	40c48733          	sub	a4,s1,a2
80000b6c:	00e4b333          	sltu	t1,s1,a4
80000b70:	40d785b3          	sub	a1,a5,a3
80000b74:	406585b3          	sub	a1,a1,t1
80000b78:	00173713          	seqz	a4,a4
80000b7c:	40e585b3          	sub	a1,a1,a4
80000b80:	41f5d313          	srai	t1,a1,0x1f
80000b84:	00937733          	and	a4,t1,s1
80000b88:	00f37333          	and	t1,t1,a5
80000b8c:	406686b3          	sub	a3,a3,t1
80000b90:	00012303          	lw	t1,0(sp)
80000b94:	40e60733          	sub	a4,a2,a4
80000b98:	01f5d593          	srli	a1,a1,0x1f
80000b9c:	01f45293          	srli	t0,s0,0x1f
80000ba0:	00151513          	slli	a0,a0,0x1
80000ba4:	00141413          	slli	s0,s0,0x1
80000ba8:	00e63633          	sltu	a2,a2,a4
80000bac:	fff38393          	addi	t2,t2,-1
80000bb0:	00b12023          	sw	a1,0(sp)
80000bb4:	00646433          	or	s0,s0,t1
80000bb8:	00556533          	or	a0,a0,t0
80000bbc:	40c686b3          	sub	a3,a3,a2
80000bc0:	f80398e3          	bnez	t2,80000b50 <__udivmoddi4+0x174>
80000bc4:	01f45593          	srli	a1,s0,0x1f
80000bc8:	00068793          	mv	a5,a3
80000bcc:	00151693          	slli	a3,a0,0x1
80000bd0:	00012603          	lw	a2,0(sp)
80000bd4:	00d5e5b3          	or	a1,a1,a3
80000bd8:	00412683          	lw	a3,4(sp)
80000bdc:	00141413          	slli	s0,s0,0x1
80000be0:	00c46533          	or	a0,s0,a2
80000be4:	e40686e3          	beqz	a3,80000a30 <__udivmoddi4+0x54>
80000be8:	01c12083          	lw	ra,28(sp)
80000bec:	01812403          	lw	s0,24(sp)
80000bf0:	00e6a023          	sw	a4,0(a3)
80000bf4:	00f6a223          	sw	a5,4(a3)
80000bf8:	01412483          	lw	s1,20(sp)
80000bfc:	02010113          	addi	sp,sp,32
80000c00:	00008067          	ret
80000c04:	00412783          	lw	a5,4(sp)
80000c08:	08078a63          	beqz	a5,80000c9c <__udivmoddi4+0x2c0>
80000c0c:	01c12083          	lw	ra,28(sp)
80000c10:	01812403          	lw	s0,24(sp)
80000c14:	00a7a023          	sw	a0,0(a5)
80000c18:	0007a223          	sw	zero,4(a5)
80000c1c:	01412483          	lw	s1,20(sp)
80000c20:	00000513          	li	a0,0
80000c24:	00000593          	li	a1,0
80000c28:	02010113          	addi	sp,sp,32
80000c2c:	00008067          	ret
80000c30:	fff60613          	addi	a2,a2,-1
80000c34:	009675b3          	and	a1,a2,s1
80000c38:	06059863          	bnez	a1,80000ca8 <__udivmoddi4+0x2cc>
80000c3c:	00412703          	lw	a4,4(sp)
80000c40:	00070863          	beqz	a4,80000c50 <__udivmoddi4+0x274>
80000c44:	00a67633          	and	a2,a2,a0
80000c48:	00c72023          	sw	a2,0(a4)
80000c4c:	00072223          	sw	zero,4(a4)
80000c50:	00100713          	li	a4,1
80000c54:	12e48263          	beq	s1,a4,80000d78 <__udivmoddi4+0x39c>
80000c58:	00048513          	mv	a0,s1
80000c5c:	00f12223          	sw	a5,4(sp)
80000c60:	00612023          	sw	t1,0(sp)
80000c64:	254000ef          	jal	ra,80000eb8 <__ctzsi2>
80000c68:	00412783          	lw	a5,4(sp)
80000c6c:	00012303          	lw	t1,0(sp)
80000c70:	02000413          	li	s0,32
80000c74:	40a40433          	sub	s0,s0,a0
80000c78:	00050713          	mv	a4,a0
80000c7c:	00879433          	sll	s0,a5,s0
80000c80:	00a35533          	srl	a0,t1,a0
80000c84:	00a46533          	or	a0,s0,a0
80000c88:	00e7d5b3          	srl	a1,a5,a4
80000c8c:	da5ff06f          	j	80000a30 <__udivmoddi4+0x54>
80000c90:	00100073          	ebreak
80000c94:	00412703          	lw	a4,4(sp)
80000c98:	0c071663          	bnez	a4,80000d64 <__udivmoddi4+0x388>
80000c9c:	00000513          	li	a0,0
80000ca0:	00000593          	li	a1,0
80000ca4:	d8dff06f          	j	80000a30 <__udivmoddi4+0x54>
80000ca8:	00a12623          	sw	a0,12(sp)
80000cac:	00048513          	mv	a0,s1
80000cb0:	00068413          	mv	s0,a3
80000cb4:	00d12823          	sw	a3,16(sp)
80000cb8:	00f12023          	sw	a5,0(sp)
80000cbc:	164000ef          	jal	ra,80000e20 <__clzsi2>
80000cc0:	00012703          	lw	a4,0(sp)
80000cc4:	00050613          	mv	a2,a0
80000cc8:	00c12023          	sw	a2,0(sp)
80000ccc:	00070513          	mv	a0,a4
80000cd0:	00e12423          	sw	a4,8(sp)
80000cd4:	14c000ef          	jal	ra,80000e20 <__clzsi2>
80000cd8:	00012603          	lw	a2,0(sp)
80000cdc:	00c12303          	lw	t1,12(sp)
80000ce0:	02000593          	li	a1,32
80000ce4:	40a60633          	sub	a2,a2,a0
80000ce8:	02160393          	addi	t2,a2,33
80000cec:	00812703          	lw	a4,8(sp)
80000cf0:	01012683          	lw	a3,16(sp)
80000cf4:	00030513          	mv	a0,t1
80000cf8:	00000793          	li	a5,0
80000cfc:	e4b382e3          	beq	t2,a1,80000b40 <__udivmoddi4+0x164>
80000d00:	01f00313          	li	t1,31
80000d04:	0a736e63          	bltu	t1,t2,80000dc0 <__udivmoddi4+0x3e4>
80000d08:	407585b3          	sub	a1,a1,t2
80000d0c:	00755633          	srl	a2,a0,t2
80000d10:	00b71333          	sll	t1,a4,a1
80000d14:	007757b3          	srl	a5,a4,t2
80000d18:	00b51533          	sll	a0,a0,a1
80000d1c:	00c36733          	or	a4,t1,a2
80000d20:	e21ff06f          	j	80000b40 <__udivmoddi4+0x164>
80000d24:	00412403          	lw	s0,4(sp)
80000d28:	02040463          	beqz	s0,80000d50 <__udivmoddi4+0x374>
80000d2c:	00068593          	mv	a1,a3
80000d30:	00078513          	mv	a0,a5
80000d34:	00d12223          	sw	a3,4(sp)
80000d38:	00f12023          	sw	a5,0(sp)
80000d3c:	240000ef          	jal	ra,80000f7c <__umodsi3>
80000d40:	00412683          	lw	a3,4(sp)
80000d44:	00012783          	lw	a5,0(sp)
80000d48:	00042023          	sw	zero,0(s0)
80000d4c:	00a42223          	sw	a0,4(s0)
80000d50:	00068593          	mv	a1,a3
80000d54:	00078513          	mv	a0,a5
80000d58:	1dc000ef          	jal	ra,80000f34 <__hidden___udivsi3>
80000d5c:	00000593          	li	a1,0
80000d60:	cd1ff06f          	j	80000a30 <__udivmoddi4+0x54>
80000d64:	00672023          	sw	t1,0(a4)
80000d68:	00f72223          	sw	a5,4(a4)
80000d6c:	00000513          	li	a0,0
80000d70:	00000593          	li	a1,0
80000d74:	cbdff06f          	j	80000a30 <__udivmoddi4+0x54>
80000d78:	00030513          	mv	a0,t1
80000d7c:	00078593          	mv	a1,a5
80000d80:	cb1ff06f          	j	80000a30 <__udivmoddi4+0x54>
80000d84:	00412703          	lw	a4,4(sp)
80000d88:	00070863          	beqz	a4,80000d98 <__udivmoddi4+0x3bc>
80000d8c:	00f67633          	and	a2,a2,a5
80000d90:	00a72023          	sw	a0,0(a4)
80000d94:	00c72223          	sw	a2,4(a4)
80000d98:	00068513          	mv	a0,a3
80000d9c:	00f12023          	sw	a5,0(sp)
80000da0:	118000ef          	jal	ra,80000eb8 <__ctzsi2>
80000da4:	00012783          	lw	a5,0(sp)
80000da8:	00000593          	li	a1,0
80000dac:	00a7d533          	srl	a0,a5,a0
80000db0:	c81ff06f          	j	80000a30 <__udivmoddi4+0x54>
80000db4:	00000793          	li	a5,0
80000db8:	00000413          	li	s0,0
80000dbc:	d85ff06f          	j	80000b40 <__udivmoddi4+0x164>
80000dc0:	04000593          	li	a1,64
80000dc4:	407585b3          	sub	a1,a1,t2
80000dc8:	00160613          	addi	a2,a2,1
80000dcc:	00b51433          	sll	s0,a0,a1
80000dd0:	00b715b3          	sll	a1,a4,a1
80000dd4:	00c55533          	srl	a0,a0,a2
80000dd8:	00a5e533          	or	a0,a1,a0
80000ddc:	00c75733          	srl	a4,a4,a2
80000de0:	d61ff06f          	j	80000b40 <__udivmoddi4+0x164>

80000de4 <__udivdi3>:
80000de4:	00000713          	li	a4,0
80000de8:	bf5ff06f          	j	800009dc <__udivmoddi4>

80000dec <__umoddi3>:
80000dec:	fe810113          	addi	sp,sp,-24
80000df0:	00812823          	sw	s0,16(sp)
80000df4:	00710413          	addi	s0,sp,7
80000df8:	ff847413          	andi	s0,s0,-8
80000dfc:	00040713          	mv	a4,s0
80000e00:	00112a23          	sw	ra,20(sp)
80000e04:	bd9ff0ef          	jal	ra,800009dc <__udivmoddi4>
80000e08:	00042503          	lw	a0,0(s0)
80000e0c:	00442583          	lw	a1,4(s0)
80000e10:	01412083          	lw	ra,20(sp)
80000e14:	01012403          	lw	s0,16(sp)
80000e18:	01810113          	addi	sp,sp,24
80000e1c:	00008067          	ret

80000e20 <__clzsi2>:
80000e20:	ffff0637          	lui	a2,0xffff0
80000e24:	00c57633          	and	a2,a0,a2
80000e28:	00163613          	seqz	a2,a2
80000e2c:	00461613          	slli	a2,a2,0x4
80000e30:	01000793          	li	a5,16
80000e34:	40c787b3          	sub	a5,a5,a2
80000e38:	00010737          	lui	a4,0x10
80000e3c:	00f557b3          	srl	a5,a0,a5
80000e40:	f0070713          	addi	a4,a4,-256 # ff00 <_entry_offset+0xff00>
80000e44:	00e7f733          	and	a4,a5,a4
80000e48:	00173713          	seqz	a4,a4
80000e4c:	00371713          	slli	a4,a4,0x3
80000e50:	00800693          	li	a3,8
80000e54:	40e686b3          	sub	a3,a3,a4
80000e58:	00d7d7b3          	srl	a5,a5,a3
80000e5c:	0f07f593          	andi	a1,a5,240
80000e60:	0015b593          	seqz	a1,a1
80000e64:	00259593          	slli	a1,a1,0x2
80000e68:	00400693          	li	a3,4
80000e6c:	40b686b3          	sub	a3,a3,a1
80000e70:	00d7d7b3          	srl	a5,a5,a3
80000e74:	00c7f513          	andi	a0,a5,12
80000e78:	00153513          	seqz	a0,a0
80000e7c:	00151513          	slli	a0,a0,0x1
80000e80:	00200313          	li	t1,2
80000e84:	40a306b3          	sub	a3,t1,a0
80000e88:	00d7d7b3          	srl	a5,a5,a3
80000e8c:	0017d693          	srli	a3,a5,0x1
80000e90:	0016c693          	xori	a3,a3,1
80000e94:	00c70733          	add	a4,a4,a2
80000e98:	0016f693          	andi	a3,a3,1
80000e9c:	00e585b3          	add	a1,a1,a4
80000ea0:	40f30333          	sub	t1,t1,a5
80000ea4:	40d006b3          	neg	a3,a3
80000ea8:	0066f6b3          	and	a3,a3,t1
80000eac:	00b50533          	add	a0,a0,a1
80000eb0:	00a68533          	add	a0,a3,a0
80000eb4:	00008067          	ret

80000eb8 <__ctzsi2>:
80000eb8:	01051593          	slli	a1,a0,0x10
80000ebc:	0105d593          	srli	a1,a1,0x10
80000ec0:	0015b593          	seqz	a1,a1
80000ec4:	00459593          	slli	a1,a1,0x4
80000ec8:	00b557b3          	srl	a5,a0,a1
80000ecc:	0ff7f613          	zext.b	a2,a5
80000ed0:	00163613          	seqz	a2,a2
80000ed4:	00361613          	slli	a2,a2,0x3
80000ed8:	00c7d7b3          	srl	a5,a5,a2
80000edc:	00f7f693          	andi	a3,a5,15
80000ee0:	0016b693          	seqz	a3,a3
80000ee4:	00269693          	slli	a3,a3,0x2
80000ee8:	00d7d7b3          	srl	a5,a5,a3
80000eec:	0037f713          	andi	a4,a5,3
80000ef0:	00173713          	seqz	a4,a4
80000ef4:	00171713          	slli	a4,a4,0x1
80000ef8:	00e7d7b3          	srl	a5,a5,a4
80000efc:	0017d513          	srli	a0,a5,0x1
80000f00:	00b60633          	add	a2,a2,a1
80000f04:	0017f793          	andi	a5,a5,1
80000f08:	00157593          	andi	a1,a0,1
80000f0c:	00200513          	li	a0,2
80000f10:	40b50533          	sub	a0,a0,a1
80000f14:	00c686b3          	add	a3,a3,a2
80000f18:	fff78793          	addi	a5,a5,-1
80000f1c:	00f577b3          	and	a5,a0,a5
80000f20:	00d70533          	add	a0,a4,a3
80000f24:	00a78533          	add	a0,a5,a0
80000f28:	00008067          	ret

80000f2c <__divsi3>:
80000f2c:	06054063          	bltz	a0,80000f8c <__umodsi3+0x10>
80000f30:	0605c663          	bltz	a1,80000f9c <__umodsi3+0x20>

80000f34 <__hidden___udivsi3>:
80000f34:	00058613          	mv	a2,a1
80000f38:	00050593          	mv	a1,a0
80000f3c:	fff00513          	li	a0,-1
80000f40:	02060c63          	beqz	a2,80000f78 <__hidden___udivsi3+0x44>
80000f44:	00100693          	li	a3,1
80000f48:	00b67a63          	bgeu	a2,a1,80000f5c <__hidden___udivsi3+0x28>
80000f4c:	00c05863          	blez	a2,80000f5c <__hidden___udivsi3+0x28>
80000f50:	00161613          	slli	a2,a2,0x1
80000f54:	00169693          	slli	a3,a3,0x1
80000f58:	feb66ae3          	bltu	a2,a1,80000f4c <__hidden___udivsi3+0x18>
80000f5c:	00000513          	li	a0,0
80000f60:	00c5e663          	bltu	a1,a2,80000f6c <__hidden___udivsi3+0x38>
80000f64:	40c585b3          	sub	a1,a1,a2
80000f68:	00d56533          	or	a0,a0,a3
80000f6c:	0016d693          	srli	a3,a3,0x1
80000f70:	00165613          	srli	a2,a2,0x1
80000f74:	fe0696e3          	bnez	a3,80000f60 <__hidden___udivsi3+0x2c>
80000f78:	00008067          	ret

80000f7c <__umodsi3>:
80000f7c:	00008293          	mv	t0,ra
80000f80:	fb5ff0ef          	jal	ra,80000f34 <__hidden___udivsi3>
80000f84:	00058513          	mv	a0,a1
80000f88:	00028067          	jr	t0
80000f8c:	40a00533          	neg	a0,a0
80000f90:	00b04863          	bgtz	a1,80000fa0 <__umodsi3+0x24>
80000f94:	40b005b3          	neg	a1,a1
80000f98:	f9dff06f          	j	80000f34 <__hidden___udivsi3>
80000f9c:	40b005b3          	neg	a1,a1
80000fa0:	00008293          	mv	t0,ra
80000fa4:	f91ff0ef          	jal	ra,80000f34 <__hidden___udivsi3>
80000fa8:	40a00533          	neg	a0,a0
80000fac:	00028067          	jr	t0

80000fb0 <__modsi3>:
80000fb0:	00008293          	mv	t0,ra
80000fb4:	0005ca63          	bltz	a1,80000fc8 <__modsi3+0x18>
80000fb8:	00054c63          	bltz	a0,80000fd0 <__modsi3+0x20>
80000fbc:	f79ff0ef          	jal	ra,80000f34 <__hidden___udivsi3>
80000fc0:	00058513          	mv	a0,a1
80000fc4:	00028067          	jr	t0
80000fc8:	40b005b3          	neg	a1,a1
80000fcc:	fe0558e3          	bgez	a0,80000fbc <__modsi3+0xc>
80000fd0:	40a00533          	neg	a0,a0
80000fd4:	f61ff0ef          	jal	ra,80000f34 <__hidden___udivsi3>
80000fd8:	40b00533          	neg	a0,a1
80000fdc:	00028067          	jr	t0
