
/home/jimple/Documents/ysyx/ysyx-workbench/am-kernels/benchmarks/coremark/build/coremark-riscv32-nemu.elf:     file format elf32-littleriscv


Disassembly of section .text:

80000000 <_start>:
80000000:	00000413          	li	s0,0
80000004:	0000c117          	auipc	sp,0xc
80000008:	ffc10113          	addi	sp,sp,-4 # 8000c000 <_end>
8000000c:	388020ef          	jal	ra,80002394 <_trm_init>

80000010 <core_init_state>:
80000010:	fff50813          	addi	a6,a0,-1
80000014:	00100793          	li	a5,1
80000018:	1307f863          	bgeu	a5,a6,80000148 <core_init_state+0x138>
8000001c:	00158593          	addi	a1,a1,1
80000020:	01059593          	slli	a1,a1,0x10
80000024:	0105d593          	srli	a1,a1,0x10
80000028:	0035d793          	srli	a5,a1,0x3
8000002c:	00700e13          	li	t3,7
80000030:	0075f693          	andi	a3,a1,7
80000034:	00000713          	li	a4,0
80000038:	00003397          	auipc	t2,0x3
8000003c:	fe438393          	addi	t2,t2,-28 # 8000301c <errpat>
80000040:	00400313          	li	t1,4
80000044:	00003297          	auipc	t0,0x3
80000048:	00828293          	addi	t0,t0,8 # 8000304c <scipat>
8000004c:	00100893          	li	a7,1
80000050:	00003f97          	auipc	t6,0x3
80000054:	fdcf8f93          	addi	t6,t6,-36 # 8000302c <floatpat>
80000058:	00003f17          	auipc	t5,0x3
8000005c:	fe4f0f13          	addi	t5,t5,-28 # 8000303c <intpat>
80000060:	02c00e93          	li	t4,44
80000064:	0037f793          	andi	a5,a5,3
80000068:	07c68e63          	beq	a3,t3,800000e4 <core_init_state+0xd4>
8000006c:	0cd36263          	bltu	t1,a3,80000130 <core_init_state+0x120>
80000070:	ffd68693          	addi	a3,a3,-3
80000074:	01069693          	slli	a3,a3,0x10
80000078:	0106d693          	srli	a3,a3,0x10
8000007c:	00279793          	slli	a5,a5,0x2
80000080:	08d8ee63          	bltu	a7,a3,8000011c <core_init_state+0x10c>
80000084:	00ff87b3          	add	a5,t6,a5
80000088:	0007a783          	lw	a5,0(a5)
8000008c:	00900913          	li	s2,9
80000090:	00800a93          	li	s5,8
80000094:	01270933          	add	s2,a4,s2
80000098:	07097463          	bgeu	s2,a6,80000100 <core_init_state+0xf0>
8000009c:	00e60733          	add	a4,a2,a4
800000a0:	00070693          	mv	a3,a4
800000a4:	01578a33          	add	s4,a5,s5
800000a8:	0007c983          	lbu	s3,0(a5)
800000ac:	00178793          	addi	a5,a5,1
800000b0:	00168693          	addi	a3,a3,1
800000b4:	ff368fa3          	sb	s3,-1(a3)
800000b8:	fefa18e3          	bne	s4,a5,800000a8 <core_init_state+0x98>
800000bc:	00158593          	addi	a1,a1,1
800000c0:	01059593          	slli	a1,a1,0x10
800000c4:	01570733          	add	a4,a4,s5
800000c8:	0105d593          	srli	a1,a1,0x10
800000cc:	01d70023          	sb	t4,0(a4)
800000d0:	0035d793          	srli	a5,a1,0x3
800000d4:	0075f693          	andi	a3,a1,7
800000d8:	00090713          	mv	a4,s2
800000dc:	0037f793          	andi	a5,a5,3
800000e0:	f9c696e3          	bne	a3,t3,8000006c <core_init_state+0x5c>
800000e4:	00279793          	slli	a5,a5,0x2
800000e8:	00900913          	li	s2,9
800000ec:	00f387b3          	add	a5,t2,a5
800000f0:	01270933          	add	s2,a4,s2
800000f4:	0007a783          	lw	a5,0(a5)
800000f8:	00800a93          	li	s5,8
800000fc:	fb0960e3          	bltu	s2,a6,8000009c <core_init_state+0x8c>
80000100:	04a77863          	bgeu	a4,a0,80000150 <core_init_state+0x140>
80000104:	00e60733          	add	a4,a2,a4
80000108:	00a60633          	add	a2,a2,a0
8000010c:	00070023          	sb	zero,0(a4)
80000110:	00170713          	addi	a4,a4,1
80000114:	fee61ce3          	bne	a2,a4,8000010c <core_init_state+0xfc>
80000118:	00008067          	ret
8000011c:	00ff07b3          	add	a5,t5,a5
80000120:	0007a783          	lw	a5,0(a5)
80000124:	00500913          	li	s2,5
80000128:	00400a93          	li	s5,4
8000012c:	f69ff06f          	j	80000094 <core_init_state+0x84>
80000130:	00279793          	slli	a5,a5,0x2
80000134:	00f287b3          	add	a5,t0,a5
80000138:	0007a783          	lw	a5,0(a5)
8000013c:	00900913          	li	s2,9
80000140:	00800a93          	li	s5,8
80000144:	f51ff06f          	j	80000094 <core_init_state+0x84>
80000148:	00000713          	li	a4,0
8000014c:	fb9ff06f          	j	80000104 <core_init_state+0xf4>
80000150:	00008067          	ret

80000154 <core_state_transition>:
80000154:	00052703          	lw	a4,0(a0)
80000158:	00050313          	mv	t1,a0
8000015c:	00000513          	li	a0,0
80000160:	00074803          	lbu	a6,0(a4)
80000164:	00070693          	mv	a3,a4
80000168:	12080063          	beqz	a6,80000288 <core_state_transition+0x134>
8000016c:	00170e13          	addi	t3,a4,1
80000170:	02c00513          	li	a0,44
80000174:	000e0693          	mv	a3,t3
80000178:	2aa80463          	beq	a6,a0,80000420 <core_state_transition+0x2cc>
8000017c:	0005a603          	lw	a2,0(a1)
80000180:	fd080793          	addi	a5,a6,-48
80000184:	0ff7f793          	zext.b	a5,a5
80000188:	00900893          	li	a7,9
8000018c:	00160613          	addi	a2,a2,1
80000190:	10f8e063          	bltu	a7,a5,80000290 <core_state_transition+0x13c>
80000194:	00c5a023          	sw	a2,0(a1)
80000198:	00174783          	lbu	a5,1(a4)
8000019c:	28078a63          	beqz	a5,80000430 <core_state_transition+0x2dc>
800001a0:	28a78c63          	beq	a5,a0,80000438 <core_state_transition+0x2e4>
800001a4:	fd078713          	addi	a4,a5,-48
800001a8:	02e00513          	li	a0,46
800001ac:	0ff77613          	zext.b	a2,a4
800001b0:	00900813          	li	a6,9
800001b4:	02c00893          	li	a7,44
800001b8:	00168713          	addi	a4,a3,1
800001bc:	02a78463          	beq	a5,a0,800001e4 <core_state_transition+0x90>
800001c0:	10c86263          	bltu	a6,a2,800002c4 <core_state_transition+0x170>
800001c4:	00074783          	lbu	a5,0(a4)
800001c8:	26078263          	beqz	a5,8000042c <core_state_transition+0x2d8>
800001cc:	2f178863          	beq	a5,a7,800004bc <core_state_transition+0x368>
800001d0:	00070693          	mv	a3,a4
800001d4:	fd078713          	addi	a4,a5,-48
800001d8:	0ff77613          	zext.b	a2,a4
800001dc:	00168713          	addi	a4,a3,1
800001e0:	fea790e3          	bne	a5,a0,800001c0 <core_state_transition+0x6c>
800001e4:	0105a783          	lw	a5,16(a1)
800001e8:	00178793          	addi	a5,a5,1
800001ec:	00f5a823          	sw	a5,16(a1)
800001f0:	0016c783          	lbu	a5,1(a3)
800001f4:	2a078663          	beqz	a5,800004a0 <core_state_transition+0x34c>
800001f8:	02c00613          	li	a2,44
800001fc:	2ac78863          	beq	a5,a2,800004ac <core_state_transition+0x358>
80000200:	fd078693          	addi	a3,a5,-48
80000204:	04500513          	li	a0,69
80000208:	0df7f793          	andi	a5,a5,223
8000020c:	0ff6f613          	zext.b	a2,a3
80000210:	00900813          	li	a6,9
80000214:	02c00893          	li	a7,44
80000218:	00170693          	addi	a3,a4,1
8000021c:	02a78663          	beq	a5,a0,80000248 <core_state_transition+0xf4>
80000220:	14c86c63          	bltu	a6,a2,80000378 <core_state_transition+0x224>
80000224:	0006c783          	lbu	a5,0(a3)
80000228:	22078863          	beqz	a5,80000458 <core_state_transition+0x304>
8000022c:	27178263          	beq	a5,a7,80000490 <core_state_transition+0x33c>
80000230:	00068713          	mv	a4,a3
80000234:	fd078693          	addi	a3,a5,-48
80000238:	0df7f793          	andi	a5,a5,223
8000023c:	0ff6f613          	zext.b	a2,a3
80000240:	00170693          	addi	a3,a4,1
80000244:	fca79ee3          	bne	a5,a0,80000220 <core_state_transition+0xcc>
80000248:	0145a783          	lw	a5,20(a1)
8000024c:	00300513          	li	a0,3
80000250:	00178793          	addi	a5,a5,1
80000254:	00f5aa23          	sw	a5,20(a1)
80000258:	00174783          	lbu	a5,1(a4)
8000025c:	02078663          	beqz	a5,80000288 <core_state_transition+0x134>
80000260:	02c00513          	li	a0,44
80000264:	1ea78e63          	beq	a5,a0,80000460 <core_state_transition+0x30c>
80000268:	00c5a603          	lw	a2,12(a1)
8000026c:	fd578793          	addi	a5,a5,-43
80000270:	0fd7f793          	andi	a5,a5,253
80000274:	00160613          	addi	a2,a2,1
80000278:	00270693          	addi	a3,a4,2
8000027c:	06078263          	beqz	a5,800002e0 <core_state_transition+0x18c>
80000280:	00c5a623          	sw	a2,12(a1)
80000284:	00100513          	li	a0,1
80000288:	00d32023          	sw	a3,0(t1)
8000028c:	00008067          	ret
80000290:	02d00793          	li	a5,45
80000294:	10f80863          	beq	a6,a5,800003a4 <core_state_transition+0x250>
80000298:	02e00793          	li	a5,46
8000029c:	0ef80863          	beq	a6,a5,8000038c <core_state_transition+0x238>
800002a0:	02b00793          	li	a5,43
800002a4:	10f80063          	beq	a6,a5,800003a4 <core_state_transition+0x250>
800002a8:	0045a783          	lw	a5,4(a1)
800002ac:	00c5a023          	sw	a2,0(a1)
800002b0:	00100513          	li	a0,1
800002b4:	00178793          	addi	a5,a5,1
800002b8:	00f5a223          	sw	a5,4(a1)
800002bc:	00d32023          	sw	a3,0(t1)
800002c0:	00008067          	ret
800002c4:	0105a783          	lw	a5,16(a1)
800002c8:	00070693          	mv	a3,a4
800002cc:	00100513          	li	a0,1
800002d0:	00178793          	addi	a5,a5,1
800002d4:	00f5a823          	sw	a5,16(a1)
800002d8:	00d32023          	sw	a3,0(t1)
800002dc:	00008067          	ret
800002e0:	00c5a623          	sw	a2,12(a1)
800002e4:	00274783          	lbu	a5,2(a4)
800002e8:	16078463          	beqz	a5,80000450 <core_state_transition+0x2fc>
800002ec:	18a78263          	beq	a5,a0,80000470 <core_state_transition+0x31c>
800002f0:	0185a683          	lw	a3,24(a1)
800002f4:	fd078793          	addi	a5,a5,-48
800002f8:	0ff7f793          	zext.b	a5,a5
800002fc:	00900813          	li	a6,9
80000300:	00168613          	addi	a2,a3,1
80000304:	00370693          	addi	a3,a4,3
80000308:	04f86663          	bltu	a6,a5,80000354 <core_state_transition+0x200>
8000030c:	00c5ac23          	sw	a2,24(a1)
80000310:	00374783          	lbu	a5,3(a4)
80000314:	12078a63          	beqz	a5,80000448 <core_state_transition+0x2f4>
80000318:	16a78463          	beq	a5,a0,80000480 <core_state_transition+0x32c>
8000031c:	00900713          	li	a4,9
80000320:	02c00613          	li	a2,44
80000324:	fd078793          	addi	a5,a5,-48
80000328:	0ff7f793          	zext.b	a5,a5
8000032c:	00168693          	addi	a3,a3,1
80000330:	02f76a63          	bltu	a4,a5,80000364 <core_state_transition+0x210>
80000334:	0006c783          	lbu	a5,0(a3)
80000338:	10078863          	beqz	a5,80000448 <core_state_transition+0x2f4>
8000033c:	fec794e3          	bne	a5,a2,80000324 <core_state_transition+0x1d0>
80000340:	00168e13          	addi	t3,a3,1
80000344:	00700513          	li	a0,7
80000348:	000e0693          	mv	a3,t3
8000034c:	00d32023          	sw	a3,0(t1)
80000350:	00008067          	ret
80000354:	00c5ac23          	sw	a2,24(a1)
80000358:	00100513          	li	a0,1
8000035c:	00d32023          	sw	a3,0(t1)
80000360:	00008067          	ret
80000364:	0045a783          	lw	a5,4(a1)
80000368:	00100513          	li	a0,1
8000036c:	00178793          	addi	a5,a5,1
80000370:	00f5a223          	sw	a5,4(a1)
80000374:	f15ff06f          	j	80000288 <core_state_transition+0x134>
80000378:	0145a783          	lw	a5,20(a1)
8000037c:	00100513          	li	a0,1
80000380:	00178793          	addi	a5,a5,1
80000384:	00f5aa23          	sw	a5,20(a1)
80000388:	f01ff06f          	j	80000288 <core_state_transition+0x134>
8000038c:	00c5a023          	sw	a2,0(a1)
80000390:	00174783          	lbu	a5,1(a4)
80000394:	0c078263          	beqz	a5,80000458 <core_state_transition+0x304>
80000398:	0ea78c63          	beq	a5,a0,80000490 <core_state_transition+0x33c>
8000039c:	000e0713          	mv	a4,t3
800003a0:	e61ff06f          	j	80000200 <core_state_transition+0xac>
800003a4:	00c5a023          	sw	a2,0(a1)
800003a8:	00174803          	lbu	a6,1(a4)
800003ac:	14080063          	beqz	a6,800004ec <core_state_transition+0x398>
800003b0:	02c00893          	li	a7,44
800003b4:	13180463          	beq	a6,a7,800004dc <core_state_transition+0x388>
800003b8:	0085a683          	lw	a3,8(a1)
800003bc:	fd080793          	addi	a5,a6,-48
800003c0:	0ff7f793          	zext.b	a5,a5
800003c4:	00900513          	li	a0,9
800003c8:	00168613          	addi	a2,a3,1
800003cc:	00270693          	addi	a3,a4,2
800003d0:	00f57c63          	bgeu	a0,a5,800003e8 <core_state_transition+0x294>
800003d4:	02e00793          	li	a5,46
800003d8:	02f80863          	beq	a6,a5,80000408 <core_state_transition+0x2b4>
800003dc:	00c5a423          	sw	a2,8(a1)
800003e0:	00100513          	li	a0,1
800003e4:	ea5ff06f          	j	80000288 <core_state_transition+0x134>
800003e8:	00c5a423          	sw	a2,8(a1)
800003ec:	00274783          	lbu	a5,2(a4)
800003f0:	04078063          	beqz	a5,80000430 <core_state_transition+0x2dc>
800003f4:	db1798e3          	bne	a5,a7,800001a4 <core_state_transition+0x50>
800003f8:	00370e13          	addi	t3,a4,3
800003fc:	00400513          	li	a0,4
80000400:	000e0693          	mv	a3,t3
80000404:	f49ff06f          	j	8000034c <core_state_transition+0x1f8>
80000408:	00c5a423          	sw	a2,8(a1)
8000040c:	00274783          	lbu	a5,2(a4)
80000410:	04078463          	beqz	a5,80000458 <core_state_transition+0x304>
80000414:	0b178c63          	beq	a5,a7,800004cc <core_state_transition+0x378>
80000418:	00068713          	mv	a4,a3
8000041c:	de5ff06f          	j	80000200 <core_state_transition+0xac>
80000420:	00000513          	li	a0,0
80000424:	000e0693          	mv	a3,t3
80000428:	f25ff06f          	j	8000034c <core_state_transition+0x1f8>
8000042c:	00070693          	mv	a3,a4
80000430:	00400513          	li	a0,4
80000434:	e55ff06f          	j	80000288 <core_state_transition+0x134>
80000438:	00270e13          	addi	t3,a4,2
8000043c:	00400513          	li	a0,4
80000440:	000e0693          	mv	a3,t3
80000444:	f09ff06f          	j	8000034c <core_state_transition+0x1f8>
80000448:	00700513          	li	a0,7
8000044c:	e3dff06f          	j	80000288 <core_state_transition+0x134>
80000450:	00600513          	li	a0,6
80000454:	e35ff06f          	j	80000288 <core_state_transition+0x134>
80000458:	00500513          	li	a0,5
8000045c:	e2dff06f          	j	80000288 <core_state_transition+0x134>
80000460:	00270e13          	addi	t3,a4,2
80000464:	00300513          	li	a0,3
80000468:	000e0693          	mv	a3,t3
8000046c:	ee1ff06f          	j	8000034c <core_state_transition+0x1f8>
80000470:	00370e13          	addi	t3,a4,3
80000474:	00600513          	li	a0,6
80000478:	000e0693          	mv	a3,t3
8000047c:	ed1ff06f          	j	8000034c <core_state_transition+0x1f8>
80000480:	00470e13          	addi	t3,a4,4
80000484:	00700513          	li	a0,7
80000488:	000e0693          	mv	a3,t3
8000048c:	ec1ff06f          	j	8000034c <core_state_transition+0x1f8>
80000490:	00270e13          	addi	t3,a4,2
80000494:	00500513          	li	a0,5
80000498:	000e0693          	mv	a3,t3
8000049c:	eb1ff06f          	j	8000034c <core_state_transition+0x1f8>
800004a0:	00070693          	mv	a3,a4
800004a4:	00500513          	li	a0,5
800004a8:	de1ff06f          	j	80000288 <core_state_transition+0x134>
800004ac:	00268e13          	addi	t3,a3,2
800004b0:	00500513          	li	a0,5
800004b4:	000e0693          	mv	a3,t3
800004b8:	e95ff06f          	j	8000034c <core_state_transition+0x1f8>
800004bc:	00268e13          	addi	t3,a3,2
800004c0:	00400513          	li	a0,4
800004c4:	000e0693          	mv	a3,t3
800004c8:	e85ff06f          	j	8000034c <core_state_transition+0x1f8>
800004cc:	00370e13          	addi	t3,a4,3
800004d0:	00500513          	li	a0,5
800004d4:	000e0693          	mv	a3,t3
800004d8:	e75ff06f          	j	8000034c <core_state_transition+0x1f8>
800004dc:	001e0e13          	addi	t3,t3,1
800004e0:	00200513          	li	a0,2
800004e4:	000e0693          	mv	a3,t3
800004e8:	e65ff06f          	j	8000034c <core_state_transition+0x1f8>
800004ec:	00200513          	li	a0,2
800004f0:	d99ff06f          	j	80000288 <core_state_transition+0x134>

800004f4 <core_bench_state>:
800004f4:	f9810113          	addi	sp,sp,-104
800004f8:	06812023          	sw	s0,96(sp)
800004fc:	00d12823          	sw	a3,16(sp)
80000500:	00e12023          	sw	a4,0(sp)
80000504:	00f12223          	sw	a5,4(sp)
80000508:	06112223          	sw	ra,100(sp)
8000050c:	04912e23          	sw	s1,92(sp)
80000510:	00058413          	mv	s0,a1
80000514:	00a12a23          	sw	a0,20(sp)
80000518:	00c12623          	sw	a2,12(sp)
8000051c:	00b12c23          	sw	a1,24(sp)
80000520:	03c10793          	addi	a5,sp,60
80000524:	01c10713          	addi	a4,sp,28
80000528:	05c10693          	addi	a3,sp,92
8000052c:	0007a023          	sw	zero,0(a5)
80000530:	00072023          	sw	zero,0(a4)
80000534:	00478793          	addi	a5,a5,4
80000538:	00470713          	addi	a4,a4,4
8000053c:	fed798e3          	bne	a5,a3,8000052c <core_bench_state+0x38>
80000540:	00044483          	lbu	s1,0(s0)
80000544:	01810613          	addi	a2,sp,24
80000548:	04048063          	beqz	s1,80000588 <core_bench_state+0x94>
8000054c:	00060513          	mv	a0,a2
80000550:	03c10593          	addi	a1,sp,60
80000554:	00c12423          	sw	a2,8(sp)
80000558:	bfdff0ef          	jal	ra,80000154 <core_state_transition>
8000055c:	00251513          	slli	a0,a0,0x2
80000560:	01810713          	addi	a4,sp,24
80000564:	04450793          	addi	a5,a0,68
80000568:	00e78533          	add	a0,a5,a4
8000056c:	01812683          	lw	a3,24(sp)
80000570:	fc052703          	lw	a4,-64(a0)
80000574:	00812603          	lw	a2,8(sp)
80000578:	0006c683          	lbu	a3,0(a3)
8000057c:	00170713          	addi	a4,a4,1
80000580:	fce52023          	sw	a4,-64(a0)
80000584:	fc0694e3          	bnez	a3,8000054c <core_bench_state+0x58>
80000588:	01412783          	lw	a5,20(sp)
8000058c:	00812c23          	sw	s0,24(sp)
80000590:	00040713          	mv	a4,s0
80000594:	00f406b3          	add	a3,s0,a5
80000598:	02c00593          	li	a1,44
8000059c:	00d46663          	bltu	s0,a3,800005a8 <core_bench_state+0xb4>
800005a0:	0f80006f          	j	80000698 <core_bench_state+0x1a4>
800005a4:	00074483          	lbu	s1,0(a4)
800005a8:	00c12783          	lw	a5,12(sp)
800005ac:	00f4c633          	xor	a2,s1,a5
800005b0:	00b48463          	beq	s1,a1,800005b8 <core_bench_state+0xc4>
800005b4:	00c70023          	sb	a2,0(a4)
800005b8:	00012783          	lw	a5,0(sp)
800005bc:	00f70733          	add	a4,a4,a5
800005c0:	fed762e3          	bltu	a4,a3,800005a4 <core_bench_state+0xb0>
800005c4:	00044483          	lbu	s1,0(s0)
800005c8:	00812c23          	sw	s0,24(sp)
800005cc:	04048a63          	beqz	s1,80000620 <core_bench_state+0x12c>
800005d0:	01810613          	addi	a2,sp,24
800005d4:	03c10593          	addi	a1,sp,60
800005d8:	00060513          	mv	a0,a2
800005dc:	00d12623          	sw	a3,12(sp)
800005e0:	00c12423          	sw	a2,8(sp)
800005e4:	b71ff0ef          	jal	ra,80000154 <core_state_transition>
800005e8:	00251513          	slli	a0,a0,0x2
800005ec:	01810713          	addi	a4,sp,24
800005f0:	04450793          	addi	a5,a0,68
800005f4:	00e78533          	add	a0,a5,a4
800005f8:	01812583          	lw	a1,24(sp)
800005fc:	fc052703          	lw	a4,-64(a0)
80000600:	00812603          	lw	a2,8(sp)
80000604:	0005c583          	lbu	a1,0(a1)
80000608:	00170713          	addi	a4,a4,1
8000060c:	fce52023          	sw	a4,-64(a0)
80000610:	00c12683          	lw	a3,12(sp)
80000614:	fc0590e3          	bnez	a1,800005d4 <core_bench_state+0xe0>
80000618:	00812c23          	sw	s0,24(sp)
8000061c:	02d47663          	bgeu	s0,a3,80000648 <core_bench_state+0x154>
80000620:	02c00613          	li	a2,44
80000624:	0080006f          	j	8000062c <core_bench_state+0x138>
80000628:	00044483          	lbu	s1,0(s0)
8000062c:	01012783          	lw	a5,16(sp)
80000630:	00f4c733          	xor	a4,s1,a5
80000634:	00c48463          	beq	s1,a2,8000063c <core_bench_state+0x148>
80000638:	00e40023          	sb	a4,0(s0)
8000063c:	00012783          	lw	a5,0(sp)
80000640:	00f40433          	add	s0,s0,a5
80000644:	fed462e3          	bltu	s0,a3,80000628 <core_bench_state+0x134>
80000648:	00000493          	li	s1,0
8000064c:	02000413          	li	s0,32
80000650:	01c10793          	addi	a5,sp,28
80000654:	00978733          	add	a4,a5,s1
80000658:	00072503          	lw	a0,0(a4)
8000065c:	00412583          	lw	a1,4(sp)
80000660:	12c000ef          	jal	ra,8000078c <crcu32>
80000664:	03c10793          	addi	a5,sp,60
80000668:	00978733          	add	a4,a5,s1
8000066c:	00050593          	mv	a1,a0
80000670:	00072503          	lw	a0,0(a4)
80000674:	00448493          	addi	s1,s1,4
80000678:	114000ef          	jal	ra,8000078c <crcu32>
8000067c:	00a12223          	sw	a0,4(sp)
80000680:	fc8498e3          	bne	s1,s0,80000650 <core_bench_state+0x15c>
80000684:	06412083          	lw	ra,100(sp)
80000688:	06012403          	lw	s0,96(sp)
8000068c:	05c12483          	lw	s1,92(sp)
80000690:	06810113          	addi	sp,sp,104
80000694:	00008067          	ret
80000698:	f2049ce3          	bnez	s1,800005d0 <core_bench_state+0xdc>
8000069c:	fadff06f          	j	80000648 <core_bench_state+0x154>

800006a0 <get_seed_32>:
800006a0:	00500793          	li	a5,5
800006a4:	04a7ee63          	bltu	a5,a0,80000700 <get_seed_32+0x60>
800006a8:	00003717          	auipc	a4,0x3
800006ac:	9b470713          	addi	a4,a4,-1612 # 8000305c <scipat+0x10>
800006b0:	00251513          	slli	a0,a0,0x2
800006b4:	00e50533          	add	a0,a0,a4
800006b8:	00052783          	lw	a5,0(a0)
800006bc:	00e787b3          	add	a5,a5,a4
800006c0:	00078067          	jr	a5
800006c4:	00004517          	auipc	a0,0x4
800006c8:	92452503          	lw	a0,-1756(a0) # 80003fe8 <seed5_volatile>
800006cc:	00008067          	ret
800006d0:	00004517          	auipc	a0,0x4
800006d4:	91052503          	lw	a0,-1776(a0) # 80003fe0 <seed1_volatile>
800006d8:	00008067          	ret
800006dc:	00004517          	auipc	a0,0x4
800006e0:	90852503          	lw	a0,-1784(a0) # 80003fe4 <seed2_volatile>
800006e4:	00008067          	ret
800006e8:	00003517          	auipc	a0,0x3
800006ec:	f2052503          	lw	a0,-224(a0) # 80003608 <seed3_volatile>
800006f0:	00008067          	ret
800006f4:	00003517          	auipc	a0,0x3
800006f8:	f1852503          	lw	a0,-232(a0) # 8000360c <seed4_volatile>
800006fc:	00008067          	ret
80000700:	00000513          	li	a0,0
80000704:	00008067          	ret

80000708 <crcu16>:
80000708:	00050693          	mv	a3,a0
8000070c:	ffffa837          	lui	a6,0xffffa
80000710:	00058513          	mv	a0,a1
80000714:	0ff6f613          	zext.b	a2,a3
80000718:	00800793          	li	a5,8
8000071c:	00180813          	addi	a6,a6,1 # ffffa001 <_end+0x7ffee001>
80000720:	00a64733          	xor	a4,a2,a0
80000724:	fff78793          	addi	a5,a5,-1
80000728:	00155513          	srli	a0,a0,0x1
8000072c:	00177713          	andi	a4,a4,1
80000730:	0ff7f793          	zext.b	a5,a5
80000734:	010545b3          	xor	a1,a0,a6
80000738:	00165613          	srli	a2,a2,0x1
8000073c:	00070663          	beqz	a4,80000748 <crcu16+0x40>
80000740:	01059513          	slli	a0,a1,0x10
80000744:	01055513          	srli	a0,a0,0x10
80000748:	fc079ce3          	bnez	a5,80000720 <crcu16+0x18>
8000074c:	ffffa5b7          	lui	a1,0xffffa
80000750:	0086d693          	srli	a3,a3,0x8
80000754:	00800793          	li	a5,8
80000758:	00158593          	addi	a1,a1,1 # ffffa001 <_end+0x7ffee001>
8000075c:	00a6c733          	xor	a4,a3,a0
80000760:	fff78793          	addi	a5,a5,-1
80000764:	00155513          	srli	a0,a0,0x1
80000768:	00177713          	andi	a4,a4,1
8000076c:	0ff7f793          	zext.b	a5,a5
80000770:	00b54633          	xor	a2,a0,a1
80000774:	0016d693          	srli	a3,a3,0x1
80000778:	00070663          	beqz	a4,80000784 <crcu16+0x7c>
8000077c:	01061513          	slli	a0,a2,0x10
80000780:	01055513          	srli	a0,a0,0x10
80000784:	fc079ce3          	bnez	a5,8000075c <crcu16+0x54>
80000788:	00008067          	ret

8000078c <crcu32>:
8000078c:	00050713          	mv	a4,a0
80000790:	01071613          	slli	a2,a4,0x10
80000794:	ffffa8b7          	lui	a7,0xffffa
80000798:	00058513          	mv	a0,a1
8000079c:	01065613          	srli	a2,a2,0x10
800007a0:	0ff77593          	zext.b	a1,a4
800007a4:	00800793          	li	a5,8
800007a8:	00188893          	addi	a7,a7,1 # ffffa001 <_end+0x7ffee001>
800007ac:	00a5c6b3          	xor	a3,a1,a0
800007b0:	fff78793          	addi	a5,a5,-1
800007b4:	00155513          	srli	a0,a0,0x1
800007b8:	0016f693          	andi	a3,a3,1
800007bc:	0ff7f793          	zext.b	a5,a5
800007c0:	01154833          	xor	a6,a0,a7
800007c4:	0015d593          	srli	a1,a1,0x1
800007c8:	00068663          	beqz	a3,800007d4 <crcu32+0x48>
800007cc:	01081513          	slli	a0,a6,0x10
800007d0:	01055513          	srli	a0,a0,0x10
800007d4:	fc079ce3          	bnez	a5,800007ac <crcu32+0x20>
800007d8:	ffffa837          	lui	a6,0xffffa
800007dc:	00865613          	srli	a2,a2,0x8
800007e0:	00800793          	li	a5,8
800007e4:	00180813          	addi	a6,a6,1 # ffffa001 <_end+0x7ffee001>
800007e8:	00a646b3          	xor	a3,a2,a0
800007ec:	fff78793          	addi	a5,a5,-1
800007f0:	00155513          	srli	a0,a0,0x1
800007f4:	0016f693          	andi	a3,a3,1
800007f8:	0ff7f793          	zext.b	a5,a5
800007fc:	010545b3          	xor	a1,a0,a6
80000800:	00165613          	srli	a2,a2,0x1
80000804:	00068663          	beqz	a3,80000810 <crcu32+0x84>
80000808:	01059513          	slli	a0,a1,0x10
8000080c:	01055513          	srli	a0,a0,0x10
80000810:	fc079ce3          	bnez	a5,800007e8 <crcu32+0x5c>
80000814:	01075613          	srli	a2,a4,0x10
80000818:	ffffa837          	lui	a6,0xffffa
8000081c:	00060713          	mv	a4,a2
80000820:	00800793          	li	a5,8
80000824:	0ff67613          	zext.b	a2,a2
80000828:	00180813          	addi	a6,a6,1 # ffffa001 <_end+0x7ffee001>
8000082c:	00a646b3          	xor	a3,a2,a0
80000830:	fff78793          	addi	a5,a5,-1
80000834:	00155513          	srli	a0,a0,0x1
80000838:	0016f693          	andi	a3,a3,1
8000083c:	0ff7f793          	zext.b	a5,a5
80000840:	010545b3          	xor	a1,a0,a6
80000844:	00165613          	srli	a2,a2,0x1
80000848:	00068663          	beqz	a3,80000854 <crcu32+0xc8>
8000084c:	01059513          	slli	a0,a1,0x10
80000850:	01055513          	srli	a0,a0,0x10
80000854:	fc079ce3          	bnez	a5,8000082c <crcu32+0xa0>
80000858:	ffffa5b7          	lui	a1,0xffffa
8000085c:	00875713          	srli	a4,a4,0x8
80000860:	00800793          	li	a5,8
80000864:	00158593          	addi	a1,a1,1 # ffffa001 <_end+0x7ffee001>
80000868:	00a746b3          	xor	a3,a4,a0
8000086c:	fff78793          	addi	a5,a5,-1
80000870:	00155513          	srli	a0,a0,0x1
80000874:	0016f693          	andi	a3,a3,1
80000878:	0ff7f793          	zext.b	a5,a5
8000087c:	00b54633          	xor	a2,a0,a1
80000880:	00175713          	srli	a4,a4,0x1
80000884:	00068663          	beqz	a3,80000890 <crcu32+0x104>
80000888:	01061513          	slli	a0,a2,0x10
8000088c:	01055513          	srli	a0,a0,0x10
80000890:	fc079ce3          	bnez	a5,80000868 <crcu32+0xdc>
80000894:	00008067          	ret

80000898 <crc16>:
80000898:	00050693          	mv	a3,a0
8000089c:	01069613          	slli	a2,a3,0x10
800008a0:	ffffa837          	lui	a6,0xffffa
800008a4:	00058513          	mv	a0,a1
800008a8:	01065613          	srli	a2,a2,0x10
800008ac:	0ff6f693          	zext.b	a3,a3
800008b0:	00800793          	li	a5,8
800008b4:	00180813          	addi	a6,a6,1 # ffffa001 <_end+0x7ffee001>
800008b8:	00a6c733          	xor	a4,a3,a0
800008bc:	fff78793          	addi	a5,a5,-1
800008c0:	00155513          	srli	a0,a0,0x1
800008c4:	00177713          	andi	a4,a4,1
800008c8:	0ff7f793          	zext.b	a5,a5
800008cc:	010545b3          	xor	a1,a0,a6
800008d0:	0016d693          	srli	a3,a3,0x1
800008d4:	00070663          	beqz	a4,800008e0 <crc16+0x48>
800008d8:	01059513          	slli	a0,a1,0x10
800008dc:	01055513          	srli	a0,a0,0x10
800008e0:	fc079ce3          	bnez	a5,800008b8 <crc16+0x20>
800008e4:	ffffa5b7          	lui	a1,0xffffa
800008e8:	00865693          	srli	a3,a2,0x8
800008ec:	00800793          	li	a5,8
800008f0:	00158593          	addi	a1,a1,1 # ffffa001 <_end+0x7ffee001>
800008f4:	00a6c733          	xor	a4,a3,a0
800008f8:	fff78793          	addi	a5,a5,-1
800008fc:	00155513          	srli	a0,a0,0x1
80000900:	00177713          	andi	a4,a4,1
80000904:	0ff7f793          	zext.b	a5,a5
80000908:	00b54633          	xor	a2,a0,a1
8000090c:	0016d693          	srli	a3,a3,0x1
80000910:	00070663          	beqz	a4,8000091c <crc16+0x84>
80000914:	01061513          	slli	a0,a2,0x10
80000918:	01055513          	srli	a0,a0,0x10
8000091c:	fc079ce3          	bnez	a5,800008f4 <crc16+0x5c>
80000920:	00008067          	ret

80000924 <check_data_types>:
80000924:	00000513          	li	a0,0
80000928:	00008067          	ret

8000092c <iterate>:
8000092c:	01c52783          	lw	a5,28(a0)
80000930:	ff010113          	addi	sp,sp,-16
80000934:	00112623          	sw	ra,12(sp)
80000938:	00812423          	sw	s0,8(sp)
8000093c:	00912223          	sw	s1,4(sp)
80000940:	00f12023          	sw	a5,0(sp)
80000944:	02052c23          	sw	zero,56(a0)
80000948:	02052e23          	sw	zero,60(a0)
8000094c:	04078863          	beqz	a5,8000099c <iterate+0x70>
80000950:	00050413          	mv	s0,a0
80000954:	00000493          	li	s1,0
80000958:	00100593          	li	a1,1
8000095c:	00040513          	mv	a0,s0
80000960:	354010ef          	jal	ra,80001cb4 <core_bench_list>
80000964:	03845583          	lhu	a1,56(s0)
80000968:	da1ff0ef          	jal	ra,80000708 <crcu16>
8000096c:	fff00593          	li	a1,-1
80000970:	02a41c23          	sh	a0,56(s0)
80000974:	00040513          	mv	a0,s0
80000978:	33c010ef          	jal	ra,80001cb4 <core_bench_list>
8000097c:	03845583          	lhu	a1,56(s0)
80000980:	d89ff0ef          	jal	ra,80000708 <crcu16>
80000984:	02a41c23          	sh	a0,56(s0)
80000988:	00049463          	bnez	s1,80000990 <iterate+0x64>
8000098c:	02a41d23          	sh	a0,58(s0)
80000990:	00012783          	lw	a5,0(sp)
80000994:	00148493          	addi	s1,s1,1
80000998:	fc9790e3          	bne	a5,s1,80000958 <iterate+0x2c>
8000099c:	00c12083          	lw	ra,12(sp)
800009a0:	00812403          	lw	s0,8(sp)
800009a4:	00412483          	lw	s1,4(sp)
800009a8:	00000513          	li	a0,0
800009ac:	01010113          	addi	sp,sp,16
800009b0:	00008067          	ret

800009b4 <main>:
800009b4:	f9410113          	addi	sp,sp,-108
800009b8:	06112423          	sw	ra,104(sp)
800009bc:	06812223          	sw	s0,100(sp)
800009c0:	06912023          	sw	s1,96(sp)
800009c4:	00058413          	mv	s0,a1
800009c8:	00a12c23          	sw	a0,24(sp)
800009cc:	7a4010ef          	jal	ra,80002170 <ioe_init>
800009d0:	3e800593          	li	a1,1000
800009d4:	00002517          	auipc	a0,0x2
800009d8:	6a050513          	addi	a0,a0,1696 # 80003074 <scipat+0x28>
800009dc:	45c020ef          	jal	ra,80002e38 <printf>
800009e0:	00040613          	mv	a2,s0
800009e4:	01810593          	addi	a1,sp,24
800009e8:	05e10513          	addi	a0,sp,94
800009ec:	799000ef          	jal	ra,80001984 <portable_init>
800009f0:	00100513          	li	a0,1
800009f4:	cadff0ef          	jal	ra,800006a0 <get_seed_32>
800009f8:	00050793          	mv	a5,a0
800009fc:	00200513          	li	a0,2
80000a00:	00f11e23          	sh	a5,28(sp)
80000a04:	c9dff0ef          	jal	ra,800006a0 <get_seed_32>
80000a08:	00050793          	mv	a5,a0
80000a0c:	00300513          	li	a0,3
80000a10:	00f11f23          	sh	a5,30(sp)
80000a14:	c8dff0ef          	jal	ra,800006a0 <get_seed_32>
80000a18:	00050793          	mv	a5,a0
80000a1c:	00400513          	li	a0,4
80000a20:	02f11023          	sh	a5,32(sp)
80000a24:	c7dff0ef          	jal	ra,800006a0 <get_seed_32>
80000a28:	00050793          	mv	a5,a0
80000a2c:	00500513          	li	a0,5
80000a30:	02f12c23          	sw	a5,56(sp)
80000a34:	c6dff0ef          	jal	ra,800006a0 <get_seed_32>
80000a38:	00700793          	li	a5,7
80000a3c:	00050463          	beqz	a0,80000a44 <main+0x90>
80000a40:	00050793          	mv	a5,a0
80000a44:	01c12703          	lw	a4,28(sp)
80000a48:	02f12e23          	sw	a5,60(sp)
80000a4c:	60071a63          	bnez	a4,80001060 <main+0x6ac>
80000a50:	02011703          	lh	a4,32(sp)
80000a54:	62070463          	beqz	a4,8000107c <main+0x6c8>
80000a58:	00003e17          	auipc	t3,0x3
80000a5c:	db8e0e13          	addi	t3,t3,-584 # 80003810 <static_memblk>
80000a60:	0027f713          	andi	a4,a5,2
80000a64:	0017f693          	andi	a3,a5,1
80000a68:	00e035b3          	snez	a1,a4
80000a6c:	03c12223          	sw	t3,36(sp)
80000a70:	04011e23          	sh	zero,92(sp)
80000a74:	0047f613          	andi	a2,a5,4
80000a78:	00068e93          	mv	t4,a3
80000a7c:	00b686b3          	add	a3,a3,a1
80000a80:	00060863          	beqz	a2,80000a90 <main+0xdc>
80000a84:	00168693          	addi	a3,a3,1
80000a88:	01069693          	slli	a3,a3,0x10
80000a8c:	0106d693          	srli	a3,a3,0x10
80000a90:	7d000513          	li	a0,2000
80000a94:	02d55533          	divu	a0,a0,a3
80000a98:	01c10593          	addi	a1,sp,28
80000a9c:	00000693          	li	a3,0
80000aa0:	00000813          	li	a6,0
80000aa4:	00100313          	li	t1,1
80000aa8:	00300893          	li	a7,3
80000aac:	02a12a23          	sw	a0,52(sp)
80000ab0:	00d31633          	sll	a2,t1,a3
80000ab4:	00f67633          	and	a2,a2,a5
80000ab8:	00168693          	addi	a3,a3,1
80000abc:	58061463          	bnez	a2,80001044 <main+0x690>
80000ac0:	00458593          	addi	a1,a1,4
80000ac4:	ff1696e3          	bne	a3,a7,80000ab0 <main+0xfc>
80000ac8:	280e9463          	bnez	t4,80000d50 <main+0x39c>
80000acc:	2a071063          	bnez	a4,80000d6c <main+0x3b8>
80000ad0:	0047f793          	andi	a5,a5,4
80000ad4:	00078a63          	beqz	a5,80000ae8 <main+0x134>
80000ad8:	03012603          	lw	a2,48(sp)
80000adc:	01c11583          	lh	a1,28(sp)
80000ae0:	03412503          	lw	a0,52(sp)
80000ae4:	d2cff0ef          	jal	ra,80000010 <core_init_state>
80000ae8:	03812783          	lw	a5,56(sp)
80000aec:	04079a63          	bnez	a5,80000b40 <main+0x18c>
80000af0:	00100793          	li	a5,1
80000af4:	02f12c23          	sw	a5,56(sp)
80000af8:	03812703          	lw	a4,56(sp)
80000afc:	00271793          	slli	a5,a4,0x2
80000b00:	00e787b3          	add	a5,a5,a4
80000b04:	00179793          	slli	a5,a5,0x1
80000b08:	02f12c23          	sw	a5,56(sp)
80000b0c:	5c5000ef          	jal	ra,800018d0 <start_time>
80000b10:	01c10513          	addi	a0,sp,28
80000b14:	e19ff0ef          	jal	ra,8000092c <iterate>
80000b18:	605000ef          	jal	ra,8000191c <stop_time>
80000b1c:	64d000ef          	jal	ra,80001968 <get_time>
80000b20:	661000ef          	jal	ra,80001980 <time_in_secs>
80000b24:	fc050ae3          	beqz	a0,80000af8 <main+0x144>
80000b28:	00a00793          	li	a5,10
80000b2c:	02a7d7b3          	divu	a5,a5,a0
80000b30:	03812703          	lw	a4,56(sp)
80000b34:	00178793          	addi	a5,a5,1
80000b38:	02f707b3          	mul	a5,a4,a5
80000b3c:	02f12c23          	sw	a5,56(sp)
80000b40:	591000ef          	jal	ra,800018d0 <start_time>
80000b44:	01c10513          	addi	a0,sp,28
80000b48:	de5ff0ef          	jal	ra,8000092c <iterate>
80000b4c:	5d1000ef          	jal	ra,8000191c <stop_time>
80000b50:	619000ef          	jal	ra,80001968 <get_time>
80000b54:	00050493          	mv	s1,a0
80000b58:	01c11503          	lh	a0,28(sp)
80000b5c:	00000593          	li	a1,0
80000b60:	00912223          	sw	s1,4(sp)
80000b64:	d35ff0ef          	jal	ra,80000898 <crc16>
80000b68:	00050593          	mv	a1,a0
80000b6c:	01e11503          	lh	a0,30(sp)
80000b70:	d29ff0ef          	jal	ra,80000898 <crc16>
80000b74:	00050593          	mv	a1,a0
80000b78:	02011503          	lh	a0,32(sp)
80000b7c:	d1dff0ef          	jal	ra,80000898 <crc16>
80000b80:	00050593          	mv	a1,a0
80000b84:	03411503          	lh	a0,52(sp)
80000b88:	d11ff0ef          	jal	ra,80000898 <crc16>
80000b8c:	000087b7          	lui	a5,0x8
80000b90:	00a12a23          	sw	a0,20(sp)
80000b94:	b0578793          	addi	a5,a5,-1275 # 7b05 <_entry_offset+0x7b05>
80000b98:	56f50863          	beq	a0,a5,80001108 <main+0x754>
80000b9c:	46a7ec63          	bltu	a5,a0,80001014 <main+0x660>
80000ba0:	000027b7          	lui	a5,0x2
80000ba4:	8f278793          	addi	a5,a5,-1806 # 18f2 <_entry_offset+0x18f2>
80000ba8:	52f50c63          	beq	a0,a5,800010e0 <main+0x72c>
80000bac:	000057b7          	lui	a5,0x5
80000bb0:	eaf78793          	addi	a5,a5,-337 # 4eaf <_entry_offset+0x4eaf>
80000bb4:	56f51463          	bne	a0,a5,8000111c <main+0x768>
80000bb8:	00002517          	auipc	a0,0x2
80000bbc:	53c50513          	addi	a0,a0,1340 # 800030f4 <scipat+0xa8>
80000bc0:	278020ef          	jal	ra,80002e38 <printf>
80000bc4:	00200313          	li	t1,2
80000bc8:	00003497          	auipc	s1,0x3
80000bcc:	a3c48493          	addi	s1,s1,-1476 # 80003604 <default_num_contexts>
80000bd0:	0004a783          	lw	a5,0(s1)
80000bd4:	00000413          	li	s0,0
80000bd8:	00000593          	li	a1,0
80000bdc:	04079063          	bnez	a5,80000c1c <main+0x268>
80000be0:	1f00006f          	j	80000dd0 <main+0x41c>
80000be4:	01810713          	addi	a4,sp,24
80000be8:	04878793          	addi	a5,a5,72
80000bec:	00e787b3          	add	a5,a5,a4
80000bf0:	ffc7d703          	lhu	a4,-4(a5)
80000bf4:	00158593          	addi	a1,a1,1
80000bf8:	0004a683          	lw	a3,0(s1)
80000bfc:	008707b3          	add	a5,a4,s0
80000c00:	01059593          	slli	a1,a1,0x10
80000c04:	01079713          	slli	a4,a5,0x10
80000c08:	01079413          	slli	s0,a5,0x10
80000c0c:	0105d593          	srli	a1,a1,0x10
80000c10:	01075713          	srli	a4,a4,0x10
80000c14:	41045413          	srai	s0,s0,0x10
80000c18:	1ad5fe63          	bgeu	a1,a3,80000dd4 <main+0x420>
80000c1c:	00459893          	slli	a7,a1,0x4
80000c20:	00b887b3          	add	a5,a7,a1
80000c24:	00279793          	slli	a5,a5,0x2
80000c28:	01810713          	addi	a4,sp,24
80000c2c:	04878793          	addi	a5,a5,72
80000c30:	00e787b3          	add	a5,a5,a4
80000c34:	fdc7a703          	lw	a4,-36(a5)
80000c38:	fe079e23          	sh	zero,-4(a5)
80000c3c:	00177713          	andi	a4,a4,1
80000c40:	04070c63          	beqz	a4,80000c98 <main+0x2e4>
80000c44:	00002697          	auipc	a3,0x2
80000c48:	7e468693          	addi	a3,a3,2020 # 80003428 <list_known_crc>
80000c4c:	00131713          	slli	a4,t1,0x1
80000c50:	00e68733          	add	a4,a3,a4
80000c54:	ff67d603          	lhu	a2,-10(a5)
80000c58:	00075683          	lhu	a3,0(a4)
80000c5c:	00f12023          	sw	a5,0(sp)
80000c60:	02d60c63          	beq	a2,a3,80000c98 <main+0x2e4>
80000c64:	00002517          	auipc	a0,0x2
80000c68:	52050513          	addi	a0,a0,1312 # 80003184 <scipat+0x138>
80000c6c:	01112823          	sw	a7,16(sp)
80000c70:	00612623          	sw	t1,12(sp)
80000c74:	00b12423          	sw	a1,8(sp)
80000c78:	1c0020ef          	jal	ra,80002e38 <printf>
80000c7c:	00012783          	lw	a5,0(sp)
80000c80:	01012883          	lw	a7,16(sp)
80000c84:	00c12303          	lw	t1,12(sp)
80000c88:	ffc7d703          	lhu	a4,-4(a5)
80000c8c:	00812583          	lw	a1,8(sp)
80000c90:	00170713          	addi	a4,a4,1
80000c94:	fee79e23          	sh	a4,-4(a5)
80000c98:	00b88733          	add	a4,a7,a1
80000c9c:	00271713          	slli	a4,a4,0x2
80000ca0:	04870793          	addi	a5,a4,72
80000ca4:	01810713          	addi	a4,sp,24
80000ca8:	00e78733          	add	a4,a5,a4
80000cac:	fdc72503          	lw	a0,-36(a4)
80000cb0:	00257793          	andi	a5,a0,2
80000cb4:	04078e63          	beqz	a5,80000d10 <main+0x35c>
80000cb8:	00131693          	slli	a3,t1,0x1
80000cbc:	00002797          	auipc	a5,0x2
80000cc0:	77878793          	addi	a5,a5,1912 # 80003434 <matrix_known_crc>
80000cc4:	00d787b3          	add	a5,a5,a3
80000cc8:	ff875603          	lhu	a2,-8(a4)
80000ccc:	0007d683          	lhu	a3,0(a5)
80000cd0:	00e12023          	sw	a4,0(sp)
80000cd4:	02d60e63          	beq	a2,a3,80000d10 <main+0x35c>
80000cd8:	00002517          	auipc	a0,0x2
80000cdc:	4dc50513          	addi	a0,a0,1244 # 800031b4 <scipat+0x168>
80000ce0:	01112823          	sw	a7,16(sp)
80000ce4:	00612623          	sw	t1,12(sp)
80000ce8:	00b12423          	sw	a1,8(sp)
80000cec:	14c020ef          	jal	ra,80002e38 <printf>
80000cf0:	00012703          	lw	a4,0(sp)
80000cf4:	01012883          	lw	a7,16(sp)
80000cf8:	00c12303          	lw	t1,12(sp)
80000cfc:	ffc75783          	lhu	a5,-4(a4)
80000d00:	fdc72503          	lw	a0,-36(a4)
80000d04:	00812583          	lw	a1,8(sp)
80000d08:	00178793          	addi	a5,a5,1
80000d0c:	fef71e23          	sh	a5,-4(a4)
80000d10:	00b887b3          	add	a5,a7,a1
80000d14:	00457513          	andi	a0,a0,4
80000d18:	00279793          	slli	a5,a5,0x2
80000d1c:	ec0504e3          	beqz	a0,80000be4 <main+0x230>
80000d20:	01810713          	addi	a4,sp,24
80000d24:	04878793          	addi	a5,a5,72
80000d28:	00131693          	slli	a3,t1,0x1
80000d2c:	00e787b3          	add	a5,a5,a4
80000d30:	00002717          	auipc	a4,0x2
80000d34:	71070713          	addi	a4,a4,1808 # 80003440 <state_known_crc>
80000d38:	00d70733          	add	a4,a4,a3
80000d3c:	ffa7d603          	lhu	a2,-6(a5)
80000d40:	00075683          	lhu	a3,0(a4)
80000d44:	04d61863          	bne	a2,a3,80000d94 <main+0x3e0>
80000d48:	ffc7d703          	lhu	a4,-4(a5)
80000d4c:	ea9ff06f          	j	80000bf4 <main+0x240>
80000d50:	01c11603          	lh	a2,28(sp)
80000d54:	02812583          	lw	a1,40(sp)
80000d58:	1f4010ef          	jal	ra,80001f4c <core_list_init>
80000d5c:	03c12783          	lw	a5,60(sp)
80000d60:	04a12023          	sw	a0,64(sp)
80000d64:	0027f713          	andi	a4,a5,2
80000d68:	d60704e3          	beqz	a4,80000ad0 <main+0x11c>
80000d6c:	01e11783          	lh	a5,30(sp)
80000d70:	01c11603          	lh	a2,28(sp)
80000d74:	02c12583          	lw	a1,44(sp)
80000d78:	03412503          	lw	a0,52(sp)
80000d7c:	01079793          	slli	a5,a5,0x10
80000d80:	00c7e633          	or	a2,a5,a2
80000d84:	04410693          	addi	a3,sp,68
80000d88:	3a8000ef          	jal	ra,80001130 <core_init_matrix>
80000d8c:	03c12783          	lw	a5,60(sp)
80000d90:	d41ff06f          	j	80000ad0 <main+0x11c>
80000d94:	00002517          	auipc	a0,0x2
80000d98:	45450513          	addi	a0,a0,1108 # 800031e8 <scipat+0x19c>
80000d9c:	00f12623          	sw	a5,12(sp)
80000da0:	00612423          	sw	t1,8(sp)
80000da4:	00b12023          	sw	a1,0(sp)
80000da8:	090020ef          	jal	ra,80002e38 <printf>
80000dac:	00c12783          	lw	a5,12(sp)
80000db0:	00812303          	lw	t1,8(sp)
80000db4:	00012583          	lw	a1,0(sp)
80000db8:	ffc7d703          	lhu	a4,-4(a5)
80000dbc:	00170713          	addi	a4,a4,1
80000dc0:	01071713          	slli	a4,a4,0x10
80000dc4:	01075713          	srli	a4,a4,0x10
80000dc8:	fee79e23          	sh	a4,-4(a5)
80000dcc:	e29ff06f          	j	80000bf4 <main+0x240>
80000dd0:	00000713          	li	a4,0
80000dd4:	00e12023          	sw	a4,0(sp)
80000dd8:	b4dff0ef          	jal	ra,80000924 <check_data_types>
80000ddc:	00012703          	lw	a4,0(sp)
80000de0:	03412583          	lw	a1,52(sp)
80000de4:	00a70733          	add	a4,a4,a0
80000de8:	01071793          	slli	a5,a4,0x10
80000dec:	4107d793          	srai	a5,a5,0x10
80000df0:	00002517          	auipc	a0,0x2
80000df4:	42850513          	addi	a0,a0,1064 # 80003218 <scipat+0x1cc>
80000df8:	00f12423          	sw	a5,8(sp)
80000dfc:	03c020ef          	jal	ra,80002e38 <printf>
80000e00:	00412503          	lw	a0,4(sp)
80000e04:	37d000ef          	jal	ra,80001980 <time_in_secs>
80000e08:	00050593          	mv	a1,a0
80000e0c:	00002517          	auipc	a0,0x2
80000e10:	42450513          	addi	a0,a0,1060 # 80003230 <scipat+0x1e4>
80000e14:	024020ef          	jal	ra,80002e38 <printf>
80000e18:	0004a783          	lw	a5,0(s1)
80000e1c:	03812583          	lw	a1,56(sp)
80000e20:	00002517          	auipc	a0,0x2
80000e24:	42850513          	addi	a0,a0,1064 # 80003248 <scipat+0x1fc>
80000e28:	02f585b3          	mul	a1,a1,a5
80000e2c:	00c020ef          	jal	ra,80002e38 <printf>
80000e30:	00002597          	auipc	a1,0x2
80000e34:	43058593          	addi	a1,a1,1072 # 80003260 <scipat+0x214>
80000e38:	00002517          	auipc	a0,0x2
80000e3c:	43450513          	addi	a0,a0,1076 # 8000326c <scipat+0x220>
80000e40:	7f9010ef          	jal	ra,80002e38 <printf>
80000e44:	01412583          	lw	a1,20(sp)
80000e48:	00002517          	auipc	a0,0x2
80000e4c:	43c50513          	addi	a0,a0,1084 # 80003284 <scipat+0x238>
80000e50:	7e9010ef          	jal	ra,80002e38 <printf>
80000e54:	03c12783          	lw	a5,60(sp)
80000e58:	0017f713          	andi	a4,a5,1
80000e5c:	04070e63          	beqz	a4,80000eb8 <main+0x504>
80000e60:	0004a703          	lw	a4,0(s1)
80000e64:	04070a63          	beqz	a4,80000eb8 <main+0x504>
80000e68:	00000593          	li	a1,0
80000e6c:	00002417          	auipc	s0,0x2
80000e70:	43440413          	addi	s0,s0,1076 # 800032a0 <scipat+0x254>
80000e74:	00459793          	slli	a5,a1,0x4
80000e78:	00b787b3          	add	a5,a5,a1
80000e7c:	00279793          	slli	a5,a5,0x2
80000e80:	01810713          	addi	a4,sp,24
80000e84:	04878793          	addi	a5,a5,72
80000e88:	00e787b3          	add	a5,a5,a4
80000e8c:	ff67d603          	lhu	a2,-10(a5)
80000e90:	00040513          	mv	a0,s0
80000e94:	00b12023          	sw	a1,0(sp)
80000e98:	7a1010ef          	jal	ra,80002e38 <printf>
80000e9c:	00012583          	lw	a1,0(sp)
80000ea0:	0004a783          	lw	a5,0(s1)
80000ea4:	00158593          	addi	a1,a1,1
80000ea8:	01059593          	slli	a1,a1,0x10
80000eac:	0105d593          	srli	a1,a1,0x10
80000eb0:	fcf5e2e3          	bltu	a1,a5,80000e74 <main+0x4c0>
80000eb4:	03c12783          	lw	a5,60(sp)
80000eb8:	0027f713          	andi	a4,a5,2
80000ebc:	04070e63          	beqz	a4,80000f18 <main+0x564>
80000ec0:	0004a703          	lw	a4,0(s1)
80000ec4:	20070863          	beqz	a4,800010d4 <main+0x720>
80000ec8:	00000593          	li	a1,0
80000ecc:	00002417          	auipc	s0,0x2
80000ed0:	3f040413          	addi	s0,s0,1008 # 800032bc <scipat+0x270>
80000ed4:	00459793          	slli	a5,a1,0x4
80000ed8:	00b787b3          	add	a5,a5,a1
80000edc:	00279793          	slli	a5,a5,0x2
80000ee0:	01810713          	addi	a4,sp,24
80000ee4:	04878793          	addi	a5,a5,72
80000ee8:	00e787b3          	add	a5,a5,a4
80000eec:	ff87d603          	lhu	a2,-8(a5)
80000ef0:	00040513          	mv	a0,s0
80000ef4:	00b12023          	sw	a1,0(sp)
80000ef8:	741010ef          	jal	ra,80002e38 <printf>
80000efc:	00012583          	lw	a1,0(sp)
80000f00:	0004a783          	lw	a5,0(s1)
80000f04:	00158593          	addi	a1,a1,1
80000f08:	01059593          	slli	a1,a1,0x10
80000f0c:	0105d593          	srli	a1,a1,0x10
80000f10:	fcf5e2e3          	bltu	a1,a5,80000ed4 <main+0x520>
80000f14:	03c12783          	lw	a5,60(sp)
80000f18:	0047f793          	andi	a5,a5,4
80000f1c:	0004a703          	lw	a4,0(s1)
80000f20:	04078a63          	beqz	a5,80000f74 <main+0x5c0>
80000f24:	00000593          	li	a1,0
80000f28:	00002417          	auipc	s0,0x2
80000f2c:	3c440413          	addi	s0,s0,964 # 800032ec <scipat+0x2a0>
80000f30:	08070c63          	beqz	a4,80000fc8 <main+0x614>
80000f34:	00459793          	slli	a5,a1,0x4
80000f38:	00b787b3          	add	a5,a5,a1
80000f3c:	00279793          	slli	a5,a5,0x2
80000f40:	01810713          	addi	a4,sp,24
80000f44:	04878793          	addi	a5,a5,72
80000f48:	00e787b3          	add	a5,a5,a4
80000f4c:	ffa7d603          	lhu	a2,-6(a5)
80000f50:	00040513          	mv	a0,s0
80000f54:	00b12023          	sw	a1,0(sp)
80000f58:	6e1010ef          	jal	ra,80002e38 <printf>
80000f5c:	00012583          	lw	a1,0(sp)
80000f60:	0004a783          	lw	a5,0(s1)
80000f64:	00158593          	addi	a1,a1,1
80000f68:	01059593          	slli	a1,a1,0x10
80000f6c:	0105d593          	srli	a1,a1,0x10
80000f70:	fcf5e2e3          	bltu	a1,a5,80000f34 <main+0x580>
80000f74:	0004a783          	lw	a5,0(s1)
80000f78:	00000593          	li	a1,0
80000f7c:	00002417          	auipc	s0,0x2
80000f80:	38c40413          	addi	s0,s0,908 # 80003308 <scipat+0x2bc>
80000f84:	04078263          	beqz	a5,80000fc8 <main+0x614>
80000f88:	00459793          	slli	a5,a1,0x4
80000f8c:	00b787b3          	add	a5,a5,a1
80000f90:	00279793          	slli	a5,a5,0x2
80000f94:	01810713          	addi	a4,sp,24
80000f98:	04878793          	addi	a5,a5,72
80000f9c:	00e787b3          	add	a5,a5,a4
80000fa0:	ff47d603          	lhu	a2,-12(a5)
80000fa4:	00040513          	mv	a0,s0
80000fa8:	00b12023          	sw	a1,0(sp)
80000fac:	68d010ef          	jal	ra,80002e38 <printf>
80000fb0:	00012583          	lw	a1,0(sp)
80000fb4:	0004a783          	lw	a5,0(s1)
80000fb8:	00158593          	addi	a1,a1,1
80000fbc:	01059593          	slli	a1,a1,0x10
80000fc0:	0105d593          	srli	a1,a1,0x10
80000fc4:	fcf5e2e3          	bltu	a1,a5,80000f88 <main+0x5d4>
80000fc8:	00412583          	lw	a1,4(sp)
80000fcc:	00002517          	auipc	a0,0x2
80000fd0:	30c50513          	addi	a0,a0,780 # 800032d8 <scipat+0x28c>
80000fd4:	665010ef          	jal	ra,80002e38 <printf>
80000fd8:	00812783          	lw	a5,8(sp)
80000fdc:	0a078e63          	beqz	a5,80001098 <main+0x6e4>
80000fe0:	00812783          	lw	a5,8(sp)
80000fe4:	0af05263          	blez	a5,80001088 <main+0x6d4>
80000fe8:	00002517          	auipc	a0,0x2
80000fec:	3c850513          	addi	a0,a0,968 # 800033b0 <scipat+0x364>
80000ff0:	649010ef          	jal	ra,80002e38 <printf>
80000ff4:	05e10513          	addi	a0,sp,94
80000ff8:	199000ef          	jal	ra,80001990 <portable_fini>
80000ffc:	06812083          	lw	ra,104(sp)
80001000:	06412403          	lw	s0,100(sp)
80001004:	06012483          	lw	s1,96(sp)
80001008:	00000513          	li	a0,0
8000100c:	06c10113          	addi	sp,sp,108
80001010:	00008067          	ret
80001014:	01412703          	lw	a4,20(sp)
80001018:	000097b7          	lui	a5,0x9
8000101c:	a0278793          	addi	a5,a5,-1534 # 8a02 <_entry_offset+0x8a02>
80001020:	0cf70a63          	beq	a4,a5,800010f4 <main+0x740>
80001024:	0000f7b7          	lui	a5,0xf
80001028:	9f578793          	addi	a5,a5,-1547 # e9f5 <_entry_offset+0xe9f5>
8000102c:	0ef71863          	bne	a4,a5,8000111c <main+0x768>
80001030:	00002517          	auipc	a0,0x2
80001034:	0f850513          	addi	a0,a0,248 # 80003128 <scipat+0xdc>
80001038:	601010ef          	jal	ra,80002e38 <printf>
8000103c:	00300313          	li	t1,3
80001040:	b89ff06f          	j	80000bc8 <main+0x214>
80001044:	02a80633          	mul	a2,a6,a0
80001048:	00180813          	addi	a6,a6,1
8000104c:	01081813          	slli	a6,a6,0x10
80001050:	01085813          	srli	a6,a6,0x10
80001054:	00ce0633          	add	a2,t3,a2
80001058:	00c5a623          	sw	a2,12(a1)
8000105c:	a65ff06f          	j	80000ac0 <main+0x10c>
80001060:	00100693          	li	a3,1
80001064:	9ed71ae3          	bne	a4,a3,80000a58 <main+0xa4>
80001068:	02011703          	lh	a4,32(sp)
8000106c:	9e0716e3          	bnez	a4,80000a58 <main+0xa4>
80001070:	34153737          	lui	a4,0x34153
80001074:	41570713          	addi	a4,a4,1045 # 34153415 <_entry_offset+0x34153415>
80001078:	00e12e23          	sw	a4,28(sp)
8000107c:	06600713          	li	a4,102
80001080:	02e11023          	sh	a4,32(sp)
80001084:	9d5ff06f          	j	80000a58 <main+0xa4>
80001088:	00002517          	auipc	a0,0x2
8000108c:	33c50513          	addi	a0,a0,828 # 800033c4 <scipat+0x378>
80001090:	5a9010ef          	jal	ra,80002e38 <printf>
80001094:	f61ff06f          	j	80000ff4 <main+0x640>
80001098:	00002517          	auipc	a0,0x2
8000109c:	28c50513          	addi	a0,a0,652 # 80003324 <scipat+0x2d8>
800010a0:	599010ef          	jal	ra,80002e38 <printf>
800010a4:	00412503          	lw	a0,4(sp)
800010a8:	0d9000ef          	jal	ra,80001980 <time_in_secs>
800010ac:	002c97b7          	lui	a5,0x2c9
800010b0:	3b878793          	addi	a5,a5,952 # 2c93b8 <_entry_offset+0x2c93b8>
800010b4:	02a7d5b3          	divu	a1,a5,a0
800010b8:	00002517          	auipc	a0,0x2
800010bc:	2a050513          	addi	a0,a0,672 # 80003358 <scipat+0x30c>
800010c0:	579010ef          	jal	ra,80002e38 <printf>
800010c4:	00002517          	auipc	a0,0x2
800010c8:	2b450513          	addi	a0,a0,692 # 80003378 <scipat+0x32c>
800010cc:	56d010ef          	jal	ra,80002e38 <printf>
800010d0:	f25ff06f          	j	80000ff4 <main+0x640>
800010d4:	0047f793          	andi	a5,a5,4
800010d8:	e8078ee3          	beqz	a5,80000f74 <main+0x5c0>
800010dc:	eedff06f          	j	80000fc8 <main+0x614>
800010e0:	00002517          	auipc	a0,0x2
800010e4:	07850513          	addi	a0,a0,120 # 80003158 <scipat+0x10c>
800010e8:	551010ef          	jal	ra,80002e38 <printf>
800010ec:	00400313          	li	t1,4
800010f0:	ad9ff06f          	j	80000bc8 <main+0x214>
800010f4:	00002517          	auipc	a0,0x2
800010f8:	fa450513          	addi	a0,a0,-92 # 80003098 <scipat+0x4c>
800010fc:	53d010ef          	jal	ra,80002e38 <printf>
80001100:	00000313          	li	t1,0
80001104:	ac5ff06f          	j	80000bc8 <main+0x214>
80001108:	00002517          	auipc	a0,0x2
8000110c:	fc050513          	addi	a0,a0,-64 # 800030c8 <scipat+0x7c>
80001110:	529010ef          	jal	ra,80002e38 <printf>
80001114:	00100313          	li	t1,1
80001118:	ab1ff06f          	j	80000bc8 <main+0x214>
8000111c:	00010737          	lui	a4,0x10
80001120:	fff70713          	addi	a4,a4,-1 # ffff <_entry_offset+0xffff>
80001124:	00002497          	auipc	s1,0x2
80001128:	4e048493          	addi	s1,s1,1248 # 80003604 <default_num_contexts>
8000112c:	ca9ff06f          	j	80000dd4 <main+0x420>

80001130 <core_init_matrix>:
80001130:	00050813          	mv	a6,a0
80001134:	00061463          	bnez	a2,8000113c <core_init_matrix+0xc>
80001138:	00100613          	li	a2,1
8000113c:	fff58593          	addi	a1,a1,-1
80001140:	ffc5f393          	andi	t2,a1,-4
80001144:	00438a13          	addi	s4,t2,4
80001148:	00000793          	li	a5,0
8000114c:	0e080663          	beqz	a6,80001238 <core_init_matrix+0x108>
80001150:	00078513          	mv	a0,a5
80001154:	00178793          	addi	a5,a5,1
80001158:	02f78733          	mul	a4,a5,a5
8000115c:	00371713          	slli	a4,a4,0x3
80001160:	ff0768e3          	bltu	a4,a6,80001150 <core_init_matrix+0x20>
80001164:	02a50933          	mul	s2,a0,a0
80001168:	00050a93          	mv	s5,a0
8000116c:	00191913          	slli	s2,s2,0x1
80001170:	012a03b3          	add	t2,s4,s2
80001174:	0a050063          	beqz	a0,80001214 <core_init_matrix+0xe4>
80001178:	00010e37          	lui	t3,0x10
8000117c:	00000293          	li	t0,0
80001180:	00000f93          	li	t6,0
80001184:	00100f13          	li	t5,1
80001188:	407a0eb3          	sub	t4,s4,t2
8000118c:	fffe0e13          	addi	t3,t3,-1 # ffff <_entry_offset+0xffff>
80001190:	fff50993          	addi	s3,a0,-1
80001194:	00129593          	slli	a1,t0,0x1
80001198:	007585b3          	add	a1,a1,t2
8000119c:	000f0813          	mv	a6,t5
800011a0:	00000893          	li	a7,0
800011a4:	03060633          	mul	a2,a2,a6
800011a8:	01081793          	slli	a5,a6,0x10
800011ac:	0107d793          	srli	a5,a5,0x10
800011b0:	00be8333          	add	t1,t4,a1
800011b4:	00258593          	addi	a1,a1,2
800011b8:	00188893          	addi	a7,a7,1
800011bc:	00180813          	addi	a6,a6,1
800011c0:	41f65713          	srai	a4,a2,0x1f
800011c4:	01075713          	srli	a4,a4,0x10
800011c8:	00e60633          	add	a2,a2,a4
800011cc:	01c67633          	and	a2,a2,t3
800011d0:	40e60633          	sub	a2,a2,a4
800011d4:	00c78733          	add	a4,a5,a2
800011d8:	01071713          	slli	a4,a4,0x10
800011dc:	01075713          	srli	a4,a4,0x10
800011e0:	00f707b3          	add	a5,a4,a5
800011e4:	fee59f23          	sh	a4,-2(a1)
800011e8:	0ff7f793          	zext.b	a5,a5
800011ec:	00f31023          	sh	a5,0(t1)
800011f0:	faa8eae3          	bltu	a7,a0,800011a4 <core_init_matrix+0x74>
800011f4:	001f0f13          	addi	t5,t5,1
800011f8:	00000793          	li	a5,0
800011fc:	00050463          	beqz	a0,80001204 <core_init_matrix+0xd4>
80001200:	00098793          	mv	a5,s3
80001204:	001f8f93          	addi	t6,t6,1
80001208:	01e78f33          	add	t5,a5,t5
8000120c:	00a282b3          	add	t0,t0,a0
80001210:	f8afe2e3          	bltu	t6,a0,80001194 <core_init_matrix+0x64>
80001214:	012387b3          	add	a5,t2,s2
80001218:	fff78793          	addi	a5,a5,-1
8000121c:	ffc7f793          	andi	a5,a5,-4
80001220:	00478793          	addi	a5,a5,4
80001224:	0146a223          	sw	s4,4(a3)
80001228:	0076a423          	sw	t2,8(a3)
8000122c:	00f6a623          	sw	a5,12(a3)
80001230:	0156a023          	sw	s5,0(a3)
80001234:	00008067          	ret
80001238:	00638393          	addi	t2,t2,6
8000123c:	fff00a93          	li	s5,-1
80001240:	fff00513          	li	a0,-1
80001244:	00200913          	li	s2,2
80001248:	f31ff06f          	j	80001178 <core_init_matrix+0x48>

8000124c <matrix_mul_vect>:
8000124c:	04050a63          	beqz	a0,800012a0 <matrix_mul_vect+0x54>
80001250:	00251f13          	slli	t5,a0,0x2
80001254:	00151e13          	slli	t3,a0,0x1
80001258:	01e58f33          	add	t5,a1,t5
8000125c:	01c68e33          	add	t3,a3,t3
80001260:	00000e93          	li	t4,0
80001264:	001e9813          	slli	a6,t4,0x1
80001268:	01060833          	add	a6,a2,a6
8000126c:	00068793          	mv	a5,a3
80001270:	00000893          	li	a7,0
80001274:	00081703          	lh	a4,0(a6)
80001278:	00079303          	lh	t1,0(a5)
8000127c:	00278793          	addi	a5,a5,2
80001280:	00280813          	addi	a6,a6,2
80001284:	02670733          	mul	a4,a4,t1
80001288:	00e888b3          	add	a7,a7,a4
8000128c:	fefe14e3          	bne	t3,a5,80001274 <matrix_mul_vect+0x28>
80001290:	0115a023          	sw	a7,0(a1)
80001294:	00458593          	addi	a1,a1,4
80001298:	00ae8eb3          	add	t4,t4,a0
8000129c:	fcbf14e3          	bne	t5,a1,80001264 <matrix_mul_vect+0x18>
800012a0:	00008067          	ret

800012a4 <matrix_mul_matrix>:
800012a4:	00050f13          	mv	t5,a0
800012a8:	00058393          	mv	t2,a1
800012ac:	00068913          	mv	s2,a3
800012b0:	08050463          	beqz	a0,80001338 <matrix_mul_matrix+0x94>
800012b4:	00151513          	slli	a0,a0,0x1
800012b8:	00060e93          	mv	t4,a2
800012bc:	00a60833          	add	a6,a2,a0
800012c0:	00000f93          	li	t6,0
800012c4:	00000293          	li	t0,0
800012c8:	002f9893          	slli	a7,t6,0x2
800012cc:	011388b3          	add	a7,t2,a7
800012d0:	00090313          	mv	t1,s2
800012d4:	00000e13          	li	t3,0
800012d8:	00030693          	mv	a3,t1
800012dc:	000e8793          	mv	a5,t4
800012e0:	00000613          	li	a2,0
800012e4:	00079703          	lh	a4,0(a5)
800012e8:	00069583          	lh	a1,0(a3)
800012ec:	00278793          	addi	a5,a5,2
800012f0:	00a686b3          	add	a3,a3,a0
800012f4:	02b70733          	mul	a4,a4,a1
800012f8:	00e60633          	add	a2,a2,a4
800012fc:	fef814e3          	bne	a6,a5,800012e4 <matrix_mul_matrix+0x40>
80001300:	00c8a023          	sw	a2,0(a7)
80001304:	001e0793          	addi	a5,t3,1
80001308:	00488893          	addi	a7,a7,4
8000130c:	00230313          	addi	t1,t1,2
80001310:	00ff0663          	beq	t5,a5,8000131c <matrix_mul_matrix+0x78>
80001314:	00078e13          	mv	t3,a5
80001318:	fc1ff06f          	j	800012d8 <matrix_mul_matrix+0x34>
8000131c:	00128793          	addi	a5,t0,1
80001320:	00ae8eb3          	add	t4,t4,a0
80001324:	01ef8fb3          	add	t6,t6,t5
80001328:	00a80833          	add	a6,a6,a0
8000132c:	01c28663          	beq	t0,t3,80001338 <matrix_mul_matrix+0x94>
80001330:	00078293          	mv	t0,a5
80001334:	f95ff06f          	j	800012c8 <matrix_mul_matrix+0x24>
80001338:	00008067          	ret

8000133c <matrix_mul_matrix_bitextract>:
8000133c:	00050f13          	mv	t5,a0
80001340:	00058393          	mv	t2,a1
80001344:	00068913          	mv	s2,a3
80001348:	08050e63          	beqz	a0,800013e4 <matrix_mul_matrix_bitextract+0xa8>
8000134c:	00151513          	slli	a0,a0,0x1
80001350:	00060e93          	mv	t4,a2
80001354:	00a60833          	add	a6,a2,a0
80001358:	00000f93          	li	t6,0
8000135c:	00000293          	li	t0,0
80001360:	002f9893          	slli	a7,t6,0x2
80001364:	011388b3          	add	a7,t2,a7
80001368:	00090313          	mv	t1,s2
8000136c:	00000e13          	li	t3,0
80001370:	00030613          	mv	a2,t1
80001374:	000e8693          	mv	a3,t4
80001378:	00000593          	li	a1,0
8000137c:	00061703          	lh	a4,0(a2)
80001380:	00069783          	lh	a5,0(a3)
80001384:	00268693          	addi	a3,a3,2
80001388:	00a60633          	add	a2,a2,a0
8000138c:	02e787b3          	mul	a5,a5,a4
80001390:	4027d713          	srai	a4,a5,0x2
80001394:	4057d793          	srai	a5,a5,0x5
80001398:	00f77713          	andi	a4,a4,15
8000139c:	07f7f793          	andi	a5,a5,127
800013a0:	02f707b3          	mul	a5,a4,a5
800013a4:	00f585b3          	add	a1,a1,a5
800013a8:	fcd81ae3          	bne	a6,a3,8000137c <matrix_mul_matrix_bitextract+0x40>
800013ac:	00b8a023          	sw	a1,0(a7)
800013b0:	001e0793          	addi	a5,t3,1
800013b4:	00488893          	addi	a7,a7,4
800013b8:	00230313          	addi	t1,t1,2
800013bc:	00ff0663          	beq	t5,a5,800013c8 <matrix_mul_matrix_bitextract+0x8c>
800013c0:	00078e13          	mv	t3,a5
800013c4:	fadff06f          	j	80001370 <matrix_mul_matrix_bitextract+0x34>
800013c8:	00128793          	addi	a5,t0,1
800013cc:	00ae8eb3          	add	t4,t4,a0
800013d0:	01ef8fb3          	add	t6,t6,t5
800013d4:	00a80833          	add	a6,a6,a0
800013d8:	01c28663          	beq	t0,t3,800013e4 <matrix_mul_matrix_bitextract+0xa8>
800013dc:	00078293          	mv	t0,a5
800013e0:	f81ff06f          	j	80001360 <matrix_mul_matrix_bitextract+0x24>
800013e4:	00008067          	ret

800013e8 <matrix_test>:
800013e8:	fd010113          	addi	sp,sp,-48
800013ec:	02812423          	sw	s0,40(sp)
800013f0:	fffff837          	lui	a6,0xfffff
800013f4:	02112623          	sw	ra,44(sp)
800013f8:	02912223          	sw	s1,36(sp)
800013fc:	00d12023          	sw	a3,0(sp)
80001400:	00058413          	mv	s0,a1
80001404:	01076833          	or	a6,a4,a6
80001408:	3e050a63          	beqz	a0,800017fc <matrix_test+0x414>
8000140c:	00151393          	slli	t2,a0,0x1
80001410:	00c38f33          	add	t5,t2,a2
80001414:	40a00eb3          	neg	t4,a0
80001418:	01071893          	slli	a7,a4,0x10
8000141c:	00050293          	mv	t0,a0
80001420:	0108d893          	srli	a7,a7,0x10
80001424:	000f0593          	mv	a1,t5
80001428:	00000e13          	li	t3,0
8000142c:	002e9e93          	slli	t4,t4,0x2
80001430:	40758fb3          	sub	t6,a1,t2
80001434:	000f8793          	mv	a5,t6
80001438:	0007d683          	lhu	a3,0(a5)
8000143c:	00278793          	addi	a5,a5,2
80001440:	00d886b3          	add	a3,a7,a3
80001444:	fed79f23          	sh	a3,-2(a5)
80001448:	feb798e3          	bne	a5,a1,80001438 <matrix_test+0x50>
8000144c:	001e0493          	addi	s1,t3,1
80001450:	41df85b3          	sub	a1,t6,t4
80001454:	00928663          	beq	t0,s1,80001460 <matrix_test+0x78>
80001458:	00048e13          	mv	t3,s1
8000145c:	fd5ff06f          	j	80001430 <matrix_test+0x48>
80001460:	00000513          	li	a0,0
80001464:	00000293          	li	t0,0
80001468:	407f0fb3          	sub	t6,t5,t2
8000146c:	00251593          	slli	a1,a0,0x2
80001470:	008585b3          	add	a1,a1,s0
80001474:	000f8793          	mv	a5,t6
80001478:	00079683          	lh	a3,0(a5)
8000147c:	00458593          	addi	a1,a1,4
80001480:	00278793          	addi	a5,a5,2
80001484:	02e686b3          	mul	a3,a3,a4
80001488:	fed5ae23          	sw	a3,-4(a1)
8000148c:	ffe796e3          	bne	a5,t5,80001478 <matrix_test+0x90>
80001490:	00128793          	addi	a5,t0,1
80001494:	00950533          	add	a0,a0,s1
80001498:	41df8f33          	sub	t5,t6,t4
8000149c:	01c28663          	beq	t0,t3,800014a8 <matrix_test+0xc0>
800014a0:	00078293          	mv	t0,a5
800014a4:	fc5ff06f          	j	80001468 <matrix_test+0x80>
800014a8:	41d40f33          	sub	t5,s0,t4
800014ac:	40900fb3          	neg	t6,s1
800014b0:	000f0393          	mv	t2,t5
800014b4:	00000513          	li	a0,0
800014b8:	00000713          	li	a4,0
800014bc:	00000593          	li	a1,0
800014c0:	00000993          	li	s3,0
800014c4:	003f9f93          	slli	t6,t6,0x3
800014c8:	01d38933          	add	s2,t2,t4
800014cc:	00090793          	mv	a5,s2
800014d0:	0180006f          	j	800014e8 <matrix_test+0x100>
800014d4:	01029513          	slli	a0,t0,0x10
800014d8:	00478793          	addi	a5,a5,4
800014dc:	41055513          	srai	a0,a0,0x10
800014e0:	00000593          	li	a1,0
800014e4:	02f38c63          	beq	t2,a5,8000151c <matrix_test+0x134>
800014e8:	00070693          	mv	a3,a4
800014ec:	0007a703          	lw	a4,0(a5)
800014f0:	01051513          	slli	a0,a0,0x10
800014f4:	01055513          	srli	a0,a0,0x10
800014f8:	00e6a6b3          	slt	a3,a3,a4
800014fc:	00e585b3          	add	a1,a1,a4
80001500:	00a50293          	addi	t0,a0,10
80001504:	00d50533          	add	a0,a0,a3
80001508:	fcb846e3          	blt	a6,a1,800014d4 <matrix_test+0xec>
8000150c:	01051513          	slli	a0,a0,0x10
80001510:	00478793          	addi	a5,a5,4
80001514:	41055513          	srai	a0,a0,0x10
80001518:	fcf398e3          	bne	t2,a5,800014e8 <matrix_test+0x100>
8000151c:	00198793          	addi	a5,s3,1
80001520:	41f903b3          	sub	t2,s2,t6
80001524:	01c98663          	beq	s3,t3,80001530 <matrix_test+0x148>
80001528:	00078993          	mv	s3,a5
8000152c:	f9dff06f          	j	800014c8 <matrix_test+0xe0>
80001530:	00000593          	li	a1,0
80001534:	03f12023          	sw	t6,32(sp)
80001538:	01d12e23          	sw	t4,28(sp)
8000153c:	01112c23          	sw	a7,24(sp)
80001540:	01c12a23          	sw	t3,20(sp)
80001544:	01e12823          	sw	t5,16(sp)
80001548:	01012623          	sw	a6,12(sp)
8000154c:	00c12223          	sw	a2,4(sp)
80001550:	b48ff0ef          	jal	ra,80000898 <crc16>
80001554:	00412603          	lw	a2,4(sp)
80001558:	00012683          	lw	a3,0(sp)
8000155c:	00050a13          	mv	s4,a0
80001560:	00040593          	mv	a1,s0
80001564:	00048513          	mv	a0,s1
80001568:	00c12423          	sw	a2,8(sp)
8000156c:	01412223          	sw	s4,4(sp)
80001570:	cddff0ef          	jal	ra,8000124c <matrix_mul_vect>
80001574:	00412a03          	lw	s4,4(sp)
80001578:	00812603          	lw	a2,8(sp)
8000157c:	00c12803          	lw	a6,12(sp)
80001580:	01012f03          	lw	t5,16(sp)
80001584:	01412e03          	lw	t3,20(sp)
80001588:	01812883          	lw	a7,24(sp)
8000158c:	01c12e83          	lw	t4,28(sp)
80001590:	02012f83          	lw	t6,32(sp)
80001594:	00000513          	li	a0,0
80001598:	00000713          	li	a4,0
8000159c:	00000293          	li	t0,0
800015a0:	00000993          	li	s3,0
800015a4:	01df0933          	add	s2,t5,t4
800015a8:	00090793          	mv	a5,s2
800015ac:	0180006f          	j	800015c4 <matrix_test+0x1dc>
800015b0:	01039513          	slli	a0,t2,0x10
800015b4:	00478793          	addi	a5,a5,4
800015b8:	41055513          	srai	a0,a0,0x10
800015bc:	00000293          	li	t0,0
800015c0:	02ff0c63          	beq	t5,a5,800015f8 <matrix_test+0x210>
800015c4:	00070693          	mv	a3,a4
800015c8:	0007a703          	lw	a4,0(a5)
800015cc:	01051513          	slli	a0,a0,0x10
800015d0:	01055513          	srli	a0,a0,0x10
800015d4:	00e6a6b3          	slt	a3,a3,a4
800015d8:	00e282b3          	add	t0,t0,a4
800015dc:	00a50393          	addi	t2,a0,10
800015e0:	00d50533          	add	a0,a0,a3
800015e4:	fc5846e3          	blt	a6,t0,800015b0 <matrix_test+0x1c8>
800015e8:	01051513          	slli	a0,a0,0x10
800015ec:	00478793          	addi	a5,a5,4
800015f0:	41055513          	srai	a0,a0,0x10
800015f4:	fcff18e3          	bne	t5,a5,800015c4 <matrix_test+0x1dc>
800015f8:	00198793          	addi	a5,s3,1
800015fc:	41f90f33          	sub	t5,s2,t6
80001600:	01c98663          	beq	s3,t3,8000160c <matrix_test+0x224>
80001604:	00078993          	mv	s3,a5
80001608:	f9dff06f          	j	800015a4 <matrix_test+0x1bc>
8000160c:	000a0593          	mv	a1,s4
80001610:	01112823          	sw	a7,16(sp)
80001614:	01012623          	sw	a6,12(sp)
80001618:	00c12223          	sw	a2,4(sp)
8000161c:	a7cff0ef          	jal	ra,80000898 <crc16>
80001620:	00412603          	lw	a2,4(sp)
80001624:	00012683          	lw	a3,0(sp)
80001628:	00050393          	mv	t2,a0
8000162c:	00040593          	mv	a1,s0
80001630:	00048513          	mv	a0,s1
80001634:	00c12423          	sw	a2,8(sp)
80001638:	00712223          	sw	t2,4(sp)
8000163c:	c69ff0ef          	jal	ra,800012a4 <matrix_mul_matrix>
80001640:	00412383          	lw	t2,4(sp)
80001644:	00812603          	lw	a2,8(sp)
80001648:	00c12803          	lw	a6,12(sp)
8000164c:	01012883          	lw	a7,16(sp)
80001650:	00000293          	li	t0,0
80001654:	00000513          	li	a0,0
80001658:	00000793          	li	a5,0
8000165c:	00000693          	li	a3,0
80001660:	00000f93          	li	t6,0
80001664:	00229e13          	slli	t3,t0,0x2
80001668:	01c40e33          	add	t3,s0,t3
8000166c:	00000e93          	li	t4,0
80001670:	01c0006f          	j	8000168c <matrix_test+0x2a4>
80001674:	010f1513          	slli	a0,t5,0x10
80001678:	001e8e93          	addi	t4,t4,1
8000167c:	41055513          	srai	a0,a0,0x10
80001680:	00000693          	li	a3,0
80001684:	004e0e13          	addi	t3,t3,4
80001688:	029efe63          	bgeu	t4,s1,800016c4 <matrix_test+0x2dc>
8000168c:	00078713          	mv	a4,a5
80001690:	000e2783          	lw	a5,0(t3)
80001694:	01051513          	slli	a0,a0,0x10
80001698:	01055513          	srli	a0,a0,0x10
8000169c:	00f72733          	slt	a4,a4,a5
800016a0:	00f686b3          	add	a3,a3,a5
800016a4:	00a50f13          	addi	t5,a0,10
800016a8:	00e50533          	add	a0,a0,a4
800016ac:	fcd844e3          	blt	a6,a3,80001674 <matrix_test+0x28c>
800016b0:	01051513          	slli	a0,a0,0x10
800016b4:	001e8e93          	addi	t4,t4,1
800016b8:	41055513          	srai	a0,a0,0x10
800016bc:	004e0e13          	addi	t3,t3,4
800016c0:	fc9ee6e3          	bltu	t4,s1,8000168c <matrix_test+0x2a4>
800016c4:	001f8f93          	addi	t6,t6,1
800016c8:	009282b3          	add	t0,t0,s1
800016cc:	f89fece3          	bltu	t6,s1,80001664 <matrix_test+0x27c>
800016d0:	00038593          	mv	a1,t2
800016d4:	01112623          	sw	a7,12(sp)
800016d8:	01012423          	sw	a6,8(sp)
800016dc:	00c12223          	sw	a2,4(sp)
800016e0:	9b8ff0ef          	jal	ra,80000898 <crc16>
800016e4:	00012683          	lw	a3,0(sp)
800016e8:	00412603          	lw	a2,4(sp)
800016ec:	00050313          	mv	t1,a0
800016f0:	00040593          	mv	a1,s0
800016f4:	00048513          	mv	a0,s1
800016f8:	00612023          	sw	t1,0(sp)
800016fc:	c41ff0ef          	jal	ra,8000133c <matrix_mul_matrix_bitextract>
80001700:	00012303          	lw	t1,0(sp)
80001704:	00412603          	lw	a2,4(sp)
80001708:	00812803          	lw	a6,8(sp)
8000170c:	00c12883          	lw	a7,12(sp)
80001710:	00000293          	li	t0,0
80001714:	00000513          	li	a0,0
80001718:	00000793          	li	a5,0
8000171c:	00000693          	li	a3,0
80001720:	00000f93          	li	t6,0
80001724:	00229e13          	slli	t3,t0,0x2
80001728:	01c40e33          	add	t3,s0,t3
8000172c:	00000e93          	li	t4,0
80001730:	01c0006f          	j	8000174c <matrix_test+0x364>
80001734:	010f1513          	slli	a0,t5,0x10
80001738:	001e8e93          	addi	t4,t4,1
8000173c:	41055513          	srai	a0,a0,0x10
80001740:	00000693          	li	a3,0
80001744:	004e0e13          	addi	t3,t3,4
80001748:	029efe63          	bgeu	t4,s1,80001784 <matrix_test+0x39c>
8000174c:	00078713          	mv	a4,a5
80001750:	000e2783          	lw	a5,0(t3)
80001754:	01051513          	slli	a0,a0,0x10
80001758:	01055513          	srli	a0,a0,0x10
8000175c:	00f72733          	slt	a4,a4,a5
80001760:	00f686b3          	add	a3,a3,a5
80001764:	00a50f13          	addi	t5,a0,10
80001768:	00e50533          	add	a0,a0,a4
8000176c:	fcd844e3          	blt	a6,a3,80001734 <matrix_test+0x34c>
80001770:	01051513          	slli	a0,a0,0x10
80001774:	001e8e93          	addi	t4,t4,1
80001778:	41055513          	srai	a0,a0,0x10
8000177c:	004e0e13          	addi	t3,t3,4
80001780:	fc9ee6e3          	bltu	t4,s1,8000174c <matrix_test+0x364>
80001784:	001f8f93          	addi	t6,t6,1
80001788:	009282b3          	add	t0,t0,s1
8000178c:	f89fece3          	bltu	t6,s1,80001724 <matrix_test+0x33c>
80001790:	00030593          	mv	a1,t1
80001794:	00c12223          	sw	a2,4(sp)
80001798:	01112023          	sw	a7,0(sp)
8000179c:	8fcff0ef          	jal	ra,80000898 <crc16>
800017a0:	00012883          	lw	a7,0(sp)
800017a4:	00412603          	lw	a2,4(sp)
800017a8:	00000813          	li	a6,0
800017ac:	00000593          	li	a1,0
800017b0:	00181793          	slli	a5,a6,0x1
800017b4:	00f607b3          	add	a5,a2,a5
800017b8:	00000693          	li	a3,0
800017bc:	0007d703          	lhu	a4,0(a5)
800017c0:	00278793          	addi	a5,a5,2
800017c4:	00168693          	addi	a3,a3,1
800017c8:	41170733          	sub	a4,a4,a7
800017cc:	fee79f23          	sh	a4,-2(a5)
800017d0:	fe96e6e3          	bltu	a3,s1,800017bc <matrix_test+0x3d4>
800017d4:	00158593          	addi	a1,a1,1
800017d8:	00980833          	add	a6,a6,s1
800017dc:	fc95eae3          	bltu	a1,s1,800017b0 <matrix_test+0x3c8>
800017e0:	02c12083          	lw	ra,44(sp)
800017e4:	02812403          	lw	s0,40(sp)
800017e8:	01051513          	slli	a0,a0,0x10
800017ec:	02412483          	lw	s1,36(sp)
800017f0:	41055513          	srai	a0,a0,0x10
800017f4:	03010113          	addi	sp,sp,48
800017f8:	00008067          	ret
800017fc:	00000593          	li	a1,0
80001800:	00c12223          	sw	a2,4(sp)
80001804:	894ff0ef          	jal	ra,80000898 <crc16>
80001808:	00012683          	lw	a3,0(sp)
8000180c:	00412603          	lw	a2,4(sp)
80001810:	00050493          	mv	s1,a0
80001814:	00040593          	mv	a1,s0
80001818:	00000513          	li	a0,0
8000181c:	a31ff0ef          	jal	ra,8000124c <matrix_mul_vect>
80001820:	00048593          	mv	a1,s1
80001824:	00000513          	li	a0,0
80001828:	870ff0ef          	jal	ra,80000898 <crc16>
8000182c:	00012683          	lw	a3,0(sp)
80001830:	00412603          	lw	a2,4(sp)
80001834:	00050493          	mv	s1,a0
80001838:	00040593          	mv	a1,s0
8000183c:	00000513          	li	a0,0
80001840:	a65ff0ef          	jal	ra,800012a4 <matrix_mul_matrix>
80001844:	00048593          	mv	a1,s1
80001848:	00000513          	li	a0,0
8000184c:	84cff0ef          	jal	ra,80000898 <crc16>
80001850:	00012683          	lw	a3,0(sp)
80001854:	00412603          	lw	a2,4(sp)
80001858:	00050793          	mv	a5,a0
8000185c:	00040593          	mv	a1,s0
80001860:	00000513          	li	a0,0
80001864:	00078493          	mv	s1,a5
80001868:	ad5ff0ef          	jal	ra,8000133c <matrix_mul_matrix_bitextract>
8000186c:	00048593          	mv	a1,s1
80001870:	00000513          	li	a0,0
80001874:	824ff0ef          	jal	ra,80000898 <crc16>
80001878:	02c12083          	lw	ra,44(sp)
8000187c:	02812403          	lw	s0,40(sp)
80001880:	01051513          	slli	a0,a0,0x10
80001884:	02412483          	lw	s1,36(sp)
80001888:	41055513          	srai	a0,a0,0x10
8000188c:	03010113          	addi	sp,sp,48
80001890:	00008067          	ret

80001894 <core_bench_matrix>:
80001894:	ff810113          	addi	sp,sp,-8
80001898:	00812023          	sw	s0,0(sp)
8000189c:	00852683          	lw	a3,8(a0)
800018a0:	00060413          	mv	s0,a2
800018a4:	00058713          	mv	a4,a1
800018a8:	00452603          	lw	a2,4(a0)
800018ac:	00c52583          	lw	a1,12(a0)
800018b0:	00052503          	lw	a0,0(a0)
800018b4:	00112223          	sw	ra,4(sp)
800018b8:	b31ff0ef          	jal	ra,800013e8 <matrix_test>
800018bc:	00040593          	mv	a1,s0
800018c0:	00012403          	lw	s0,0(sp)
800018c4:	00412083          	lw	ra,4(sp)
800018c8:	00810113          	addi	sp,sp,8
800018cc:	fcdfe06f          	j	80000898 <crc16>

800018d0 <start_time>:
800018d0:	fec10113          	addi	sp,sp,-20
800018d4:	00812623          	sw	s0,12(sp)
800018d8:	00710413          	addi	s0,sp,7
800018dc:	ff847413          	andi	s0,s0,-8
800018e0:	00040593          	mv	a1,s0
800018e4:	00600513          	li	a0,6
800018e8:	00112823          	sw	ra,16(sp)
800018ec:	0e1000ef          	jal	ra,800021cc <ioe_read>
800018f0:	00042503          	lw	a0,0(s0)
800018f4:	00442583          	lw	a1,4(s0)
800018f8:	3e800613          	li	a2,1000
800018fc:	00000693          	li	a3,0
80001900:	635000ef          	jal	ra,80002734 <__udivdi3>
80001904:	01012083          	lw	ra,16(sp)
80001908:	00c12403          	lw	s0,12(sp)
8000190c:	00002797          	auipc	a5,0x2
80001910:	6ea7a023          	sw	a0,1760(a5) # 80003fec <start_time_val>
80001914:	01410113          	addi	sp,sp,20
80001918:	00008067          	ret

8000191c <stop_time>:
8000191c:	fec10113          	addi	sp,sp,-20
80001920:	00812623          	sw	s0,12(sp)
80001924:	00710413          	addi	s0,sp,7
80001928:	ff847413          	andi	s0,s0,-8
8000192c:	00040593          	mv	a1,s0
80001930:	00600513          	li	a0,6
80001934:	00112823          	sw	ra,16(sp)
80001938:	095000ef          	jal	ra,800021cc <ioe_read>
8000193c:	00042503          	lw	a0,0(s0)
80001940:	00442583          	lw	a1,4(s0)
80001944:	3e800613          	li	a2,1000
80001948:	00000693          	li	a3,0
8000194c:	5e9000ef          	jal	ra,80002734 <__udivdi3>
80001950:	01012083          	lw	ra,16(sp)
80001954:	00c12403          	lw	s0,12(sp)
80001958:	00002797          	auipc	a5,0x2
8000195c:	68a7ac23          	sw	a0,1688(a5) # 80003ff0 <stop_time_val>
80001960:	01410113          	addi	sp,sp,20
80001964:	00008067          	ret

80001968 <get_time>:
80001968:	00002517          	auipc	a0,0x2
8000196c:	68852503          	lw	a0,1672(a0) # 80003ff0 <stop_time_val>
80001970:	00002797          	auipc	a5,0x2
80001974:	67c7a783          	lw	a5,1660(a5) # 80003fec <start_time_val>
80001978:	40f50533          	sub	a0,a0,a5
8000197c:	00008067          	ret

80001980 <time_in_secs>:
80001980:	00008067          	ret

80001984 <portable_init>:
80001984:	00100793          	li	a5,1
80001988:	00f50023          	sb	a5,0(a0)
8000198c:	00008067          	ret

80001990 <portable_fini>:
80001990:	00050023          	sb	zero,0(a0)
80001994:	00008067          	ret

80001998 <cmp_idx>:
80001998:	00060a63          	beqz	a2,800019ac <cmp_idx+0x14>
8000199c:	00251503          	lh	a0,2(a0)
800019a0:	00259783          	lh	a5,2(a1)
800019a4:	40f50533          	sub	a0,a0,a5
800019a8:	00008067          	ret
800019ac:	00051783          	lh	a5,0(a0)
800019b0:	01079713          	slli	a4,a5,0x10
800019b4:	01075713          	srli	a4,a4,0x10
800019b8:	00875713          	srli	a4,a4,0x8
800019bc:	f007f793          	andi	a5,a5,-256
800019c0:	00e7e7b3          	or	a5,a5,a4
800019c4:	00f51023          	sh	a5,0(a0)
800019c8:	00059783          	lh	a5,0(a1)
800019cc:	00251503          	lh	a0,2(a0)
800019d0:	01079713          	slli	a4,a5,0x10
800019d4:	01075713          	srli	a4,a4,0x10
800019d8:	00875713          	srli	a4,a4,0x8
800019dc:	f007f793          	andi	a5,a5,-256
800019e0:	00e7e7b3          	or	a5,a5,a4
800019e4:	00f59023          	sh	a5,0(a1)
800019e8:	00259783          	lh	a5,2(a1)
800019ec:	40f50533          	sub	a0,a0,a5
800019f0:	00008067          	ret

800019f4 <calc_func>:
800019f4:	fec10113          	addi	sp,sp,-20
800019f8:	00812623          	sw	s0,12(sp)
800019fc:	00051403          	lh	s0,0(a0)
80001a00:	00112823          	sw	ra,16(sp)
80001a04:	00912423          	sw	s1,8(sp)
80001a08:	40745793          	srai	a5,s0,0x7
80001a0c:	0017f793          	andi	a5,a5,1
80001a10:	00078e63          	beqz	a5,80001a2c <calc_func+0x38>
80001a14:	01012083          	lw	ra,16(sp)
80001a18:	07f47513          	andi	a0,s0,127
80001a1c:	00c12403          	lw	s0,12(sp)
80001a20:	00812483          	lw	s1,8(sp)
80001a24:	01410113          	addi	sp,sp,20
80001a28:	00008067          	ret
80001a2c:	40345713          	srai	a4,s0,0x3
80001a30:	00f77713          	andi	a4,a4,15
80001a34:	00058813          	mv	a6,a1
80001a38:	00747693          	andi	a3,s0,7
80001a3c:	00471593          	slli	a1,a4,0x4
80001a40:	03885783          	lhu	a5,56(a6) # fffff038 <_end+0x7fff3038>
80001a44:	00050493          	mv	s1,a0
80001a48:	00e5e5b3          	or	a1,a1,a4
80001a4c:	04068e63          	beqz	a3,80001aa8 <calc_func+0xb4>
80001a50:	00100713          	li	a4,1
80001a54:	0ae68263          	beq	a3,a4,80001af8 <calc_func+0x104>
80001a58:	01041513          	slli	a0,s0,0x10
80001a5c:	01055513          	srli	a0,a0,0x10
80001a60:	00812223          	sw	s0,4(sp)
80001a64:	00078593          	mv	a1,a5
80001a68:	01012023          	sw	a6,0(sp)
80001a6c:	c9dfe0ef          	jal	ra,80000708 <crcu16>
80001a70:	00412703          	lw	a4,4(sp)
80001a74:	00012803          	lw	a6,0(sp)
80001a78:	00050793          	mv	a5,a0
80001a7c:	f0047413          	andi	s0,s0,-256
80001a80:	07f77513          	andi	a0,a4,127
80001a84:	00856433          	or	s0,a0,s0
80001a88:	02f81c23          	sh	a5,56(a6)
80001a8c:	08046413          	ori	s0,s0,128
80001a90:	00849023          	sh	s0,0(s1)
80001a94:	01012083          	lw	ra,16(sp)
80001a98:	00c12403          	lw	s0,12(sp)
80001a9c:	00812483          	lw	s1,8(sp)
80001aa0:	01410113          	addi	sp,sp,20
80001aa4:	00008067          	ret
80001aa8:	02200693          	li	a3,34
80001aac:	00058713          	mv	a4,a1
80001ab0:	00d5d463          	bge	a1,a3,80001ab8 <calc_func+0xc4>
80001ab4:	02200713          	li	a4,34
80001ab8:	00281683          	lh	a3,2(a6)
80001abc:	00081603          	lh	a2,0(a6)
80001ac0:	01482583          	lw	a1,20(a6)
80001ac4:	01882503          	lw	a0,24(a6)
80001ac8:	0ff77713          	zext.b	a4,a4
80001acc:	01012023          	sw	a6,0(sp)
80001ad0:	a25fe0ef          	jal	ra,800004f4 <core_bench_state>
80001ad4:	00012803          	lw	a6,0(sp)
80001ad8:	01051713          	slli	a4,a0,0x10
80001adc:	41075713          	srai	a4,a4,0x10
80001ae0:	03e85783          	lhu	a5,62(a6)
80001ae4:	00e12223          	sw	a4,4(sp)
80001ae8:	04079263          	bnez	a5,80001b2c <calc_func+0x138>
80001aec:	03885783          	lhu	a5,56(a6)
80001af0:	02a81f23          	sh	a0,62(a6)
80001af4:	f71ff06f          	j	80001a64 <calc_func+0x70>
80001af8:	00078613          	mv	a2,a5
80001afc:	02880513          	addi	a0,a6,40
80001b00:	01012023          	sw	a6,0(sp)
80001b04:	d91ff0ef          	jal	ra,80001894 <core_bench_matrix>
80001b08:	00012803          	lw	a6,0(sp)
80001b0c:	01051713          	slli	a4,a0,0x10
80001b10:	41075713          	srai	a4,a4,0x10
80001b14:	03c85783          	lhu	a5,60(a6)
80001b18:	00e12223          	sw	a4,4(sp)
80001b1c:	00079863          	bnez	a5,80001b2c <calc_func+0x138>
80001b20:	03885783          	lhu	a5,56(a6)
80001b24:	02a81e23          	sh	a0,60(a6)
80001b28:	f3dff06f          	j	80001a64 <calc_func+0x70>
80001b2c:	03885783          	lhu	a5,56(a6)
80001b30:	f35ff06f          	j	80001a64 <calc_func+0x70>

80001b34 <cmp_complex>:
80001b34:	ff410113          	addi	sp,sp,-12
80001b38:	00912023          	sw	s1,0(sp)
80001b3c:	00058493          	mv	s1,a1
80001b40:	00060593          	mv	a1,a2
80001b44:	00112423          	sw	ra,8(sp)
80001b48:	00812223          	sw	s0,4(sp)
80001b4c:	00060413          	mv	s0,a2
80001b50:	ea5ff0ef          	jal	ra,800019f4 <calc_func>
80001b54:	00050793          	mv	a5,a0
80001b58:	00040593          	mv	a1,s0
80001b5c:	00048513          	mv	a0,s1
80001b60:	00078413          	mv	s0,a5
80001b64:	e91ff0ef          	jal	ra,800019f4 <calc_func>
80001b68:	00812083          	lw	ra,8(sp)
80001b6c:	40a40533          	sub	a0,s0,a0
80001b70:	00412403          	lw	s0,4(sp)
80001b74:	00012483          	lw	s1,0(sp)
80001b78:	00c10113          	addi	sp,sp,12
80001b7c:	00008067          	ret

80001b80 <core_list_mergesort>:
80001b80:	fd410113          	addi	sp,sp,-44
80001b84:	02812223          	sw	s0,36(sp)
80001b88:	02912023          	sw	s1,32(sp)
80001b8c:	02112423          	sw	ra,40(sp)
80001b90:	00050413          	mv	s0,a0
80001b94:	00b12c23          	sw	a1,24(sp)
80001b98:	00100493          	li	s1,1
80001b9c:	0e040c63          	beqz	s0,80001c94 <core_list_mergesort+0x114>
80001ba0:	00012e23          	sw	zero,28(sp)
80001ba4:	00000813          	li	a6,0
80001ba8:	00012a23          	sw	zero,20(sp)
80001bac:	01c12783          	lw	a5,28(sp)
80001bb0:	00040713          	mv	a4,s0
80001bb4:	00178793          	addi	a5,a5,1
80001bb8:	00f12e23          	sw	a5,28(sp)
80001bbc:	00000793          	li	a5,0
80001bc0:	00072703          	lw	a4,0(a4)
80001bc4:	00178793          	addi	a5,a5,1
80001bc8:	00070463          	beqz	a4,80001bd0 <core_list_mergesort+0x50>
80001bcc:	fef49ae3          	bne	s1,a5,80001bc0 <core_list_mergesort+0x40>
80001bd0:	00040313          	mv	t1,s0
80001bd4:	00048893          	mv	a7,s1
80001bd8:	00070413          	mv	s0,a4
80001bdc:	06078263          	beqz	a5,80001c40 <core_list_mergesort+0xc0>
80001be0:	08088263          	beqz	a7,80001c64 <core_list_mergesort+0xe4>
80001be4:	08040063          	beqz	s0,80001c64 <core_list_mergesort+0xe4>
80001be8:	00432503          	lw	a0,4(t1)
80001bec:	00f12623          	sw	a5,12(sp)
80001bf0:	00442583          	lw	a1,4(s0)
80001bf4:	01812783          	lw	a5,24(sp)
80001bf8:	01112823          	sw	a7,16(sp)
80001bfc:	01012423          	sw	a6,8(sp)
80001c00:	00612223          	sw	t1,4(sp)
80001c04:	00c12023          	sw	a2,0(sp)
80001c08:	000780e7          	jalr	a5
80001c0c:	00012603          	lw	a2,0(sp)
80001c10:	00412303          	lw	t1,4(sp)
80001c14:	00812803          	lw	a6,8(sp)
80001c18:	00c12783          	lw	a5,12(sp)
80001c1c:	01012883          	lw	a7,16(sp)
80001c20:	04a05263          	blez	a0,80001c64 <core_list_mergesort+0xe4>
80001c24:	00040713          	mv	a4,s0
80001c28:	00042403          	lw	s0,0(s0)
80001c2c:	fff88893          	addi	a7,a7,-1
80001c30:	02080463          	beqz	a6,80001c58 <core_list_mergesort+0xd8>
80001c34:	00e82023          	sw	a4,0(a6)
80001c38:	00070813          	mv	a6,a4
80001c3c:	fa0792e3          	bnez	a5,80001be0 <core_list_mergesort+0x60>
80001c40:	02088a63          	beqz	a7,80001c74 <core_list_mergesort+0xf4>
80001c44:	02040a63          	beqz	s0,80001c78 <core_list_mergesort+0xf8>
80001c48:	00040713          	mv	a4,s0
80001c4c:	fff88893          	addi	a7,a7,-1
80001c50:	00042403          	lw	s0,0(s0)
80001c54:	fe0810e3          	bnez	a6,80001c34 <core_list_mergesort+0xb4>
80001c58:	00e12a23          	sw	a4,20(sp)
80001c5c:	00070813          	mv	a6,a4
80001c60:	fddff06f          	j	80001c3c <core_list_mergesort+0xbc>
80001c64:	00030713          	mv	a4,t1
80001c68:	fff78793          	addi	a5,a5,-1
80001c6c:	00032303          	lw	t1,0(t1)
80001c70:	fc1ff06f          	j	80001c30 <core_list_mergesort+0xb0>
80001c74:	f2041ce3          	bnez	s0,80001bac <core_list_mergesort+0x2c>
80001c78:	01c12703          	lw	a4,28(sp)
80001c7c:	00082023          	sw	zero,0(a6)
80001c80:	00100793          	li	a5,1
80001c84:	00f70c63          	beq	a4,a5,80001c9c <core_list_mergesort+0x11c>
80001c88:	01412403          	lw	s0,20(sp)
80001c8c:	00149493          	slli	s1,s1,0x1
80001c90:	f0dff06f          	j	80001b9c <core_list_mergesort+0x1c>
80001c94:	00002023          	sw	zero,0(zero) # 0 <_entry_offset>
80001c98:	00100073          	ebreak
80001c9c:	02812083          	lw	ra,40(sp)
80001ca0:	02412403          	lw	s0,36(sp)
80001ca4:	01412503          	lw	a0,20(sp)
80001ca8:	02012483          	lw	s1,32(sp)
80001cac:	02c10113          	addi	sp,sp,44
80001cb0:	00008067          	ret

80001cb4 <core_bench_list>:
80001cb4:	00050613          	mv	a2,a0
80001cb8:	00451503          	lh	a0,4(a0)
80001cbc:	fe810113          	addi	sp,sp,-24
80001cc0:	00812823          	sw	s0,16(sp)
80001cc4:	00112a23          	sw	ra,20(sp)
80001cc8:	00912623          	sw	s1,12(sp)
80001ccc:	02462403          	lw	s0,36(a2)
80001cd0:	00058813          	mv	a6,a1
80001cd4:	26a05263          	blez	a0,80001f38 <core_bench_list+0x284>
80001cd8:	00000313          	li	t1,0
80001cdc:	00000f13          	li	t5,0
80001ce0:	00000e93          	li	t4,0
80001ce4:	00000893          	li	a7,0
80001ce8:	0ff37e13          	zext.b	t3,t1
80001cec:	20084063          	bltz	a6,80001eec <core_bench_list+0x238>
80001cf0:	24040a63          	beqz	s0,80001f44 <core_bench_list+0x290>
80001cf4:	00040793          	mv	a5,s0
80001cf8:	00c0006f          	j	80001d04 <core_bench_list+0x50>
80001cfc:	0007a783          	lw	a5,0(a5)
80001d00:	00078863          	beqz	a5,80001d10 <core_bench_list+0x5c>
80001d04:	0047a703          	lw	a4,4(a5)
80001d08:	00271703          	lh	a4,2(a4)
80001d0c:	ff0718e3          	bne	a4,a6,80001cfc <core_bench_list+0x48>
80001d10:	00000693          	li	a3,0
80001d14:	00c0006f          	j	80001d20 <core_bench_list+0x6c>
80001d18:	00040693          	mv	a3,s0
80001d1c:	00070413          	mv	s0,a4
80001d20:	00042703          	lw	a4,0(s0)
80001d24:	00d42023          	sw	a3,0(s0)
80001d28:	fe0718e3          	bnez	a4,80001d18 <core_bench_list+0x64>
80001d2c:	1e078263          	beqz	a5,80001f10 <core_bench_list+0x25c>
80001d30:	0047a703          	lw	a4,4(a5)
80001d34:	001e8e93          	addi	t4,t4,1
80001d38:	010e9e93          	slli	t4,t4,0x10
80001d3c:	00071703          	lh	a4,0(a4)
80001d40:	010ede93          	srli	t4,t4,0x10
80001d44:	00177693          	andi	a3,a4,1
80001d48:	00068c63          	beqz	a3,80001d60 <core_bench_list+0xac>
80001d4c:	40975713          	srai	a4,a4,0x9
80001d50:	00177713          	andi	a4,a4,1
80001d54:	00e88733          	add	a4,a7,a4
80001d58:	01071893          	slli	a7,a4,0x10
80001d5c:	0108d893          	srli	a7,a7,0x10
80001d60:	0007a703          	lw	a4,0(a5)
80001d64:	00070c63          	beqz	a4,80001d7c <core_bench_list+0xc8>
80001d68:	00072683          	lw	a3,0(a4)
80001d6c:	00d7a023          	sw	a3,0(a5)
80001d70:	00042783          	lw	a5,0(s0)
80001d74:	00f72023          	sw	a5,0(a4)
80001d78:	00e42023          	sw	a4,0(s0)
80001d7c:	00084863          	bltz	a6,80001d8c <core_bench_list+0xd8>
80001d80:	00180813          	addi	a6,a6,1
80001d84:	01081813          	slli	a6,a6,0x10
80001d88:	41085813          	srai	a6,a6,0x10
80001d8c:	00130313          	addi	t1,t1,1
80001d90:	01031313          	slli	t1,t1,0x10
80001d94:	41035313          	srai	t1,t1,0x10
80001d98:	f46518e3          	bne	a0,t1,80001ce8 <core_bench_list+0x34>
80001d9c:	002e9793          	slli	a5,t4,0x2
80001da0:	41e787b3          	sub	a5,a5,t5
80001da4:	00f887b3          	add	a5,a7,a5
80001da8:	01079793          	slli	a5,a5,0x10
80001dac:	0107d793          	srli	a5,a5,0x10
80001db0:	02b05863          	blez	a1,80001de0 <core_bench_list+0x12c>
80001db4:	00040513          	mv	a0,s0
80001db8:	00000597          	auipc	a1,0x0
80001dbc:	d7c58593          	addi	a1,a1,-644 # 80001b34 <cmp_complex>
80001dc0:	00f12423          	sw	a5,8(sp)
80001dc4:	01012223          	sw	a6,4(sp)
80001dc8:	01c12023          	sw	t3,0(sp)
80001dcc:	db5ff0ef          	jal	ra,80001b80 <core_list_mergesort>
80001dd0:	00812783          	lw	a5,8(sp)
80001dd4:	00412803          	lw	a6,4(sp)
80001dd8:	00012e03          	lw	t3,0(sp)
80001ddc:	00050413          	mv	s0,a0
80001de0:	00042683          	lw	a3,0(s0)
80001de4:	00040493          	mv	s1,s0
80001de8:	0006a703          	lw	a4,0(a3)
80001dec:	0046a583          	lw	a1,4(a3)
80001df0:	00472503          	lw	a0,4(a4)
80001df4:	00072603          	lw	a2,0(a4)
80001df8:	00e12023          	sw	a4,0(sp)
80001dfc:	00a6a223          	sw	a0,4(a3)
80001e00:	00b72223          	sw	a1,4(a4)
80001e04:	00c6a023          	sw	a2,0(a3)
80001e08:	00072023          	sw	zero,0(a4)
80001e0c:	0c084063          	bltz	a6,80001ecc <core_bench_list+0x218>
80001e10:	0044a683          	lw	a3,4(s1)
80001e14:	00269683          	lh	a3,2(a3)
80001e18:	01068a63          	beq	a3,a6,80001e2c <core_bench_list+0x178>
80001e1c:	0004a483          	lw	s1,0(s1)
80001e20:	fe0498e3          	bnez	s1,80001e10 <core_bench_list+0x15c>
80001e24:	00042483          	lw	s1,0(s0)
80001e28:	02048663          	beqz	s1,80001e54 <core_bench_list+0x1a0>
80001e2c:	00442683          	lw	a3,4(s0)
80001e30:	00078593          	mv	a1,a5
80001e34:	00069503          	lh	a0,0(a3)
80001e38:	a61fe0ef          	jal	ra,80000898 <crc16>
80001e3c:	0004a483          	lw	s1,0(s1)
80001e40:	00050793          	mv	a5,a0
80001e44:	fe0494e3          	bnez	s1,80001e2c <core_bench_list+0x178>
80001e48:	00012703          	lw	a4,0(sp)
80001e4c:	00042483          	lw	s1,0(s0)
80001e50:	00472583          	lw	a1,4(a4)
80001e54:	0044a503          	lw	a0,4(s1)
80001e58:	00f12223          	sw	a5,4(sp)
80001e5c:	00012783          	lw	a5,0(sp)
80001e60:	0004a683          	lw	a3,0(s1)
80001e64:	00000613          	li	a2,0
80001e68:	00a7a223          	sw	a0,4(a5)
80001e6c:	00b4a223          	sw	a1,4(s1)
80001e70:	00d7a023          	sw	a3,0(a5)
80001e74:	00f4a023          	sw	a5,0(s1)
80001e78:	00040513          	mv	a0,s0
80001e7c:	00000597          	auipc	a1,0x0
80001e80:	b1c58593          	addi	a1,a1,-1252 # 80001998 <cmp_idx>
80001e84:	cfdff0ef          	jal	ra,80001b80 <core_list_mergesort>
80001e88:	00052403          	lw	s0,0(a0)
80001e8c:	00412783          	lw	a5,4(sp)
80001e90:	00050493          	mv	s1,a0
80001e94:	02040063          	beqz	s0,80001eb4 <core_bench_list+0x200>
80001e98:	0044a703          	lw	a4,4(s1)
80001e9c:	00078593          	mv	a1,a5
80001ea0:	00071503          	lh	a0,0(a4)
80001ea4:	9f5fe0ef          	jal	ra,80000898 <crc16>
80001ea8:	00042403          	lw	s0,0(s0)
80001eac:	00050793          	mv	a5,a0
80001eb0:	fe0414e3          	bnez	s0,80001e98 <core_bench_list+0x1e4>
80001eb4:	01412083          	lw	ra,20(sp)
80001eb8:	01012403          	lw	s0,16(sp)
80001ebc:	00c12483          	lw	s1,12(sp)
80001ec0:	00078513          	mv	a0,a5
80001ec4:	01810113          	addi	sp,sp,24
80001ec8:	00008067          	ret
80001ecc:	0044a683          	lw	a3,4(s1)
80001ed0:	0006c683          	lbu	a3,0(a3)
80001ed4:	f5c68ce3          	beq	a3,t3,80001e2c <core_bench_list+0x178>
80001ed8:	0004a483          	lw	s1,0(s1)
80001edc:	fe0498e3          	bnez	s1,80001ecc <core_bench_list+0x218>
80001ee0:	00042483          	lw	s1,0(s0)
80001ee4:	f40494e3          	bnez	s1,80001e2c <core_bench_list+0x178>
80001ee8:	f6dff06f          	j	80001e54 <core_bench_list+0x1a0>
80001eec:	04040c63          	beqz	s0,80001f44 <core_bench_list+0x290>
80001ef0:	00040793          	mv	a5,s0
80001ef4:	00c0006f          	j	80001f00 <core_bench_list+0x24c>
80001ef8:	0007a783          	lw	a5,0(a5)
80001efc:	e0078ae3          	beqz	a5,80001d10 <core_bench_list+0x5c>
80001f00:	0047a703          	lw	a4,4(a5)
80001f04:	00074703          	lbu	a4,0(a4)
80001f08:	ffc718e3          	bne	a4,t3,80001ef8 <core_bench_list+0x244>
80001f0c:	e05ff06f          	j	80001d10 <core_bench_list+0x5c>
80001f10:	0046a783          	lw	a5,4(a3)
80001f14:	001f0f13          	addi	t5,t5,1
80001f18:	010f1f13          	slli	t5,t5,0x10
80001f1c:	00178783          	lb	a5,1(a5)
80001f20:	010f5f13          	srli	t5,t5,0x10
80001f24:	0017f793          	andi	a5,a5,1
80001f28:	00f887b3          	add	a5,a7,a5
80001f2c:	01079893          	slli	a7,a5,0x10
80001f30:	0108d893          	srli	a7,a7,0x10
80001f34:	e49ff06f          	j	80001d7c <core_bench_list+0xc8>
80001f38:	00000793          	li	a5,0
80001f3c:	00000e13          	li	t3,0
80001f40:	e71ff06f          	j	80001db0 <core_bench_list+0xfc>
80001f44:	00002783          	lw	a5,0(zero) # 0 <_entry_offset>
80001f48:	00100073          	ebreak

80001f4c <core_list_init>:
80001f4c:	01400793          	li	a5,20
80001f50:	02f55e33          	divu	t3,a0,a5
80001f54:	ffff87b7          	lui	a5,0xffff8
80001f58:	0005a023          	sw	zero,0(a1)
80001f5c:	08078713          	addi	a4,a5,128 # ffff8080 <_end+0x7ffec080>
80001f60:	01058693          	addi	a3,a1,16
80001f64:	00058513          	mv	a0,a1
80001f68:	00858313          	addi	t1,a1,8
80001f6c:	ffee0e13          	addi	t3,t3,-2
80001f70:	003e1f13          	slli	t5,t3,0x3
80001f74:	01e58f33          	add	t5,a1,t5
80001f78:	01e5a223          	sw	t5,4(a1)
80001f7c:	002e1f93          	slli	t6,t3,0x2
80001f80:	00ef1023          	sh	a4,0(t5)
80001f84:	000f1123          	sh	zero,2(t5)
80001f88:	01ff0fb3          	add	t6,t5,t6
80001f8c:	004f0713          	addi	a4,t5,4
80001f90:	13e6fe63          	bgeu	a3,t5,800020cc <core_list_init+0x180>
80001f94:	008f0893          	addi	a7,t5,8
80001f98:	13f8fa63          	bgeu	a7,t6,800020cc <core_list_init+0x180>
80001f9c:	00e5a623          	sw	a4,12(a1)
80001fa0:	0005a423          	sw	zero,8(a1)
80001fa4:	0065a023          	sw	t1,0(a1)
80001fa8:	fff7c793          	not	a5,a5
80001fac:	fff00713          	li	a4,-1
80001fb0:	00ef1223          	sh	a4,4(t5)
80001fb4:	00ff1323          	sh	a5,6(t5)
80001fb8:	060e0a63          	beqz	t3,8000202c <core_list_init+0xe0>
80001fbc:	01061293          	slli	t0,a2,0x10
80001fc0:	ffff83b7          	lui	t2,0xffff8
80001fc4:	0102d293          	srli	t0,t0,0x10
80001fc8:	00000813          	li	a6,0
80001fcc:	fff3c393          	not	t2,t2
80001fd0:	01081713          	slli	a4,a6,0x10
80001fd4:	01075713          	srli	a4,a4,0x10
80001fd8:	005747b3          	xor	a5,a4,t0
80001fdc:	00379793          	slli	a5,a5,0x3
80001fe0:	00777713          	andi	a4,a4,7
80001fe4:	0787f793          	andi	a5,a5,120
80001fe8:	00e7e7b3          	or	a5,a5,a4
80001fec:	00879713          	slli	a4,a5,0x8
80001ff0:	00868593          	addi	a1,a3,8
80001ff4:	00180813          	addi	a6,a6,1
80001ff8:	00488e93          	addi	t4,a7,4
80001ffc:	00f76733          	or	a4,a4,a5
80002000:	03e5f463          	bgeu	a1,t5,80002028 <core_list_init+0xdc>
80002004:	03fef263          	bgeu	t4,t6,80002028 <core_list_init+0xdc>
80002008:	0066a023          	sw	t1,0(a3)
8000200c:	00d52023          	sw	a3,0(a0)
80002010:	0116a223          	sw	a7,4(a3)
80002014:	00e89023          	sh	a4,0(a7)
80002018:	00789123          	sh	t2,2(a7)
8000201c:	00068313          	mv	t1,a3
80002020:	000e8893          	mv	a7,t4
80002024:	00058693          	mv	a3,a1
80002028:	fb0e14e3          	bne	t3,a6,80001fd0 <core_list_init+0x84>
8000202c:	00032803          	lw	a6,0(t1)
80002030:	08080663          	beqz	a6,800020bc <core_list_init+0x170>
80002034:	00500793          	li	a5,5
80002038:	00004eb7          	lui	t4,0x4
8000203c:	02fe5e33          	divu	t3,t3,a5
80002040:	20000713          	li	a4,512
80002044:	00100693          	li	a3,1
80002048:	fffe8e93          	addi	t4,t4,-1 # 3fff <_entry_offset+0x3fff>
8000204c:	0300006f          	j	8000207c <core_list_init+0x130>
80002050:	01069793          	slli	a5,a3,0x10
80002054:	00082883          	lw	a7,0(a6)
80002058:	4107d793          	srai	a5,a5,0x10
8000205c:	10070713          	addi	a4,a4,256
80002060:	01071713          	slli	a4,a4,0x10
80002064:	00f59123          	sh	a5,2(a1)
80002068:	00080313          	mv	t1,a6
8000206c:	00168693          	addi	a3,a3,1
80002070:	01075713          	srli	a4,a4,0x10
80002074:	04088463          	beqz	a7,800020bc <core_list_init+0x170>
80002078:	00088813          	mv	a6,a7
8000207c:	00d645b3          	xor	a1,a2,a3
80002080:	70077793          	andi	a5,a4,1792
80002084:	00b7e7b3          	or	a5,a5,a1
80002088:	01d7f7b3          	and	a5,a5,t4
8000208c:	00432583          	lw	a1,4(t1)
80002090:	fdc6e0e3          	bltu	a3,t3,80002050 <core_list_init+0x104>
80002094:	00082883          	lw	a7,0(a6)
80002098:	01079793          	slli	a5,a5,0x10
8000209c:	4107d793          	srai	a5,a5,0x10
800020a0:	10070713          	addi	a4,a4,256
800020a4:	01071713          	slli	a4,a4,0x10
800020a8:	00f59123          	sh	a5,2(a1)
800020ac:	00080313          	mv	t1,a6
800020b0:	00168693          	addi	a3,a3,1
800020b4:	01075713          	srli	a4,a4,0x10
800020b8:	fc0890e3          	bnez	a7,80002078 <core_list_init+0x12c>
800020bc:	00000613          	li	a2,0
800020c0:	00000597          	auipc	a1,0x0
800020c4:	8d858593          	addi	a1,a1,-1832 # 80001998 <cmp_idx>
800020c8:	ab9ff06f          	j	80001b80 <core_list_mergesort>
800020cc:	00030693          	mv	a3,t1
800020d0:	00070893          	mv	a7,a4
800020d4:	00000313          	li	t1,0
800020d8:	ee1ff06f          	j	80001fb8 <core_list_init+0x6c>

800020dc <__am_timer_config>:
800020dc:	00100793          	li	a5,1
800020e0:	00f50023          	sb	a5,0(a0)
800020e4:	00f500a3          	sb	a5,1(a0)
800020e8:	00008067          	ret

800020ec <__am_input_config>:
800020ec:	00100793          	li	a5,1
800020f0:	00f50023          	sb	a5,0(a0)
800020f4:	00008067          	ret

800020f8 <__am_uart_config>:
800020f8:	00050023          	sb	zero,0(a0)
800020fc:	00008067          	ret

80002100 <__am_net_config>:
80002100:	00050023          	sb	zero,0(a0)
80002104:	00008067          	ret

80002108 <fail>:
80002108:	ff810113          	addi	sp,sp,-8
8000210c:	00812023          	sw	s0,0(sp)
80002110:	00112223          	sw	ra,4(sp)
80002114:	00001417          	auipc	s0,0x1
80002118:	33840413          	addi	s0,s0,824 # 8000344c <state_known_crc+0xc>
8000211c:	04100513          	li	a0,65
80002120:	00140413          	addi	s0,s0,1
80002124:	258000ef          	jal	ra,8000237c <putch>
80002128:	00044503          	lbu	a0,0(s0)
8000212c:	fe051ae3          	bnez	a0,80002120 <fail+0x18>
80002130:	00001417          	auipc	s0,0x1
80002134:	32840413          	addi	s0,s0,808 # 80003458 <state_known_crc+0x18>
80002138:	06100513          	li	a0,97
8000213c:	00140413          	addi	s0,s0,1
80002140:	23c000ef          	jal	ra,8000237c <putch>
80002144:	00044503          	lbu	a0,0(s0)
80002148:	fe051ae3          	bnez	a0,8000213c <fail+0x34>
8000214c:	00001417          	auipc	s0,0x1
80002150:	32840413          	addi	s0,s0,808 # 80003474 <state_known_crc+0x34>
80002154:	02000513          	li	a0,32
80002158:	00140413          	addi	s0,s0,1
8000215c:	220000ef          	jal	ra,8000237c <putch>
80002160:	00044503          	lbu	a0,0(s0)
80002164:	fe051ae3          	bnez	a0,80002158 <fail+0x50>
80002168:	00100513          	li	a0,1
8000216c:	21c000ef          	jal	ra,80002388 <halt>

80002170 <ioe_init>:
80002170:	ffc10113          	addi	sp,sp,-4
80002174:	00112023          	sw	ra,0(sp)
80002178:	00001797          	auipc	a5,0x1
8000217c:	49878793          	addi	a5,a5,1176 # 80003610 <lut>
80002180:	00001697          	auipc	a3,0x1
80002184:	69068693          	addi	a3,a3,1680 # 80003810 <static_memblk>
80002188:	00000617          	auipc	a2,0x0
8000218c:	f8060613          	addi	a2,a2,-128 # 80002108 <fail>
80002190:	00c0006f          	j	8000219c <ioe_init+0x2c>
80002194:	00478793          	addi	a5,a5,4
80002198:	00d78c63          	beq	a5,a3,800021b0 <ioe_init+0x40>
8000219c:	0007a703          	lw	a4,0(a5)
800021a0:	fe071ae3          	bnez	a4,80002194 <ioe_init+0x24>
800021a4:	00c7a023          	sw	a2,0(a5)
800021a8:	00478793          	addi	a5,a5,4
800021ac:	fed798e3          	bne	a5,a3,8000219c <ioe_init+0x2c>
800021b0:	0d8000ef          	jal	ra,80002288 <__am_gpu_init>
800021b4:	034000ef          	jal	ra,800021e8 <__am_timer_init>
800021b8:	198000ef          	jal	ra,80002350 <__am_audio_init>
800021bc:	00012083          	lw	ra,0(sp)
800021c0:	00100513          	li	a0,1
800021c4:	00410113          	addi	sp,sp,4
800021c8:	00008067          	ret

800021cc <ioe_read>:
800021cc:	00251513          	slli	a0,a0,0x2
800021d0:	00001797          	auipc	a5,0x1
800021d4:	44078793          	addi	a5,a5,1088 # 80003610 <lut>
800021d8:	00a787b3          	add	a5,a5,a0
800021dc:	0007a783          	lw	a5,0(a5)
800021e0:	00058513          	mv	a0,a1
800021e4:	00078067          	jr	a5

800021e8 <__am_timer_init>:
800021e8:	a00007b7          	lui	a5,0xa0000
800021ec:	0487a683          	lw	a3,72(a5) # a0000048 <_end+0x1fff4048>
800021f0:	04c7a703          	lw	a4,76(a5)
800021f4:	00002797          	auipc	a5,0x2
800021f8:	e0478793          	addi	a5,a5,-508 # 80003ff8 <boot_time>
800021fc:	00d7a023          	sw	a3,0(a5)
80002200:	00e7a223          	sw	a4,4(a5)
80002204:	00008067          	ret

80002208 <__am_timer_uptime>:
80002208:	a00007b7          	lui	a5,0xa0000
8000220c:	00002617          	auipc	a2,0x2
80002210:	dec60613          	addi	a2,a2,-532 # 80003ff8 <boot_time>
80002214:	0487a683          	lw	a3,72(a5) # a0000048 <_end+0x1fff4048>
80002218:	00062703          	lw	a4,0(a2)
8000221c:	04c7a783          	lw	a5,76(a5)
80002220:	00462603          	lw	a2,4(a2)
80002224:	40e68733          	sub	a4,a3,a4
80002228:	00e6b6b3          	sltu	a3,a3,a4
8000222c:	40c787b3          	sub	a5,a5,a2
80002230:	40d787b3          	sub	a5,a5,a3
80002234:	00e52023          	sw	a4,0(a0)
80002238:	00f52223          	sw	a5,4(a0)
8000223c:	00008067          	ret

80002240 <__am_timer_rtc>:
80002240:	76c00793          	li	a5,1900
80002244:	00052a23          	sw	zero,20(a0)
80002248:	00052823          	sw	zero,16(a0)
8000224c:	00052623          	sw	zero,12(a0)
80002250:	00052423          	sw	zero,8(a0)
80002254:	00052223          	sw	zero,4(a0)
80002258:	00f52023          	sw	a5,0(a0)
8000225c:	00008067          	ret

80002260 <__am_input_keybrd>:
80002260:	a00007b7          	lui	a5,0xa0000
80002264:	0607a783          	lw	a5,96(a5) # a0000060 <_end+0x1fff4060>
80002268:	ffff86b7          	lui	a3,0xffff8
8000226c:	fff68693          	addi	a3,a3,-1 # ffff7fff <_end+0x7ffebfff>
80002270:	00f7d713          	srli	a4,a5,0xf
80002274:	00177713          	andi	a4,a4,1
80002278:	00d7f7b3          	and	a5,a5,a3
8000227c:	00e50023          	sb	a4,0(a0)
80002280:	00f52223          	sw	a5,4(a0)
80002284:	00008067          	ret

80002288 <__am_gpu_init>:
80002288:	00008067          	ret

8000228c <__am_gpu_config>:
8000228c:	00001797          	auipc	a5,0x1
80002290:	24c78793          	addi	a5,a5,588 # 800034d8 <state_known_crc+0x98>
80002294:	0007a603          	lw	a2,0(a5)
80002298:	0047a683          	lw	a3,4(a5)
8000229c:	0087a703          	lw	a4,8(a5)
800022a0:	00c7a783          	lw	a5,12(a5)
800022a4:	00c52023          	sw	a2,0(a0)
800022a8:	00d52223          	sw	a3,4(a0)
800022ac:	00e52423          	sw	a4,8(a0)
800022b0:	00f52623          	sw	a5,12(a0)
800022b4:	00008067          	ret

800022b8 <__am_gpu_fbdraw>:
800022b8:	01052f03          	lw	t5,16(a0)
800022bc:	00052f83          	lw	t6,0(a0)
800022c0:	00452783          	lw	a5,4(a0)
800022c4:	00c52e83          	lw	t4,12(a0)
800022c8:	00852683          	lw	a3,8(a0)
800022cc:	07e05063          	blez	t5,8000232c <__am_gpu_fbdraw+0x74>
800022d0:	19000713          	li	a4,400
800022d4:	02e785b3          	mul	a1,a5,a4
800022d8:	002e9313          	slli	t1,t4,0x2
800022dc:	41d70733          	sub	a4,a4,t4
800022e0:	00271e13          	slli	t3,a4,0x2
800022e4:	00668633          	add	a2,a3,t1
800022e8:	00000893          	li	a7,0
800022ec:	a1000837          	lui	a6,0xa1000
800022f0:	01f585b3          	add	a1,a1,t6
800022f4:	00259593          	slli	a1,a1,0x2
800022f8:	40d585b3          	sub	a1,a1,a3
800022fc:	406607b3          	sub	a5,a2,t1
80002300:	01d05e63          	blez	t4,8000231c <__am_gpu_fbdraw+0x64>
80002304:	0007a683          	lw	a3,0(a5)
80002308:	00b78733          	add	a4,a5,a1
8000230c:	00e80733          	add	a4,a6,a4
80002310:	00d72023          	sw	a3,0(a4)
80002314:	00478793          	addi	a5,a5,4
80002318:	fec796e3          	bne	a5,a2,80002304 <__am_gpu_fbdraw+0x4c>
8000231c:	00188893          	addi	a7,a7,1
80002320:	01c585b3          	add	a1,a1,t3
80002324:	00660633          	add	a2,a2,t1
80002328:	fd1f1ae3          	bne	t5,a7,800022fc <__am_gpu_fbdraw+0x44>
8000232c:	01454783          	lbu	a5,20(a0)
80002330:	00078863          	beqz	a5,80002340 <__am_gpu_fbdraw+0x88>
80002334:	a00007b7          	lui	a5,0xa0000
80002338:	00100713          	li	a4,1
8000233c:	10e7a223          	sw	a4,260(a5) # a0000104 <_end+0x1fff4104>
80002340:	00008067          	ret

80002344 <__am_gpu_status>:
80002344:	00100793          	li	a5,1
80002348:	00f50023          	sb	a5,0(a0)
8000234c:	00008067          	ret

80002350 <__am_audio_init>:
80002350:	00008067          	ret

80002354 <__am_audio_config>:
80002354:	00050023          	sb	zero,0(a0)
80002358:	00008067          	ret

8000235c <__am_audio_ctrl>:
8000235c:	00008067          	ret

80002360 <__am_audio_status>:
80002360:	00052023          	sw	zero,0(a0)
80002364:	00008067          	ret

80002368 <__am_audio_play>:
80002368:	00008067          	ret

8000236c <__am_disk_config>:
8000236c:	00050023          	sb	zero,0(a0)
80002370:	00008067          	ret

80002374 <__am_disk_status>:
80002374:	00008067          	ret

80002378 <__am_disk_blkio>:
80002378:	00008067          	ret

8000237c <putch>:
8000237c:	a00007b7          	lui	a5,0xa0000
80002380:	3ea78c23          	sb	a0,1016(a5) # a00003f8 <_end+0x1fff43f8>
80002384:	00008067          	ret

80002388 <halt>:
80002388:	00050513          	mv	a0,a0
8000238c:	00100073          	ebreak
80002390:	0000006f          	j	80002390 <halt+0x8>

80002394 <_trm_init>:
80002394:	ffc10113          	addi	sp,sp,-4
80002398:	00001517          	auipc	a0,0x1
8000239c:	26450513          	addi	a0,a0,612 # 800035fc <mainargs>
800023a0:	00112023          	sw	ra,0(sp)
800023a4:	e10fe0ef          	jal	ra,800009b4 <main>
800023a8:	00050513          	mv	a0,a0
800023ac:	00100073          	ebreak
800023b0:	0000006f          	j	800023b0 <_trm_init+0x1c>

800023b4 <__udivmoddi4>:
800023b4:	00050313          	mv	t1,a0
800023b8:	02059263          	bnez	a1,800023dc <__udivmoddi4+0x28>
800023bc:	1c069c63          	bnez	a3,80002594 <__udivmoddi4+0x1e0>
800023c0:	00070863          	beqz	a4,800023d0 <__udivmoddi4+0x1c>
800023c4:	02c577b3          	remu	a5,a0,a2
800023c8:	00072223          	sw	zero,4(a4)
800023cc:	00f72023          	sw	a5,0(a4)
800023d0:	02c35533          	divu	a0,t1,a2
800023d4:	00000593          	li	a1,0
800023d8:	00008067          	ret
800023dc:	fe010113          	addi	sp,sp,-32
800023e0:	00812c23          	sw	s0,24(sp)
800023e4:	00112e23          	sw	ra,28(sp)
800023e8:	00912a23          	sw	s1,20(sp)
800023ec:	00058413          	mv	s0,a1
800023f0:	12061463          	bnez	a2,80002518 <__udivmoddi4+0x164>
800023f4:	20068c63          	beqz	a3,8000260c <__udivmoddi4+0x258>
800023f8:	2a050c63          	beqz	a0,800026b0 <__udivmoddi4+0x2fc>
800023fc:	fff68793          	addi	a5,a3,-1
80002400:	00d7f533          	and	a0,a5,a3
80002404:	2c050a63          	beqz	a0,800026d8 <__udivmoddi4+0x324>
80002408:	00068513          	mv	a0,a3
8000240c:	00c12823          	sw	a2,16(sp)
80002410:	00b12623          	sw	a1,12(sp)
80002414:	00612423          	sw	t1,8(sp)
80002418:	00e12223          	sw	a4,4(sp)
8000241c:	00d12023          	sw	a3,0(sp)
80002420:	350000ef          	jal	ra,80002770 <__clzsi2>
80002424:	00050493          	mv	s1,a0
80002428:	00040513          	mv	a0,s0
8000242c:	344000ef          	jal	ra,80002770 <__clzsi2>
80002430:	40a48533          	sub	a0,s1,a0
80002434:	01e00793          	li	a5,30
80002438:	00012683          	lw	a3,0(sp)
8000243c:	00412703          	lw	a4,4(sp)
80002440:	00812303          	lw	t1,8(sp)
80002444:	00c12583          	lw	a1,12(sp)
80002448:	01012603          	lw	a2,16(sp)
8000244c:	1ca7e863          	bltu	a5,a0,8000261c <__udivmoddi4+0x268>
80002450:	00150593          	addi	a1,a0,1
80002454:	02000e93          	li	t4,32
80002458:	40be8eb3          	sub	t4,t4,a1
8000245c:	01d41833          	sll	a6,s0,t4
80002460:	00b35533          	srl	a0,t1,a1
80002464:	00b457b3          	srl	a5,s0,a1
80002468:	01d31eb3          	sll	t4,t1,t4
8000246c:	00a86433          	or	s0,a6,a0
80002470:	00000493          	li	s1,0
80002474:	00000313          	li	t1,0
80002478:	01fed513          	srli	a0,t4,0x1f
8000247c:	00141813          	slli	a6,s0,0x1
80002480:	00a86833          	or	a6,a6,a0
80002484:	01f45413          	srli	s0,s0,0x1f
80002488:	00179793          	slli	a5,a5,0x1
8000248c:	0087e7b3          	or	a5,a5,s0
80002490:	41060e33          	sub	t3,a2,a6
80002494:	01c63533          	sltu	a0,a2,t3
80002498:	40f688b3          	sub	a7,a3,a5
8000249c:	40a888b3          	sub	a7,a7,a0
800024a0:	001e3e13          	seqz	t3,t3
800024a4:	41c888b3          	sub	a7,a7,t3
800024a8:	41f8de13          	srai	t3,a7,0x1f
800024ac:	00ce7433          	and	s0,t3,a2
800024b0:	40880433          	sub	s0,a6,s0
800024b4:	00de7e33          	and	t3,t3,a3
800024b8:	01f4d513          	srli	a0,s1,0x1f
800024bc:	001e9e93          	slli	t4,t4,0x1
800024c0:	00149493          	slli	s1,s1,0x1
800024c4:	00883833          	sltu	a6,a6,s0
800024c8:	41c787b3          	sub	a5,a5,t3
800024cc:	fff58593          	addi	a1,a1,-1
800024d0:	0064e4b3          	or	s1,s1,t1
800024d4:	00aeeeb3          	or	t4,t4,a0
800024d8:	01f8d313          	srli	t1,a7,0x1f
800024dc:	410787b3          	sub	a5,a5,a6
800024e0:	f8059ce3          	bnez	a1,80002478 <__udivmoddi4+0xc4>
800024e4:	01f4d593          	srli	a1,s1,0x1f
800024e8:	001e9e93          	slli	t4,t4,0x1
800024ec:	00149493          	slli	s1,s1,0x1
800024f0:	0064e533          	or	a0,s1,t1
800024f4:	01d5e5b3          	or	a1,a1,t4
800024f8:	00070663          	beqz	a4,80002504 <__udivmoddi4+0x150>
800024fc:	00872023          	sw	s0,0(a4)
80002500:	00f72223          	sw	a5,4(a4)
80002504:	01c12083          	lw	ra,28(sp)
80002508:	01812403          	lw	s0,24(sp)
8000250c:	01412483          	lw	s1,20(sp)
80002510:	02010113          	addi	sp,sp,32
80002514:	00008067          	ret
80002518:	08068a63          	beqz	a3,800025ac <__udivmoddi4+0x1f8>
8000251c:	00a12223          	sw	a0,4(sp)
80002520:	00068513          	mv	a0,a3
80002524:	00b12423          	sw	a1,8(sp)
80002528:	00e12023          	sw	a4,0(sp)
8000252c:	00c12823          	sw	a2,16(sp)
80002530:	00d12623          	sw	a3,12(sp)
80002534:	23c000ef          	jal	ra,80002770 <__clzsi2>
80002538:	00050493          	mv	s1,a0
8000253c:	00040513          	mv	a0,s0
80002540:	230000ef          	jal	ra,80002770 <__clzsi2>
80002544:	40a48533          	sub	a0,s1,a0
80002548:	01f00793          	li	a5,31
8000254c:	00012703          	lw	a4,0(sp)
80002550:	00412303          	lw	t1,4(sp)
80002554:	00812583          	lw	a1,8(sp)
80002558:	0ca7e263          	bltu	a5,a0,8000261c <__udivmoddi4+0x268>
8000255c:	00150593          	addi	a1,a0,1
80002560:	02000793          	li	a5,32
80002564:	00c12683          	lw	a3,12(sp)
80002568:	01012603          	lw	a2,16(sp)
8000256c:	00030e93          	mv	t4,t1
80002570:	18f58a63          	beq	a1,a5,80002704 <__udivmoddi4+0x350>
80002574:	40b78533          	sub	a0,a5,a1
80002578:	00b35833          	srl	a6,t1,a1
8000257c:	00a418b3          	sll	a7,s0,a0
80002580:	00b457b3          	srl	a5,s0,a1
80002584:	00a31eb3          	sll	t4,t1,a0
80002588:	0108e433          	or	s0,a7,a6
8000258c:	00000493          	li	s1,0
80002590:	ee5ff06f          	j	80002474 <__udivmoddi4+0xc0>
80002594:	06070e63          	beqz	a4,80002610 <__udivmoddi4+0x25c>
80002598:	00a72023          	sw	a0,0(a4)
8000259c:	00072223          	sw	zero,4(a4)
800025a0:	00000513          	li	a0,0
800025a4:	00000593          	li	a1,0
800025a8:	00008067          	ret
800025ac:	fff60793          	addi	a5,a2,-1
800025b0:	00c7f533          	and	a0,a5,a2
800025b4:	08051063          	bnez	a0,80002634 <__udivmoddi4+0x280>
800025b8:	00070863          	beqz	a4,800025c8 <__udivmoddi4+0x214>
800025bc:	0067f7b3          	and	a5,a5,t1
800025c0:	00f72023          	sw	a5,0(a4)
800025c4:	00072223          	sw	zero,4(a4)
800025c8:	00100793          	li	a5,1
800025cc:	00030513          	mv	a0,t1
800025d0:	f2f60ae3          	beq	a2,a5,80002504 <__udivmoddi4+0x150>
800025d4:	00060513          	mv	a0,a2
800025d8:	00b12223          	sw	a1,4(sp)
800025dc:	00612023          	sw	t1,0(sp)
800025e0:	228000ef          	jal	ra,80002808 <__ctzsi2>
800025e4:	00412583          	lw	a1,4(sp)
800025e8:	00012303          	lw	t1,0(sp)
800025ec:	02000713          	li	a4,32
800025f0:	40a70733          	sub	a4,a4,a0
800025f4:	00050793          	mv	a5,a0
800025f8:	00e59733          	sll	a4,a1,a4
800025fc:	00a35333          	srl	t1,t1,a0
80002600:	00676533          	or	a0,a4,t1
80002604:	00f5d5b3          	srl	a1,a1,a5
80002608:	efdff06f          	j	80002504 <__udivmoddi4+0x150>
8000260c:	00100073          	ebreak
80002610:	00000513          	li	a0,0
80002614:	00000593          	li	a1,0
80002618:	00008067          	ret
8000261c:	0a070863          	beqz	a4,800026cc <__udivmoddi4+0x318>
80002620:	00b72223          	sw	a1,4(a4)
80002624:	00672023          	sw	t1,0(a4)
80002628:	00000513          	li	a0,0
8000262c:	00000593          	li	a1,0
80002630:	ed5ff06f          	j	80002504 <__udivmoddi4+0x150>
80002634:	00060513          	mv	a0,a2
80002638:	00068493          	mv	s1,a3
8000263c:	00d12823          	sw	a3,16(sp)
80002640:	00612623          	sw	t1,12(sp)
80002644:	00e12423          	sw	a4,8(sp)
80002648:	00c12223          	sw	a2,4(sp)
8000264c:	124000ef          	jal	ra,80002770 <__clzsi2>
80002650:	00050793          	mv	a5,a0
80002654:	00040513          	mv	a0,s0
80002658:	00f12023          	sw	a5,0(sp)
8000265c:	114000ef          	jal	ra,80002770 <__clzsi2>
80002660:	00012783          	lw	a5,0(sp)
80002664:	00c12303          	lw	t1,12(sp)
80002668:	02000813          	li	a6,32
8000266c:	40a78533          	sub	a0,a5,a0
80002670:	02150593          	addi	a1,a0,33
80002674:	00412603          	lw	a2,4(sp)
80002678:	00812703          	lw	a4,8(sp)
8000267c:	01012683          	lw	a3,16(sp)
80002680:	00030e93          	mv	t4,t1
80002684:	00000793          	li	a5,0
80002688:	df0586e3          	beq	a1,a6,80002474 <__udivmoddi4+0xc0>
8000268c:	01f00893          	li	a7,31
80002690:	08b8e063          	bltu	a7,a1,80002710 <__udivmoddi4+0x35c>
80002694:	40b80833          	sub	a6,a6,a1
80002698:	00b35533          	srl	a0,t1,a1
8000269c:	010418b3          	sll	a7,s0,a6
800026a0:	00b457b3          	srl	a5,s0,a1
800026a4:	01031eb3          	sll	t4,t1,a6
800026a8:	00a8e433          	or	s0,a7,a0
800026ac:	dc9ff06f          	j	80002474 <__udivmoddi4+0xc0>
800026b0:	00070863          	beqz	a4,800026c0 <__udivmoddi4+0x30c>
800026b4:	02d5f7b3          	remu	a5,a1,a3
800026b8:	00072023          	sw	zero,0(a4)
800026bc:	00f72223          	sw	a5,4(a4)
800026c0:	02d5d533          	divu	a0,a1,a3
800026c4:	00000593          	li	a1,0
800026c8:	e3dff06f          	j	80002504 <__udivmoddi4+0x150>
800026cc:	00000513          	li	a0,0
800026d0:	00000593          	li	a1,0
800026d4:	e31ff06f          	j	80002504 <__udivmoddi4+0x150>
800026d8:	00070863          	beqz	a4,800026e8 <__udivmoddi4+0x334>
800026dc:	00b7f7b3          	and	a5,a5,a1
800026e0:	00672023          	sw	t1,0(a4)
800026e4:	00f72223          	sw	a5,4(a4)
800026e8:	00068513          	mv	a0,a3
800026ec:	00b12023          	sw	a1,0(sp)
800026f0:	118000ef          	jal	ra,80002808 <__ctzsi2>
800026f4:	00012583          	lw	a1,0(sp)
800026f8:	00a5d533          	srl	a0,a1,a0
800026fc:	00000593          	li	a1,0
80002700:	e05ff06f          	j	80002504 <__udivmoddi4+0x150>
80002704:	00000793          	li	a5,0
80002708:	00000493          	li	s1,0
8000270c:	d69ff06f          	j	80002474 <__udivmoddi4+0xc0>
80002710:	04000813          	li	a6,64
80002714:	40b80833          	sub	a6,a6,a1
80002718:	00150513          	addi	a0,a0,1
8000271c:	010314b3          	sll	s1,t1,a6
80002720:	00a35eb3          	srl	t4,t1,a0
80002724:	01041833          	sll	a6,s0,a6
80002728:	01d86eb3          	or	t4,a6,t4
8000272c:	00a45433          	srl	s0,s0,a0
80002730:	d45ff06f          	j	80002474 <__udivmoddi4+0xc0>

80002734 <__udivdi3>:
80002734:	00000713          	li	a4,0
80002738:	c7dff06f          	j	800023b4 <__udivmoddi4>

8000273c <__umoddi3>:
8000273c:	fec10113          	addi	sp,sp,-20
80002740:	00812623          	sw	s0,12(sp)
80002744:	00710413          	addi	s0,sp,7
80002748:	ff847413          	andi	s0,s0,-8
8000274c:	00040713          	mv	a4,s0
80002750:	00112823          	sw	ra,16(sp)
80002754:	c61ff0ef          	jal	ra,800023b4 <__udivmoddi4>
80002758:	00042503          	lw	a0,0(s0)
8000275c:	00442583          	lw	a1,4(s0)
80002760:	01012083          	lw	ra,16(sp)
80002764:	00c12403          	lw	s0,12(sp)
80002768:	01410113          	addi	sp,sp,20
8000276c:	00008067          	ret

80002770 <__clzsi2>:
80002770:	ffff05b7          	lui	a1,0xffff0
80002774:	00b575b3          	and	a1,a0,a1
80002778:	0015b593          	seqz	a1,a1
8000277c:	00459593          	slli	a1,a1,0x4
80002780:	01000793          	li	a5,16
80002784:	40b787b3          	sub	a5,a5,a1
80002788:	00010737          	lui	a4,0x10
8000278c:	00f557b3          	srl	a5,a0,a5
80002790:	f0070713          	addi	a4,a4,-256 # ff00 <_entry_offset+0xff00>
80002794:	00e7f733          	and	a4,a5,a4
80002798:	00173713          	seqz	a4,a4
8000279c:	00371713          	slli	a4,a4,0x3
800027a0:	00800693          	li	a3,8
800027a4:	40e686b3          	sub	a3,a3,a4
800027a8:	00d7d7b3          	srl	a5,a5,a3
800027ac:	0f07f613          	andi	a2,a5,240
800027b0:	00163613          	seqz	a2,a2
800027b4:	00261613          	slli	a2,a2,0x2
800027b8:	00400693          	li	a3,4
800027bc:	40c686b3          	sub	a3,a3,a2
800027c0:	00d7d7b3          	srl	a5,a5,a3
800027c4:	00c7f693          	andi	a3,a5,12
800027c8:	0016b693          	seqz	a3,a3
800027cc:	00169693          	slli	a3,a3,0x1
800027d0:	00200813          	li	a6,2
800027d4:	40d80533          	sub	a0,a6,a3
800027d8:	00a7d7b3          	srl	a5,a5,a0
800027dc:	0017d513          	srli	a0,a5,0x1
800027e0:	00154513          	xori	a0,a0,1
800027e4:	00b70733          	add	a4,a4,a1
800027e8:	00157513          	andi	a0,a0,1
800027ec:	00e60633          	add	a2,a2,a4
800027f0:	40f80833          	sub	a6,a6,a5
800027f4:	40a00733          	neg	a4,a0
800027f8:	01077733          	and	a4,a4,a6
800027fc:	00c68533          	add	a0,a3,a2
80002800:	00a70533          	add	a0,a4,a0
80002804:	00008067          	ret

80002808 <__ctzsi2>:
80002808:	01051593          	slli	a1,a0,0x10
8000280c:	0105d593          	srli	a1,a1,0x10
80002810:	0015b593          	seqz	a1,a1
80002814:	00459593          	slli	a1,a1,0x4
80002818:	00b557b3          	srl	a5,a0,a1
8000281c:	0ff7f613          	zext.b	a2,a5
80002820:	00163613          	seqz	a2,a2
80002824:	00361613          	slli	a2,a2,0x3
80002828:	00c7d7b3          	srl	a5,a5,a2
8000282c:	00f7f693          	andi	a3,a5,15
80002830:	0016b693          	seqz	a3,a3
80002834:	00269693          	slli	a3,a3,0x2
80002838:	00d7d7b3          	srl	a5,a5,a3
8000283c:	0037f713          	andi	a4,a5,3
80002840:	00173713          	seqz	a4,a4
80002844:	00171713          	slli	a4,a4,0x1
80002848:	00e7d7b3          	srl	a5,a5,a4
8000284c:	0017d513          	srli	a0,a5,0x1
80002850:	00b60633          	add	a2,a2,a1
80002854:	0017f793          	andi	a5,a5,1
80002858:	00157593          	andi	a1,a0,1
8000285c:	00200513          	li	a0,2
80002860:	00c686b3          	add	a3,a3,a2
80002864:	40b50533          	sub	a0,a0,a1
80002868:	fff78793          	addi	a5,a5,-1
8000286c:	00f57533          	and	a0,a0,a5
80002870:	00d70733          	add	a4,a4,a3
80002874:	00e50533          	add	a0,a0,a4
80002878:	00008067          	ret

8000287c <number_to_str>:
8000287c:	fe810113          	addi	sp,sp,-24
80002880:	00812823          	sw	s0,16(sp)
80002884:	00912623          	sw	s1,12(sp)
80002888:	00112a23          	sw	ra,20(sp)
8000288c:	00060413          	mv	s0,a2
80002890:	00050493          	mv	s1,a0
80002894:	00058793          	mv	a5,a1
80002898:	04e67463          	bgeu	a2,a4,800028e0 <number_to_str+0x64>
8000289c:	0ff7f713          	zext.b	a4,a5
800028a0:	00148513          	addi	a0,s1,1
800028a4:	02040463          	beqz	s0,800028cc <number_to_str+0x50>
800028a8:	03770793          	addi	a5,a4,55
800028ac:	0ff7f793          	zext.b	a5,a5
800028b0:	00f48023          	sb	a5,0(s1)
800028b4:	000480a3          	sb	zero,1(s1)
800028b8:	01412083          	lw	ra,20(sp)
800028bc:	01012403          	lw	s0,16(sp)
800028c0:	00c12483          	lw	s1,12(sp)
800028c4:	01810113          	addi	sp,sp,24
800028c8:	00008067          	ret
800028cc:	00900693          	li	a3,9
800028d0:	fcf6ece3          	bltu	a3,a5,800028a8 <number_to_str+0x2c>
800028d4:	03070793          	addi	a5,a4,48
800028d8:	0ff7f793          	zext.b	a5,a5
800028dc:	fd5ff06f          	j	800028b0 <number_to_str+0x34>
800028e0:	00068813          	mv	a6,a3
800028e4:	00c71463          	bne	a4,a2,800028ec <number_to_str+0x70>
800028e8:	fad5eae3          	bltu	a1,a3,8000289c <number_to_str+0x20>
800028ec:	00080613          	mv	a2,a6
800028f0:	00070693          	mv	a3,a4
800028f4:	00078513          	mv	a0,a5
800028f8:	00040593          	mv	a1,s0
800028fc:	00f12423          	sw	a5,8(sp)
80002900:	01012223          	sw	a6,4(sp)
80002904:	00e12023          	sw	a4,0(sp)
80002908:	e2dff0ef          	jal	ra,80002734 <__udivdi3>
8000290c:	00412803          	lw	a6,4(sp)
80002910:	00012703          	lw	a4,0(sp)
80002914:	00058613          	mv	a2,a1
80002918:	00080693          	mv	a3,a6
8000291c:	00050593          	mv	a1,a0
80002920:	00048513          	mv	a0,s1
80002924:	f59ff0ef          	jal	ra,8000287c <number_to_str>
80002928:	00812783          	lw	a5,8(sp)
8000292c:	00412803          	lw	a6,4(sp)
80002930:	00012703          	lw	a4,0(sp)
80002934:	00050893          	mv	a7,a0
80002938:	00040593          	mv	a1,s0
8000293c:	00078513          	mv	a0,a5
80002940:	00080613          	mv	a2,a6
80002944:	00070693          	mv	a3,a4
80002948:	00088413          	mv	s0,a7
8000294c:	df1ff0ef          	jal	ra,8000273c <__umoddi3>
80002950:	00900793          	li	a5,9
80002954:	02a7d663          	bge	a5,a0,80002980 <number_to_str+0x104>
80002958:	03750793          	addi	a5,a0,55
8000295c:	0ff7f793          	zext.b	a5,a5
80002960:	00140513          	addi	a0,s0,1
80002964:	00f40023          	sb	a5,0(s0)
80002968:	00050023          	sb	zero,0(a0)
8000296c:	01412083          	lw	ra,20(sp)
80002970:	01012403          	lw	s0,16(sp)
80002974:	00c12483          	lw	s1,12(sp)
80002978:	01810113          	addi	sp,sp,24
8000297c:	00008067          	ret
80002980:	03050793          	addi	a5,a0,48
80002984:	0ff7f793          	zext.b	a5,a5
80002988:	00140513          	addi	a0,s0,1
8000298c:	fd9ff06f          	j	80002964 <number_to_str+0xe8>

80002990 <vsprintf>:
80002990:	bd810113          	addi	sp,sp,-1064
80002994:	42112223          	sw	ra,1060(sp)
80002998:	42812023          	sw	s0,1056(sp)
8000299c:	40912e23          	sw	s1,1052(sp)
800029a0:	00a12423          	sw	a0,8(sp)
800029a4:	46058a63          	beqz	a1,80002e18 <vsprintf+0x488>
800029a8:	0005c683          	lbu	a3,0(a1) # ffff0000 <_end+0x7ffe4000>
800029ac:	00012223          	sw	zero,4(sp)
800029b0:	00012023          	sw	zero,0(sp)
800029b4:	00058493          	mv	s1,a1
800029b8:	00060313          	mv	t1,a2
800029bc:	00050893          	mv	a7,a0
800029c0:	02068063          	beqz	a3,800029e0 <vsprintf+0x50>
800029c4:	02500713          	li	a4,37
800029c8:	02e68e63          	beq	a3,a4,80002a04 <vsprintf+0x74>
800029cc:	00d88023          	sb	a3,0(a7)
800029d0:	0014c683          	lbu	a3,1(s1)
800029d4:	00188893          	addi	a7,a7,1
800029d8:	00148493          	addi	s1,s1,1
800029dc:	fe0694e3          	bnez	a3,800029c4 <vsprintf+0x34>
800029e0:	00088023          	sb	zero,0(a7)
800029e4:	00812783          	lw	a5,8(sp)
800029e8:	42412083          	lw	ra,1060(sp)
800029ec:	42012403          	lw	s0,1056(sp)
800029f0:	00188513          	addi	a0,a7,1
800029f4:	41c12483          	lw	s1,1052(sp)
800029f8:	40f50533          	sub	a0,a0,a5
800029fc:	42810113          	addi	sp,sp,1064
80002a00:	00008067          	ret
80002a04:	0014c603          	lbu	a2,1(s1)
80002a08:	0cd60a63          	beq	a2,a3,80002adc <vsprintf+0x14c>
80002a0c:	fe060693          	addi	a3,a2,-32
80002a10:	0ff6f693          	zext.b	a3,a3
80002a14:	00d00713          	li	a4,13
80002a18:	00d76c63          	bltu	a4,a3,80002a30 <vsprintf+0xa0>
80002a1c:	00003737          	lui	a4,0x3
80002a20:	80170713          	addi	a4,a4,-2047 # 2801 <_entry_offset+0x2801>
80002a24:	00d75733          	srl	a4,a4,a3
80002a28:	00177713          	andi	a4,a4,1
80002a2c:	0a071063          	bnez	a4,80002acc <vsprintf+0x13c>
80002a30:	00148493          	addi	s1,s1,1
80002a34:	00060593          	mv	a1,a2
80002a38:	03000713          	li	a4,48
80002a3c:	02000e13          	li	t3,32
80002a40:	00e59863          	bne	a1,a4,80002a50 <vsprintf+0xc0>
80002a44:	0014c583          	lbu	a1,1(s1)
80002a48:	03000e13          	li	t3,48
80002a4c:	00148493          	addi	s1,s1,1
80002a50:	fd058693          	addi	a3,a1,-48
80002a54:	0ff6f613          	zext.b	a2,a3
80002a58:	00900713          	li	a4,9
80002a5c:	00000813          	li	a6,0
80002a60:	02c76663          	bltu	a4,a2,80002a8c <vsprintf+0xfc>
80002a64:	00900513          	li	a0,9
80002a68:	0014c583          	lbu	a1,1(s1)
80002a6c:	00281713          	slli	a4,a6,0x2
80002a70:	01070733          	add	a4,a4,a6
80002a74:	00171713          	slli	a4,a4,0x1
80002a78:	00d70833          	add	a6,a4,a3
80002a7c:	fd058693          	addi	a3,a1,-48
80002a80:	0ff6f713          	zext.b	a4,a3
80002a84:	00148493          	addi	s1,s1,1
80002a88:	fee570e3          	bgeu	a0,a4,80002a68 <vsprintf+0xd8>
80002a8c:	02e00713          	li	a4,46
80002a90:	2ae58a63          	beq	a1,a4,80002d44 <vsprintf+0x3b4>
80002a94:	0004c683          	lbu	a3,0(s1)
80002a98:	07300713          	li	a4,115
80002a9c:	26e68463          	beq	a3,a4,80002d04 <vsprintf+0x374>
80002aa0:	f9d68713          	addi	a4,a3,-99
80002aa4:	0ff77713          	zext.b	a4,a4
80002aa8:	01500613          	li	a2,21
80002aac:	04e66463          	bltu	a2,a4,80002af4 <vsprintf+0x164>
80002ab0:	00001797          	auipc	a5,0x1
80002ab4:	aa478793          	addi	a5,a5,-1372 # 80003554 <state_known_crc+0x114>
80002ab8:	00271713          	slli	a4,a4,0x2
80002abc:	00f70733          	add	a4,a4,a5
80002ac0:	00072703          	lw	a4,0(a4)
80002ac4:	00f70733          	add	a4,a4,a5
80002ac8:	00070067          	jr	a4
80002acc:	0024c583          	lbu	a1,2(s1)
80002ad0:	00c12223          	sw	a2,4(sp)
80002ad4:	00248493          	addi	s1,s1,2
80002ad8:	f61ff06f          	j	80002a38 <vsprintf+0xa8>
80002adc:	00d88023          	sb	a3,0(a7)
80002ae0:	0024c683          	lbu	a3,2(s1)
80002ae4:	00188893          	addi	a7,a7,1
80002ae8:	00248493          	addi	s1,s1,2
80002aec:	ec069ce3          	bnez	a3,800029c4 <vsprintf+0x34>
80002af0:	ef1ff06f          	j	800029e0 <vsprintf+0x50>
80002af4:	06600713          	li	a4,102
80002af8:	2ee69463          	bne	a3,a4,80002de0 <vsprintf+0x450>
80002afc:	00012783          	lw	a5,0(sp)
80002b00:	02e00713          	li	a4,46
80002b04:	00148493          	addi	s1,s1,1
80002b08:	00e78023          	sb	a4,0(a5)
80002b0c:	000780a3          	sb	zero,1(a5)
80002b10:	00178793          	addi	a5,a5,1
80002b14:	0004c683          	lbu	a3,0(s1)
80002b18:	00f12023          	sw	a5,0(sp)
80002b1c:	ec1ff06f          	j	800029dc <vsprintf+0x4c>
80002b20:	00032583          	lw	a1,0(t1)
80002b24:	01c10413          	addi	s0,sp,28
80002b28:	00000713          	li	a4,0
80002b2c:	00430793          	addi	a5,t1,4
80002b30:	01000693          	li	a3,16
80002b34:	00000613          	li	a2,0
80002b38:	00040513          	mv	a0,s0
80002b3c:	01012a23          	sw	a6,20(sp)
80002b40:	01112823          	sw	a7,16(sp)
80002b44:	01c12c23          	sw	t3,24(sp)
80002b48:	00f12623          	sw	a5,12(sp)
80002b4c:	d31ff0ef          	jal	ra,8000287c <number_to_str>
80002b50:	00040513          	mv	a0,s0
80002b54:	378000ef          	jal	ra,80002ecc <strlen>
80002b58:	01412803          	lw	a6,20(sp)
80002b5c:	01012883          	lw	a7,16(sp)
80002b60:	40a80733          	sub	a4,a6,a0
80002b64:	2ae05263          	blez	a4,80002e08 <vsprintf+0x478>
80002b68:	01812e03          	lw	t3,24(sp)
80002b6c:	00e88733          	add	a4,a7,a4
80002b70:	00188893          	addi	a7,a7,1
80002b74:	ffc88fa3          	sb	t3,-1(a7)
80002b78:	fee89ce3          	bne	a7,a4,80002b70 <vsprintf+0x1e0>
80002b7c:	00070023          	sb	zero,0(a4)
80002b80:	00070513          	mv	a0,a4
80002b84:	00040593          	mv	a1,s0
80002b88:	00e12823          	sw	a4,16(sp)
80002b8c:	394000ef          	jal	ra,80002f20 <strcat>
80002b90:	00040513          	mv	a0,s0
80002b94:	338000ef          	jal	ra,80002ecc <strlen>
80002b98:	01012703          	lw	a4,16(sp)
80002b9c:	0014c683          	lbu	a3,1(s1)
80002ba0:	00c12303          	lw	t1,12(sp)
80002ba4:	00a708b3          	add	a7,a4,a0
80002ba8:	00148493          	addi	s1,s1,1
80002bac:	e31ff06f          	j	800029dc <vsprintf+0x4c>
80002bb0:	00032583          	lw	a1,0(t1)
80002bb4:	01c10413          	addi	s0,sp,28
80002bb8:	00000713          	li	a4,0
80002bbc:	00430793          	addi	a5,t1,4
80002bc0:	00a00693          	li	a3,10
80002bc4:	00000613          	li	a2,0
80002bc8:	00040513          	mv	a0,s0
80002bcc:	01012a23          	sw	a6,20(sp)
80002bd0:	01112823          	sw	a7,16(sp)
80002bd4:	01c12c23          	sw	t3,24(sp)
80002bd8:	00f12623          	sw	a5,12(sp)
80002bdc:	ca1ff0ef          	jal	ra,8000287c <number_to_str>
80002be0:	00040513          	mv	a0,s0
80002be4:	2e8000ef          	jal	ra,80002ecc <strlen>
80002be8:	01412803          	lw	a6,20(sp)
80002bec:	01012883          	lw	a7,16(sp)
80002bf0:	40a80733          	sub	a4,a6,a0
80002bf4:	20e05a63          	blez	a4,80002e08 <vsprintf+0x478>
80002bf8:	01812e03          	lw	t3,24(sp)
80002bfc:	00e88733          	add	a4,a7,a4
80002c00:	00188893          	addi	a7,a7,1
80002c04:	ffc88fa3          	sb	t3,-1(a7)
80002c08:	fee89ce3          	bne	a7,a4,80002c00 <vsprintf+0x270>
80002c0c:	f71ff06f          	j	80002b7c <vsprintf+0x1ec>
80002c10:	0014c683          	lbu	a3,1(s1)
80002c14:	06400713          	li	a4,100
80002c18:	dce690e3          	bne	a3,a4,800029d8 <vsprintf+0x48>
80002c1c:	00032583          	lw	a1,0(t1)
80002c20:	01c10413          	addi	s0,sp,28
80002c24:	00000713          	li	a4,0
80002c28:	00430793          	addi	a5,t1,4
80002c2c:	00a00693          	li	a3,10
80002c30:	00000613          	li	a2,0
80002c34:	00040513          	mv	a0,s0
80002c38:	01012c23          	sw	a6,24(sp)
80002c3c:	01112823          	sw	a7,16(sp)
80002c40:	01c12a23          	sw	t3,20(sp)
80002c44:	00f12623          	sw	a5,12(sp)
80002c48:	c35ff0ef          	jal	ra,8000287c <number_to_str>
80002c4c:	00040513          	mv	a0,s0
80002c50:	27c000ef          	jal	ra,80002ecc <strlen>
80002c54:	01812803          	lw	a6,24(sp)
80002c58:	01012883          	lw	a7,16(sp)
80002c5c:	40a80733          	sub	a4,a6,a0
80002c60:	1ae05863          	blez	a4,80002e10 <vsprintf+0x480>
80002c64:	01412e03          	lw	t3,20(sp)
80002c68:	00e88733          	add	a4,a7,a4
80002c6c:	00188893          	addi	a7,a7,1
80002c70:	ffc88fa3          	sb	t3,-1(a7)
80002c74:	fee89ce3          	bne	a7,a4,80002c6c <vsprintf+0x2dc>
80002c78:	00070023          	sb	zero,0(a4)
80002c7c:	00070513          	mv	a0,a4
80002c80:	00040593          	mv	a1,s0
80002c84:	00e12823          	sw	a4,16(sp)
80002c88:	298000ef          	jal	ra,80002f20 <strcat>
80002c8c:	00040513          	mv	a0,s0
80002c90:	23c000ef          	jal	ra,80002ecc <strlen>
80002c94:	01012703          	lw	a4,16(sp)
80002c98:	00148613          	addi	a2,s1,1
80002c9c:	0024c683          	lbu	a3,2(s1)
80002ca0:	00060493          	mv	s1,a2
80002ca4:	00c12303          	lw	t1,12(sp)
80002ca8:	00a708b3          	add	a7,a4,a0
80002cac:	00148493          	addi	s1,s1,1
80002cb0:	d2dff06f          	j	800029dc <vsprintf+0x4c>
80002cb4:	00032583          	lw	a1,0(t1)
80002cb8:	00430793          	addi	a5,t1,4
80002cbc:	00f12623          	sw	a5,12(sp)
80002cc0:	0a05cc63          	bltz	a1,80002d78 <vsprintf+0x3e8>
80002cc4:	00412783          	lw	a5,4(sp)
80002cc8:	02b00713          	li	a4,43
80002ccc:	12e78063          	beq	a5,a4,80002dec <vsprintf+0x45c>
80002cd0:	01c10413          	addi	s0,sp,28
80002cd4:	02000713          	li	a4,32
80002cd8:	00812023          	sw	s0,0(sp)
80002cdc:	10e78863          	beq	a5,a4,80002dec <vsprintf+0x45c>
80002ce0:	00012223          	sw	zero,4(sp)
80002ce4:	0ac0006f          	j	80002d90 <vsprintf+0x400>
80002ce8:	00032703          	lw	a4,0(t1)
80002cec:	00188893          	addi	a7,a7,1
80002cf0:	00430313          	addi	t1,t1,4
80002cf4:	fee88fa3          	sb	a4,-1(a7)
80002cf8:	0014c683          	lbu	a3,1(s1)
80002cfc:	00148493          	addi	s1,s1,1
80002d00:	cddff06f          	j	800029dc <vsprintf+0x4c>
80002d04:	00032783          	lw	a5,0(t1)
80002d08:	00088513          	mv	a0,a7
80002d0c:	00088023          	sb	zero,0(a7)
80002d10:	00078593          	mv	a1,a5
80002d14:	01112623          	sw	a7,12(sp)
80002d18:	00430413          	addi	s0,t1,4
80002d1c:	00f12023          	sw	a5,0(sp)
80002d20:	200000ef          	jal	ra,80002f20 <strcat>
80002d24:	00012503          	lw	a0,0(sp)
80002d28:	00148493          	addi	s1,s1,1
80002d2c:	1a0000ef          	jal	ra,80002ecc <strlen>
80002d30:	00c12883          	lw	a7,12(sp)
80002d34:	0004c683          	lbu	a3,0(s1)
80002d38:	00040313          	mv	t1,s0
80002d3c:	00a888b3          	add	a7,a7,a0
80002d40:	c9dff06f          	j	800029dc <vsprintf+0x4c>
80002d44:	0014c683          	lbu	a3,1(s1)
80002d48:	00900613          	li	a2,9
80002d4c:	00148793          	addi	a5,s1,1
80002d50:	fd068713          	addi	a4,a3,-48
80002d54:	0ff77713          	zext.b	a4,a4
80002d58:	00e66c63          	bltu	a2,a4,80002d70 <vsprintf+0x3e0>
80002d5c:	0017c683          	lbu	a3,1(a5)
80002d60:	00178793          	addi	a5,a5,1
80002d64:	fd068713          	addi	a4,a3,-48
80002d68:	0ff77713          	zext.b	a4,a4
80002d6c:	fee678e3          	bgeu	a2,a4,80002d5c <vsprintf+0x3cc>
80002d70:	00078493          	mv	s1,a5
80002d74:	d25ff06f          	j	80002a98 <vsprintf+0x108>
80002d78:	02d00713          	li	a4,45
80002d7c:	01d10793          	addi	a5,sp,29
80002d80:	00e10e23          	sb	a4,28(sp)
80002d84:	40b005b3          	neg	a1,a1
80002d88:	00f12023          	sw	a5,0(sp)
80002d8c:	01c10413          	addi	s0,sp,28
80002d90:	00012503          	lw	a0,0(sp)
80002d94:	00000713          	li	a4,0
80002d98:	00a00693          	li	a3,10
80002d9c:	00000613          	li	a2,0
80002da0:	01012a23          	sw	a6,20(sp)
80002da4:	01112823          	sw	a7,16(sp)
80002da8:	01c12c23          	sw	t3,24(sp)
80002dac:	ad1ff0ef          	jal	ra,8000287c <number_to_str>
80002db0:	00040513          	mv	a0,s0
80002db4:	118000ef          	jal	ra,80002ecc <strlen>
80002db8:	01412803          	lw	a6,20(sp)
80002dbc:	01012883          	lw	a7,16(sp)
80002dc0:	40a80733          	sub	a4,a6,a0
80002dc4:	04e05263          	blez	a4,80002e08 <vsprintf+0x478>
80002dc8:	01812e03          	lw	t3,24(sp)
80002dcc:	00e88733          	add	a4,a7,a4
80002dd0:	00188893          	addi	a7,a7,1
80002dd4:	ffc88fa3          	sb	t3,-1(a7)
80002dd8:	fee89ce3          	bne	a7,a4,80002dd0 <vsprintf+0x440>
80002ddc:	da1ff06f          	j	80002b7c <vsprintf+0x1ec>
80002de0:	0014c683          	lbu	a3,1(s1)
80002de4:	00148493          	addi	s1,s1,1
80002de8:	bf5ff06f          	j	800029dc <vsprintf+0x4c>
80002dec:	00412783          	lw	a5,4(sp)
80002df0:	01c10413          	addi	s0,sp,28
80002df4:	00012223          	sw	zero,4(sp)
80002df8:	00f10e23          	sb	a5,28(sp)
80002dfc:	01d10793          	addi	a5,sp,29
80002e00:	00f12023          	sw	a5,0(sp)
80002e04:	f8dff06f          	j	80002d90 <vsprintf+0x400>
80002e08:	00088713          	mv	a4,a7
80002e0c:	d71ff06f          	j	80002b7c <vsprintf+0x1ec>
80002e10:	00088713          	mv	a4,a7
80002e14:	e65ff06f          	j	80002c78 <vsprintf+0x2e8>
80002e18:	08100613          	li	a2,129
80002e1c:	00000597          	auipc	a1,0x0
80002e20:	6cc58593          	addi	a1,a1,1740 # 800034e8 <state_known_crc+0xa8>
80002e24:	00000517          	auipc	a0,0x0
80002e28:	71450513          	addi	a0,a0,1812 # 80003538 <state_known_crc+0xf8>
80002e2c:	00c000ef          	jal	ra,80002e38 <printf>
80002e30:	00100513          	li	a0,1
80002e34:	d54ff0ef          	jal	ra,80002388 <halt>

80002e38 <printf>:
80002e38:	bd810113          	addi	sp,sp,-1064
80002e3c:	40112823          	sw	ra,1040(sp)
80002e40:	40812623          	sw	s0,1036(sp)
80002e44:	40912423          	sw	s1,1032(sp)
80002e48:	40b12a23          	sw	a1,1044(sp)
80002e4c:	40c12c23          	sw	a2,1048(sp)
80002e50:	40d12e23          	sw	a3,1052(sp)
80002e54:	42e12023          	sw	a4,1056(sp)
80002e58:	42f12223          	sw	a5,1060(sp)
80002e5c:	04050863          	beqz	a0,80002eac <printf+0x74>
80002e60:	41410613          	addi	a2,sp,1044
80002e64:	00050593          	mv	a1,a0
80002e68:	00810513          	addi	a0,sp,8
80002e6c:	00c12223          	sw	a2,4(sp)
80002e70:	b21ff0ef          	jal	ra,80002990 <vsprintf>
80002e74:	00a12023          	sw	a0,0(sp)
80002e78:	00a05e63          	blez	a0,80002e94 <printf+0x5c>
80002e7c:	00810493          	addi	s1,sp,8
80002e80:	00a48433          	add	s0,s1,a0
80002e84:	0004c503          	lbu	a0,0(s1)
80002e88:	00148493          	addi	s1,s1,1
80002e8c:	cf0ff0ef          	jal	ra,8000237c <putch>
80002e90:	fe849ae3          	bne	s1,s0,80002e84 <printf+0x4c>
80002e94:	41012083          	lw	ra,1040(sp)
80002e98:	40c12403          	lw	s0,1036(sp)
80002e9c:	00012503          	lw	a0,0(sp)
80002ea0:	40812483          	lw	s1,1032(sp)
80002ea4:	42810113          	addi	sp,sp,1064
80002ea8:	00008067          	ret
80002eac:	07200613          	li	a2,114
80002eb0:	00000597          	auipc	a1,0x0
80002eb4:	63858593          	addi	a1,a1,1592 # 800034e8 <state_known_crc+0xa8>
80002eb8:	00000517          	auipc	a0,0x0
80002ebc:	68050513          	addi	a0,a0,1664 # 80003538 <state_known_crc+0xf8>
80002ec0:	f79ff0ef          	jal	ra,80002e38 <printf>
80002ec4:	00100513          	li	a0,1
80002ec8:	cc0ff0ef          	jal	ra,80002388 <halt>

80002ecc <strlen>:
80002ecc:	02050663          	beqz	a0,80002ef8 <strlen+0x2c>
80002ed0:	00054783          	lbu	a5,0(a0)
80002ed4:	00050713          	mv	a4,a0
80002ed8:	00000513          	li	a0,0
80002edc:	00078c63          	beqz	a5,80002ef4 <strlen+0x28>
80002ee0:	00150513          	addi	a0,a0,1
80002ee4:	00a707b3          	add	a5,a4,a0
80002ee8:	0007c783          	lbu	a5,0(a5)
80002eec:	fe079ae3          	bnez	a5,80002ee0 <strlen+0x14>
80002ef0:	00008067          	ret
80002ef4:	00008067          	ret
80002ef8:	ffc10113          	addi	sp,sp,-4
80002efc:	00800613          	li	a2,8
80002f00:	00000597          	auipc	a1,0x0
80002f04:	6ac58593          	addi	a1,a1,1708 # 800035ac <state_known_crc+0x16c>
80002f08:	00000517          	auipc	a0,0x0
80002f0c:	63050513          	addi	a0,a0,1584 # 80003538 <state_known_crc+0xf8>
80002f10:	00112023          	sw	ra,0(sp)
80002f14:	f25ff0ef          	jal	ra,80002e38 <printf>
80002f18:	00100513          	li	a0,1
80002f1c:	c6cff0ef          	jal	ra,80002388 <halt>

80002f20 <strcat>:
80002f20:	00054783          	lbu	a5,0(a0)
80002f24:	02078663          	beqz	a5,80002f50 <strcat+0x30>
80002f28:	00050793          	mv	a5,a0
80002f2c:	0017c703          	lbu	a4,1(a5)
80002f30:	00178793          	addi	a5,a5,1
80002f34:	fe071ce3          	bnez	a4,80002f2c <strcat+0xc>
80002f38:	0005c703          	lbu	a4,0(a1)
80002f3c:	00178793          	addi	a5,a5,1
80002f40:	00158593          	addi	a1,a1,1
80002f44:	fee78fa3          	sb	a4,-1(a5)
80002f48:	fe0718e3          	bnez	a4,80002f38 <strcat+0x18>
80002f4c:	00008067          	ret
80002f50:	0005c703          	lbu	a4,0(a1)
80002f54:	00050793          	mv	a5,a0
80002f58:	00178793          	addi	a5,a5,1
80002f5c:	fee78fa3          	sb	a4,-1(a5)
80002f60:	00158593          	addi	a1,a1,1
80002f64:	fc071ae3          	bnez	a4,80002f38 <strcat+0x18>
80002f68:	fe5ff06f          	j	80002f4c <strcat+0x2c>
