
/home/jimple/Documents/ysyx/ysyx-workbench/am-kernels/benchmarks/microbench/build/microbench-riscv64-nemu.elf:     file format elf64-littleriscv


Disassembly of section .text:

0000000080000000 <_start>:
    80000000:	00000413          	li	s0,0
    80000004:	0000f117          	auipc	sp,0xf
    80000008:	ffc10113          	addi	sp,sp,-4 # 8000f000 <_end>
    8000000c:	5fd040ef          	jal	ra,80004e08 <_trm_init>

0000000080000010 <_ZN5Dinic3DFSEii>:
    80000010:	00c52f03          	lw	t5,12(a0)
    80000014:	e5010113          	addi	sp,sp,-432
    80000018:	1a113423          	sd	ra,424(sp)
    8000001c:	1a813023          	sd	s0,416(sp)
    80000020:	18913c23          	sd	s1,408(sp)
    80000024:	19213823          	sd	s2,400(sp)
    80000028:	19313423          	sd	s3,392(sp)
    8000002c:	19413023          	sd	s4,384(sp)
    80000030:	17513c23          	sd	s5,376(sp)
    80000034:	17613823          	sd	s6,368(sp)
    80000038:	17713423          	sd	s7,360(sp)
    8000003c:	17813023          	sd	s8,352(sp)
    80000040:	15913c23          	sd	s9,344(sp)
    80000044:	15a13823          	sd	s10,336(sp)
    80000048:	15b13423          	sd	s11,328(sp)
    8000004c:	00060313          	mv	t1,a2
    80000050:	08bf02e3          	beq	t5,a1,800008d4 <_ZN5Dinic3DFSEii+0x8c4>
    80000054:	00013423          	sd	zero,8(sp)
    80000058:	02060ee3          	beqz	a2,80000894 <_ZN5Dinic3DFSEii+0x884>
    8000005c:	03053683          	ld	a3,48(a0)
    80000060:	00259793          	slli	a5,a1,0x2
    80000064:	fff00713          	li	a4,-1
    80000068:	02d13423          	sd	a3,40(sp)
    8000006c:	00f686b3          	add	a3,a3,a5
    80000070:	0006a903          	lw	s2,0(a3)
    80000074:	00050413          	mv	s0,a0
    80000078:	00e90ee3          	beq	s2,a4,80000894 <_ZN5Dinic3DFSEii+0x884>
    8000007c:	fff00b13          	li	s6,-1
    80000080:	0180006f          	j	80000098 <_ZN5Dinic3DFSEii+0x88>
    80000084:	02043703          	ld	a4,32(s0)
    80000088:	00291913          	slli	s2,s2,0x2
    8000008c:	01270933          	add	s2,a4,s2
    80000090:	00092903          	lw	s2,0(s2)
    80000094:	016900e3          	beq	s2,s6,80000894 <_ZN5Dinic3DFSEii+0x884>
    80000098:	01043a03          	ld	s4,16(s0)
    8000009c:	00491493          	slli	s1,s2,0x4
    800000a0:	02843983          	ld	s3,40(s0)
    800000a4:	009a04b3          	add	s1,s4,s1
    800000a8:	0044a583          	lw	a1,4(s1)
    800000ac:	00f98733          	add	a4,s3,a5
    800000b0:	00072683          	lw	a3,0(a4)
    800000b4:	00259613          	slli	a2,a1,0x2
    800000b8:	00c98db3          	add	s11,s3,a2
    800000bc:	000da703          	lw	a4,0(s11)
    800000c0:	0016869b          	addiw	a3,a3,1
    800000c4:	fce690e3          	bne	a3,a4,80000084 <_ZN5Dinic3DFSEii+0x74>
    800000c8:	0084a683          	lw	a3,8(s1)
    800000cc:	00c4a503          	lw	a0,12(s1)
    800000d0:	40a6853b          	subw	a0,a3,a0
    800000d4:	00050693          	mv	a3,a0
    800000d8:	00a35463          	bge	t1,a0,800000e0 <_ZN5Dinic3DFSEii+0xd0>
    800000dc:	0003069b          	sext.w	a3,t1
    800000e0:	00d13c23          	sd	a3,24(sp)
    800000e4:	02bf04e3          	beq	t5,a1,8000090c <_ZN5Dinic3DFSEii+0x8fc>
    800000e8:	f8068ee3          	beqz	a3,80000084 <_ZN5Dinic3DFSEii+0x74>
    800000ec:	02813683          	ld	a3,40(sp)
    800000f0:	00c68633          	add	a2,a3,a2
    800000f4:	00062a83          	lw	s5,0(a2)
    800000f8:	f96a86e3          	beq	s5,s6,80000084 <_ZN5Dinic3DFSEii+0x74>
    800000fc:	02013023          	sd	zero,32(sp)
    80000100:	01c0006f          	j	8000011c <_ZN5Dinic3DFSEii+0x10c>
    80000104:	02043703          	ld	a4,32(s0)
    80000108:	002a9a93          	slli	s5,s5,0x2
    8000010c:	01570ab3          	add	s5,a4,s5
    80000110:	000aaa83          	lw	s5,0(s5)
    80000114:	736a8e63          	beq	s5,s6,80000850 <_ZN5Dinic3DFSEii+0x840>
    80000118:	000da703          	lw	a4,0(s11)
    8000011c:	004a9c13          	slli	s8,s5,0x4
    80000120:	018a0c33          	add	s8,s4,s8
    80000124:	004c2603          	lw	a2,4(s8)
    80000128:	0017071b          	addiw	a4,a4,1
    8000012c:	00261693          	slli	a3,a2,0x2
    80000130:	00d98833          	add	a6,s3,a3
    80000134:	00082583          	lw	a1,0(a6)
    80000138:	fcb716e3          	bne	a4,a1,80000104 <_ZN5Dinic3DFSEii+0xf4>
    8000013c:	008c2703          	lw	a4,8(s8)
    80000140:	00cc2503          	lw	a0,12(s8)
    80000144:	01813883          	ld	a7,24(sp)
    80000148:	40a7053b          	subw	a0,a4,a0
    8000014c:	00050713          	mv	a4,a0
    80000150:	00a8d463          	bge	a7,a0,80000158 <_ZN5Dinic3DFSEii+0x148>
    80000154:	0008871b          	sext.w	a4,a7
    80000158:	04e13023          	sd	a4,64(sp)
    8000015c:	7ccf0863          	beq	t5,a2,8000092c <_ZN5Dinic3DFSEii+0x91c>
    80000160:	fa0702e3          	beqz	a4,80000104 <_ZN5Dinic3DFSEii+0xf4>
    80000164:	02813703          	ld	a4,40(sp)
    80000168:	00d706b3          	add	a3,a4,a3
    8000016c:	0006ab83          	lw	s7,0(a3)
    80000170:	f96b8ae3          	beq	s7,s6,80000104 <_ZN5Dinic3DFSEii+0xf4>
    80000174:	04013423          	sd	zero,72(sp)
    80000178:	01c0006f          	j	80000194 <_ZN5Dinic3DFSEii+0x184>
    8000017c:	02043703          	ld	a4,32(s0)
    80000180:	002b9b93          	slli	s7,s7,0x2
    80000184:	01770bb3          	add	s7,a4,s7
    80000188:	000bab83          	lw	s7,0(s7)
    8000018c:	676b8263          	beq	s7,s6,800007f0 <_ZN5Dinic3DFSEii+0x7e0>
    80000190:	00082583          	lw	a1,0(a6)
    80000194:	004b9d13          	slli	s10,s7,0x4
    80000198:	01aa0d33          	add	s10,s4,s10
    8000019c:	004d2683          	lw	a3,4(s10)
    800001a0:	0015859b          	addiw	a1,a1,1
    800001a4:	00269713          	slli	a4,a3,0x2
    800001a8:	00e98eb3          	add	t4,s3,a4
    800001ac:	000ea503          	lw	a0,0(t4)
    800001b0:	fca596e3          	bne	a1,a0,8000017c <_ZN5Dinic3DFSEii+0x16c>
    800001b4:	008d2603          	lw	a2,8(s10)
    800001b8:	00cd2583          	lw	a1,12(s10)
    800001bc:	04013883          	ld	a7,64(sp)
    800001c0:	40b605bb          	subw	a1,a2,a1
    800001c4:	00058613          	mv	a2,a1
    800001c8:	00b8d463          	bge	a7,a1,800001d0 <_ZN5Dinic3DFSEii+0x1c0>
    800001cc:	0008861b          	sext.w	a2,a7
    800001d0:	06c13423          	sd	a2,104(sp)
    800001d4:	76df0c63          	beq	t5,a3,8000094c <_ZN5Dinic3DFSEii+0x93c>
    800001d8:	fa0602e3          	beqz	a2,8000017c <_ZN5Dinic3DFSEii+0x16c>
    800001dc:	02813683          	ld	a3,40(sp)
    800001e0:	00e68733          	add	a4,a3,a4
    800001e4:	00072c83          	lw	s9,0(a4)
    800001e8:	f96c8ae3          	beq	s9,s6,8000017c <_ZN5Dinic3DFSEii+0x16c>
    800001ec:	06013823          	sd	zero,112(sp)
    800001f0:	01c0006f          	j	8000020c <_ZN5Dinic3DFSEii+0x1fc>
    800001f4:	02043703          	ld	a4,32(s0)
    800001f8:	002c9c93          	slli	s9,s9,0x2
    800001fc:	01970cb3          	add	s9,a4,s9
    80000200:	000cac83          	lw	s9,0(s9)
    80000204:	596c8663          	beq	s9,s6,80000790 <_ZN5Dinic3DFSEii+0x780>
    80000208:	000ea503          	lw	a0,0(t4)
    8000020c:	004c9693          	slli	a3,s9,0x4
    80000210:	00da06b3          	add	a3,s4,a3
    80000214:	0046a603          	lw	a2,4(a3)
    80000218:	0015051b          	addiw	a0,a0,1
    8000021c:	00261713          	slli	a4,a2,0x2
    80000220:	00e98fb3          	add	t6,s3,a4
    80000224:	000fa583          	lw	a1,0(t6)
    80000228:	fcb516e3          	bne	a0,a1,800001f4 <_ZN5Dinic3DFSEii+0x1e4>
    8000022c:	00c6a503          	lw	a0,12(a3)
    80000230:	0086a883          	lw	a7,8(a3)
    80000234:	06813e03          	ld	t3,104(sp)
    80000238:	40a888bb          	subw	a7,a7,a0
    8000023c:	00088513          	mv	a0,a7
    80000240:	691e4e63          	blt	t3,a7,800008dc <_ZN5Dinic3DFSEii+0x8cc>
    80000244:	08a13423          	sd	a0,136(sp)
    80000248:	68cf0e63          	beq	t5,a2,800008e4 <_ZN5Dinic3DFSEii+0x8d4>
    8000024c:	fa0504e3          	beqz	a0,800001f4 <_ZN5Dinic3DFSEii+0x1e4>
    80000250:	02813603          	ld	a2,40(sp)
    80000254:	00e60733          	add	a4,a2,a4
    80000258:	00072703          	lw	a4,0(a4)
    8000025c:	f9670ce3          	beq	a4,s6,800001f4 <_ZN5Dinic3DFSEii+0x1e4>
    80000260:	08013823          	sd	zero,144(sp)
    80000264:	01c0006f          	j	80000280 <_ZN5Dinic3DFSEii+0x270>
    80000268:	02043603          	ld	a2,32(s0)
    8000026c:	00271713          	slli	a4,a4,0x2
    80000270:	00e60733          	add	a4,a2,a4
    80000274:	00072703          	lw	a4,0(a4)
    80000278:	67670a63          	beq	a4,s6,800008ec <_ZN5Dinic3DFSEii+0x8dc>
    8000027c:	000fa583          	lw	a1,0(t6)
    80000280:	00471e13          	slli	t3,a4,0x4
    80000284:	01ca0e33          	add	t3,s4,t3
    80000288:	004e2883          	lw	a7,4(t3)
    8000028c:	0015859b          	addiw	a1,a1,1
    80000290:	00289513          	slli	a0,a7,0x2
    80000294:	00a982b3          	add	t0,s3,a0
    80000298:	0002a603          	lw	a2,0(t0)
    8000029c:	fcc596e3          	bne	a1,a2,80000268 <_ZN5Dinic3DFSEii+0x258>
    800002a0:	008e2583          	lw	a1,8(t3)
    800002a4:	00058393          	mv	t2,a1
    800002a8:	00ce2583          	lw	a1,12(t3)
    800002ac:	40b383bb          	subw	t2,t2,a1
    800002b0:	00038593          	mv	a1,t2
    800002b4:	00712823          	sw	t2,16(sp)
    800002b8:	08813383          	ld	t2,136(sp)
    800002bc:	00b3d463          	bge	t2,a1,800002c4 <_ZN5Dinic3DFSEii+0x2b4>
    800002c0:	00712823          	sw	t2,16(sp)
    800002c4:	01012583          	lw	a1,16(sp)
    800002c8:	0ab13023          	sd	a1,160(sp)
    800002cc:	631f0663          	beq	t5,a7,800008f8 <_ZN5Dinic3DFSEii+0x8e8>
    800002d0:	f8058ce3          	beqz	a1,80000268 <_ZN5Dinic3DFSEii+0x258>
    800002d4:	02813583          	ld	a1,40(sp)
    800002d8:	00a585b3          	add	a1,a1,a0
    800002dc:	0005a883          	lw	a7,0(a1)
    800002e0:	f96884e3          	beq	a7,s6,80000268 <_ZN5Dinic3DFSEii+0x258>
    800002e4:	0a013423          	sd	zero,168(sp)
    800002e8:	01c0006f          	j	80000304 <_ZN5Dinic3DFSEii+0x2f4>
    800002ec:	02043603          	ld	a2,32(s0)
    800002f0:	00289893          	slli	a7,a7,0x2
    800002f4:	01160633          	add	a2,a2,a7
    800002f8:	00062883          	lw	a7,0(a2)
    800002fc:	61688263          	beq	a7,s6,80000900 <_ZN5Dinic3DFSEii+0x8f0>
    80000300:	0002a603          	lw	a2,0(t0)
    80000304:	00489593          	slli	a1,a7,0x4
    80000308:	00ba05b3          	add	a1,s4,a1
    8000030c:	0045a503          	lw	a0,4(a1)
    80000310:	04b13c23          	sd	a1,88(sp)
    80000314:	0016061b          	addiw	a2,a2,1
    80000318:	00251593          	slli	a1,a0,0x2
    8000031c:	00b13823          	sd	a1,16(sp)
    80000320:	00b985b3          	add	a1,s3,a1
    80000324:	02b13c23          	sd	a1,56(sp)
    80000328:	0005a583          	lw	a1,0(a1)
    8000032c:	fcb610e3          	bne	a2,a1,800002ec <_ZN5Dinic3DFSEii+0x2dc>
    80000330:	05813603          	ld	a2,88(sp)
    80000334:	00862383          	lw	t2,8(a2)
    80000338:	00c62603          	lw	a2,12(a2)
    8000033c:	40c383bb          	subw	t2,t2,a2
    80000340:	00038613          	mv	a2,t2
    80000344:	02712823          	sw	t2,48(sp)
    80000348:	0a013383          	ld	t2,160(sp)
    8000034c:	00c3d463          	bge	t2,a2,80000354 <_ZN5Dinic3DFSEii+0x344>
    80000350:	02712823          	sw	t2,48(sp)
    80000354:	03012603          	lw	a2,48(sp)
    80000358:	0ac13c23          	sd	a2,184(sp)
    8000035c:	5aaf0e63          	beq	t5,a0,80000918 <_ZN5Dinic3DFSEii+0x908>
    80000360:	f80606e3          	beqz	a2,800002ec <_ZN5Dinic3DFSEii+0x2dc>
    80000364:	01013503          	ld	a0,16(sp)
    80000368:	02813603          	ld	a2,40(sp)
    8000036c:	00a60633          	add	a2,a2,a0
    80000370:	00062603          	lw	a2,0(a2)
    80000374:	00c13823          	sd	a2,16(sp)
    80000378:	f7660ae3          	beq	a2,s6,800002ec <_ZN5Dinic3DFSEii+0x2dc>
    8000037c:	0c013023          	sd	zero,192(sp)
    80000380:	0280006f          	j	800003a8 <_ZN5Dinic3DFSEii+0x398>
    80000384:	01013583          	ld	a1,16(sp)
    80000388:	02043603          	ld	a2,32(s0)
    8000038c:	00259593          	slli	a1,a1,0x2
    80000390:	00b60633          	add	a2,a2,a1
    80000394:	00062603          	lw	a2,0(a2)
    80000398:	00c13823          	sd	a2,16(sp)
    8000039c:	59660263          	beq	a2,s6,80000920 <_ZN5Dinic3DFSEii+0x910>
    800003a0:	03813603          	ld	a2,56(sp)
    800003a4:	00062583          	lw	a1,0(a2)
    800003a8:	01013603          	ld	a2,16(sp)
    800003ac:	0015859b          	addiw	a1,a1,1
    800003b0:	00461613          	slli	a2,a2,0x4
    800003b4:	00ca0633          	add	a2,s4,a2
    800003b8:	00462503          	lw	a0,4(a2)
    800003bc:	06c13c23          	sd	a2,120(sp)
    800003c0:	00251613          	slli	a2,a0,0x2
    800003c4:	02c13823          	sd	a2,48(sp)
    800003c8:	00c98633          	add	a2,s3,a2
    800003cc:	06c13023          	sd	a2,96(sp)
    800003d0:	00062603          	lw	a2,0(a2)
    800003d4:	fac598e3          	bne	a1,a2,80000384 <_ZN5Dinic3DFSEii+0x374>
    800003d8:	07813583          	ld	a1,120(sp)
    800003dc:	0085a383          	lw	t2,8(a1)
    800003e0:	00c5a583          	lw	a1,12(a1)
    800003e4:	40b383bb          	subw	t2,t2,a1
    800003e8:	00038593          	mv	a1,t2
    800003ec:	04712823          	sw	t2,80(sp)
    800003f0:	0b813383          	ld	t2,184(sp)
    800003f4:	00b3d463          	bge	t2,a1,800003fc <_ZN5Dinic3DFSEii+0x3ec>
    800003f8:	04712823          	sw	t2,80(sp)
    800003fc:	05012583          	lw	a1,80(sp)
    80000400:	0cb13423          	sd	a1,200(sp)
    80000404:	52af0a63          	beq	t5,a0,80000938 <_ZN5Dinic3DFSEii+0x928>
    80000408:	f6058ee3          	beqz	a1,80000384 <_ZN5Dinic3DFSEii+0x374>
    8000040c:	03013503          	ld	a0,48(sp)
    80000410:	02813583          	ld	a1,40(sp)
    80000414:	00a585b3          	add	a1,a1,a0
    80000418:	0005a583          	lw	a1,0(a1)
    8000041c:	02b13823          	sd	a1,48(sp)
    80000420:	f76582e3          	beq	a1,s6,80000384 <_ZN5Dinic3DFSEii+0x374>
    80000424:	0c013823          	sd	zero,208(sp)
    80000428:	0280006f          	j	80000450 <_ZN5Dinic3DFSEii+0x440>
    8000042c:	03013583          	ld	a1,48(sp)
    80000430:	02043603          	ld	a2,32(s0)
    80000434:	00259593          	slli	a1,a1,0x2
    80000438:	00b60633          	add	a2,a2,a1
    8000043c:	00062603          	lw	a2,0(a2)
    80000440:	02c13823          	sd	a2,48(sp)
    80000444:	4f660e63          	beq	a2,s6,80000940 <_ZN5Dinic3DFSEii+0x930>
    80000448:	06013603          	ld	a2,96(sp)
    8000044c:	00062603          	lw	a2,0(a2)
    80000450:	03013583          	ld	a1,48(sp)
    80000454:	0016061b          	addiw	a2,a2,1
    80000458:	00459593          	slli	a1,a1,0x4
    8000045c:	00ba05b3          	add	a1,s4,a1
    80000460:	0045a503          	lw	a0,4(a1)
    80000464:	08b13c23          	sd	a1,152(sp)
    80000468:	00251593          	slli	a1,a0,0x2
    8000046c:	04b13823          	sd	a1,80(sp)
    80000470:	00b985b3          	add	a1,s3,a1
    80000474:	08b13023          	sd	a1,128(sp)
    80000478:	0005a583          	lw	a1,0(a1)
    8000047c:	fab618e3          	bne	a2,a1,8000042c <_ZN5Dinic3DFSEii+0x41c>
    80000480:	09813603          	ld	a2,152(sp)
    80000484:	00862383          	lw	t2,8(a2)
    80000488:	00c62603          	lw	a2,12(a2)
    8000048c:	40c383bb          	subw	t2,t2,a2
    80000490:	00038613          	mv	a2,t2
    80000494:	0a712823          	sw	t2,176(sp)
    80000498:	0c813383          	ld	t2,200(sp)
    8000049c:	00c3d463          	bge	t2,a2,800004a4 <_ZN5Dinic3DFSEii+0x494>
    800004a0:	0a712823          	sw	t2,176(sp)
    800004a4:	0b012603          	lw	a2,176(sp)
    800004a8:	0cc13c23          	sd	a2,216(sp)
    800004ac:	4aaf0663          	beq	t5,a0,80000958 <_ZN5Dinic3DFSEii+0x948>
    800004b0:	f6060ee3          	beqz	a2,8000042c <_ZN5Dinic3DFSEii+0x41c>
    800004b4:	05013503          	ld	a0,80(sp)
    800004b8:	02813603          	ld	a2,40(sp)
    800004bc:	00a60633          	add	a2,a2,a0
    800004c0:	00062603          	lw	a2,0(a2)
    800004c4:	04c13823          	sd	a2,80(sp)
    800004c8:	f76602e3          	beq	a2,s6,8000042c <_ZN5Dinic3DFSEii+0x41c>
    800004cc:	0e013023          	sd	zero,224(sp)
    800004d0:	0280006f          	j	800004f8 <_ZN5Dinic3DFSEii+0x4e8>
    800004d4:	05013583          	ld	a1,80(sp)
    800004d8:	02043603          	ld	a2,32(s0)
    800004dc:	00259593          	slli	a1,a1,0x2
    800004e0:	00b60633          	add	a2,a2,a1
    800004e4:	00062603          	lw	a2,0(a2)
    800004e8:	04c13823          	sd	a2,80(sp)
    800004ec:	47660a63          	beq	a2,s6,80000960 <_ZN5Dinic3DFSEii+0x950>
    800004f0:	08013603          	ld	a2,128(sp)
    800004f4:	00062583          	lw	a1,0(a2)
    800004f8:	05013603          	ld	a2,80(sp)
    800004fc:	0015859b          	addiw	a1,a1,1
    80000500:	00461613          	slli	a2,a2,0x4
    80000504:	00ca0633          	add	a2,s4,a2
    80000508:	00462503          	lw	a0,4(a2)
    8000050c:	0ac13823          	sd	a2,176(sp)
    80000510:	00251613          	slli	a2,a0,0x2
    80000514:	00c98633          	add	a2,s3,a2
    80000518:	00062603          	lw	a2,0(a2)
    8000051c:	fac59ce3          	bne	a1,a2,800004d4 <_ZN5Dinic3DFSEii+0x4c4>
    80000520:	0b013583          	ld	a1,176(sp)
    80000524:	0d813383          	ld	t2,216(sp)
    80000528:	0085a603          	lw	a2,8(a1)
    8000052c:	00c5a083          	lw	ra,12(a1)
    80000530:	00050593          	mv	a1,a0
    80000534:	00040513          	mv	a0,s0
    80000538:	401600bb          	subw	ra,a2,ra
    8000053c:	00008613          	mv	a2,ra
    80000540:	4213c663          	blt	t2,ra,8000096c <_ZN5Dinic3DFSEii+0x95c>
    80000544:	12613c23          	sd	t1,312(sp)
    80000548:	12e13823          	sd	a4,304(sp)
    8000054c:	12513423          	sd	t0,296(sp)
    80000550:	13c13023          	sd	t3,288(sp)
    80000554:	11113c23          	sd	a7,280(sp)
    80000558:	11f13823          	sd	t6,272(sp)
    8000055c:	10d13423          	sd	a3,264(sp)
    80000560:	11d13023          	sd	t4,256(sp)
    80000564:	0f013c23          	sd	a6,248(sp)
    80000568:	0ef13823          	sd	a5,240(sp)
    8000056c:	0fe13423          	sd	t5,232(sp)
    80000570:	aa1ff0ef          	jal	ra,80000010 <_ZN5Dinic3DFSEii>
    80000574:	05013783          	ld	a5,80(sp)
    80000578:	0e813f03          	ld	t5,232(sp)
    8000057c:	0f813803          	ld	a6,248(sp)
    80000580:	0017c613          	xori	a2,a5,1
    80000584:	00461613          	slli	a2,a2,0x4
    80000588:	0f013783          	ld	a5,240(sp)
    8000058c:	10013e83          	ld	t4,256(sp)
    80000590:	10813683          	ld	a3,264(sp)
    80000594:	11013f83          	ld	t6,272(sp)
    80000598:	11813883          	ld	a7,280(sp)
    8000059c:	12013e03          	ld	t3,288(sp)
    800005a0:	12813283          	ld	t0,296(sp)
    800005a4:	13013703          	ld	a4,304(sp)
    800005a8:	13813303          	ld	t1,312(sp)
    800005ac:	00ca0633          	add	a2,s4,a2
    800005b0:	f2a052e3          	blez	a0,800004d4 <_ZN5Dinic3DFSEii+0x4c4>
    800005b4:	0b013383          	ld	t2,176(sp)
    800005b8:	00c3a583          	lw	a1,12(t2)
    800005bc:	0ab13823          	sd	a1,176(sp)
    800005c0:	0d813583          	ld	a1,216(sp)
    800005c4:	40a585bb          	subw	a1,a1,a0
    800005c8:	0cb13c23          	sd	a1,216(sp)
    800005cc:	0e013583          	ld	a1,224(sp)
    800005d0:	00b505bb          	addw	a1,a0,a1
    800005d4:	0eb13023          	sd	a1,224(sp)
    800005d8:	0b013583          	ld	a1,176(sp)
    800005dc:	00a585bb          	addw	a1,a1,a0
    800005e0:	00b3a623          	sw	a1,12(t2)
    800005e4:	00c62583          	lw	a1,12(a2)
    800005e8:	40a585bb          	subw	a1,a1,a0
    800005ec:	00b62623          	sw	a1,12(a2)
    800005f0:	0d813583          	ld	a1,216(sp)
    800005f4:	ee0590e3          	bnez	a1,800004d4 <_ZN5Dinic3DFSEii+0x4c4>
    800005f8:	09813383          	ld	t2,152(sp)
    800005fc:	03013603          	ld	a2,48(sp)
    80000600:	0e013503          	ld	a0,224(sp)
    80000604:	00c3a583          	lw	a1,12(t2)
    80000608:	00164613          	xori	a2,a2,1
    8000060c:	00461613          	slli	a2,a2,0x4
    80000610:	00a585bb          	addw	a1,a1,a0
    80000614:	00b3a623          	sw	a1,12(t2)
    80000618:	00ca0633          	add	a2,s4,a2
    8000061c:	00c62583          	lw	a1,12(a2)
    80000620:	0c813383          	ld	t2,200(sp)
    80000624:	04b13823          	sd	a1,80(sp)
    80000628:	0d013583          	ld	a1,208(sp)
    8000062c:	40a383bb          	subw	t2,t2,a0
    80000630:	0c713423          	sd	t2,200(sp)
    80000634:	00a585bb          	addw	a1,a1,a0
    80000638:	0cb13823          	sd	a1,208(sp)
    8000063c:	05013583          	ld	a1,80(sp)
    80000640:	40a585bb          	subw	a1,a1,a0
    80000644:	00b62623          	sw	a1,12(a2)
    80000648:	de0392e3          	bnez	t2,8000042c <_ZN5Dinic3DFSEii+0x41c>
    8000064c:	07813383          	ld	t2,120(sp)
    80000650:	01013603          	ld	a2,16(sp)
    80000654:	0d013503          	ld	a0,208(sp)
    80000658:	00c3a583          	lw	a1,12(t2)
    8000065c:	00164613          	xori	a2,a2,1
    80000660:	00461613          	slli	a2,a2,0x4
    80000664:	00a585bb          	addw	a1,a1,a0
    80000668:	00b3a623          	sw	a1,12(t2)
    8000066c:	00ca0633          	add	a2,s4,a2
    80000670:	00c62583          	lw	a1,12(a2)
    80000674:	0b813383          	ld	t2,184(sp)
    80000678:	02b13823          	sd	a1,48(sp)
    8000067c:	0c013583          	ld	a1,192(sp)
    80000680:	40a383bb          	subw	t2,t2,a0
    80000684:	0a713c23          	sd	t2,184(sp)
    80000688:	00a585bb          	addw	a1,a1,a0
    8000068c:	0cb13023          	sd	a1,192(sp)
    80000690:	03013583          	ld	a1,48(sp)
    80000694:	40a585bb          	subw	a1,a1,a0
    80000698:	00b62623          	sw	a1,12(a2)
    8000069c:	ce0394e3          	bnez	t2,80000384 <_ZN5Dinic3DFSEii+0x374>
    800006a0:	05813383          	ld	t2,88(sp)
    800006a4:	0c013503          	ld	a0,192(sp)
    800006a8:	0018c613          	xori	a2,a7,1
    800006ac:	00c3a583          	lw	a1,12(t2)
    800006b0:	00461613          	slli	a2,a2,0x4
    800006b4:	00ca0633          	add	a2,s4,a2
    800006b8:	00a585bb          	addw	a1,a1,a0
    800006bc:	00b3a623          	sw	a1,12(t2)
    800006c0:	00c62583          	lw	a1,12(a2)
    800006c4:	0a013383          	ld	t2,160(sp)
    800006c8:	00b13823          	sd	a1,16(sp)
    800006cc:	0a813583          	ld	a1,168(sp)
    800006d0:	40a383bb          	subw	t2,t2,a0
    800006d4:	0a713023          	sd	t2,160(sp)
    800006d8:	00a585bb          	addw	a1,a1,a0
    800006dc:	0ab13423          	sd	a1,168(sp)
    800006e0:	01013583          	ld	a1,16(sp)
    800006e4:	40a585bb          	subw	a1,a1,a0
    800006e8:	00b62623          	sw	a1,12(a2)
    800006ec:	c00390e3          	bnez	t2,800002ec <_ZN5Dinic3DFSEii+0x2dc>
    800006f0:	00ce2583          	lw	a1,12(t3)
    800006f4:	0a813503          	ld	a0,168(sp)
    800006f8:	00174613          	xori	a2,a4,1
    800006fc:	00461613          	slli	a2,a2,0x4
    80000700:	00a585bb          	addw	a1,a1,a0
    80000704:	00be2623          	sw	a1,12(t3)
    80000708:	00ca0633          	add	a2,s4,a2
    8000070c:	00c62583          	lw	a1,12(a2)
    80000710:	08813883          	ld	a7,136(sp)
    80000714:	09013e03          	ld	t3,144(sp)
    80000718:	40a585bb          	subw	a1,a1,a0
    8000071c:	40a888bb          	subw	a7,a7,a0
    80000720:	00ae0e3b          	addw	t3,t3,a0
    80000724:	09113423          	sd	a7,136(sp)
    80000728:	09c13823          	sd	t3,144(sp)
    8000072c:	00b62623          	sw	a1,12(a2)
    80000730:	b2089ce3          	bnez	a7,80000268 <_ZN5Dinic3DFSEii+0x258>
    80000734:	00c6a603          	lw	a2,12(a3)
    80000738:	09013583          	ld	a1,144(sp)
    8000073c:	06813503          	ld	a0,104(sp)
    80000740:	001cc713          	xori	a4,s9,1
    80000744:	00b6063b          	addw	a2,a2,a1
    80000748:	00471713          	slli	a4,a4,0x4
    8000074c:	00c6a623          	sw	a2,12(a3)
    80000750:	00ea0733          	add	a4,s4,a4
    80000754:	00058613          	mv	a2,a1
    80000758:	00c72683          	lw	a3,12(a4)
    8000075c:	40b505bb          	subw	a1,a0,a1
    80000760:	07013503          	ld	a0,112(sp)
    80000764:	40c686bb          	subw	a3,a3,a2
    80000768:	06b13423          	sd	a1,104(sp)
    8000076c:	00c5053b          	addw	a0,a0,a2
    80000770:	06a13823          	sd	a0,112(sp)
    80000774:	00d72623          	sw	a3,12(a4)
    80000778:	02058063          	beqz	a1,80000798 <_ZN5Dinic3DFSEii+0x788>
    8000077c:	02043703          	ld	a4,32(s0)
    80000780:	002c9c93          	slli	s9,s9,0x2
    80000784:	01970cb3          	add	s9,a4,s9
    80000788:	000cac83          	lw	s9,0(s9)
    8000078c:	a76c9ee3          	bne	s9,s6,80000208 <_ZN5Dinic3DFSEii+0x1f8>
    80000790:	07013703          	ld	a4,112(sp)
    80000794:	9ee054e3          	blez	a4,8000017c <_ZN5Dinic3DFSEii+0x16c>
    80000798:	07013603          	ld	a2,112(sp)
    8000079c:	00cd2683          	lw	a3,12(s10)
    800007a0:	001bc713          	xori	a4,s7,1
    800007a4:	00471713          	slli	a4,a4,0x4
    800007a8:	00c686bb          	addw	a3,a3,a2
    800007ac:	00dd2623          	sw	a3,12(s10)
    800007b0:	00ea0733          	add	a4,s4,a4
    800007b4:	00c72683          	lw	a3,12(a4)
    800007b8:	04013583          	ld	a1,64(sp)
    800007bc:	04813503          	ld	a0,72(sp)
    800007c0:	40c686bb          	subw	a3,a3,a2
    800007c4:	40c585bb          	subw	a1,a1,a2
    800007c8:	00c5053b          	addw	a0,a0,a2
    800007cc:	04b13023          	sd	a1,64(sp)
    800007d0:	04a13423          	sd	a0,72(sp)
    800007d4:	00d72623          	sw	a3,12(a4)
    800007d8:	02058063          	beqz	a1,800007f8 <_ZN5Dinic3DFSEii+0x7e8>
    800007dc:	02043703          	ld	a4,32(s0)
    800007e0:	002b9b93          	slli	s7,s7,0x2
    800007e4:	01770bb3          	add	s7,a4,s7
    800007e8:	000bab83          	lw	s7,0(s7)
    800007ec:	9b6b92e3          	bne	s7,s6,80000190 <_ZN5Dinic3DFSEii+0x180>
    800007f0:	04813703          	ld	a4,72(sp)
    800007f4:	90e058e3          	blez	a4,80000104 <_ZN5Dinic3DFSEii+0xf4>
    800007f8:	04813603          	ld	a2,72(sp)
    800007fc:	00cc2683          	lw	a3,12(s8)
    80000800:	001ac713          	xori	a4,s5,1
    80000804:	00471713          	slli	a4,a4,0x4
    80000808:	00c686bb          	addw	a3,a3,a2
    8000080c:	00dc2623          	sw	a3,12(s8)
    80000810:	00ea0733          	add	a4,s4,a4
    80000814:	00c72683          	lw	a3,12(a4)
    80000818:	01813583          	ld	a1,24(sp)
    8000081c:	02013503          	ld	a0,32(sp)
    80000820:	40c686bb          	subw	a3,a3,a2
    80000824:	40c585bb          	subw	a1,a1,a2
    80000828:	00c5053b          	addw	a0,a0,a2
    8000082c:	00b13c23          	sd	a1,24(sp)
    80000830:	02a13023          	sd	a0,32(sp)
    80000834:	00d72623          	sw	a3,12(a4)
    80000838:	02058063          	beqz	a1,80000858 <_ZN5Dinic3DFSEii+0x848>
    8000083c:	02043703          	ld	a4,32(s0)
    80000840:	002a9a93          	slli	s5,s5,0x2
    80000844:	01570ab3          	add	s5,a4,s5
    80000848:	000aaa83          	lw	s5,0(s5)
    8000084c:	8d6a96e3          	bne	s5,s6,80000118 <_ZN5Dinic3DFSEii+0x108>
    80000850:	02013703          	ld	a4,32(sp)
    80000854:	82e058e3          	blez	a4,80000084 <_ZN5Dinic3DFSEii+0x74>
    80000858:	02013603          	ld	a2,32(sp)
    8000085c:	00c4a683          	lw	a3,12(s1)
    80000860:	00194713          	xori	a4,s2,1
    80000864:	00471713          	slli	a4,a4,0x4
    80000868:	00c686bb          	addw	a3,a3,a2
    8000086c:	00d4a623          	sw	a3,12(s1)
    80000870:	00ea0a33          	add	s4,s4,a4
    80000874:	00ca2703          	lw	a4,12(s4)
    80000878:	00813683          	ld	a3,8(sp)
    8000087c:	40c3033b          	subw	t1,t1,a2
    80000880:	40c7073b          	subw	a4,a4,a2
    80000884:	00c686bb          	addw	a3,a3,a2
    80000888:	00d13423          	sd	a3,8(sp)
    8000088c:	00ea2623          	sw	a4,12(s4)
    80000890:	fe031a63          	bnez	t1,80000084 <_ZN5Dinic3DFSEii+0x74>
    80000894:	1a813083          	ld	ra,424(sp)
    80000898:	1a013403          	ld	s0,416(sp)
    8000089c:	00813503          	ld	a0,8(sp)
    800008a0:	19813483          	ld	s1,408(sp)
    800008a4:	19013903          	ld	s2,400(sp)
    800008a8:	18813983          	ld	s3,392(sp)
    800008ac:	18013a03          	ld	s4,384(sp)
    800008b0:	17813a83          	ld	s5,376(sp)
    800008b4:	17013b03          	ld	s6,368(sp)
    800008b8:	16813b83          	ld	s7,360(sp)
    800008bc:	16013c03          	ld	s8,352(sp)
    800008c0:	15813c83          	ld	s9,344(sp)
    800008c4:	15013d03          	ld	s10,336(sp)
    800008c8:	14813d83          	ld	s11,328(sp)
    800008cc:	1b010113          	addi	sp,sp,432
    800008d0:	00008067          	ret
    800008d4:	00c13423          	sd	a2,8(sp)
    800008d8:	fbdff06f          	j	80000894 <_ZN5Dinic3DFSEii+0x884>
    800008dc:	000e051b          	sext.w	a0,t3
    800008e0:	965ff06f          	j	80000244 <_ZN5Dinic3DFSEii+0x234>
    800008e4:	08813703          	ld	a4,136(sp)
    800008e8:	08e13823          	sd	a4,144(sp)
    800008ec:	09013703          	ld	a4,144(sp)
    800008f0:	e4e042e3          	bgtz	a4,80000734 <_ZN5Dinic3DFSEii+0x724>
    800008f4:	901ff06f          	j	800001f4 <_ZN5Dinic3DFSEii+0x1e4>
    800008f8:	0a013603          	ld	a2,160(sp)
    800008fc:	0ac13423          	sd	a2,168(sp)
    80000900:	0a813603          	ld	a2,168(sp)
    80000904:	dec046e3          	bgtz	a2,800006f0 <_ZN5Dinic3DFSEii+0x6e0>
    80000908:	961ff06f          	j	80000268 <_ZN5Dinic3DFSEii+0x258>
    8000090c:	01813703          	ld	a4,24(sp)
    80000910:	02e13023          	sd	a4,32(sp)
    80000914:	f3dff06f          	j	80000850 <_ZN5Dinic3DFSEii+0x840>
    80000918:	0b813603          	ld	a2,184(sp)
    8000091c:	0cc13023          	sd	a2,192(sp)
    80000920:	0c013603          	ld	a2,192(sp)
    80000924:	d6c04ee3          	bgtz	a2,800006a0 <_ZN5Dinic3DFSEii+0x690>
    80000928:	9c5ff06f          	j	800002ec <_ZN5Dinic3DFSEii+0x2dc>
    8000092c:	04013703          	ld	a4,64(sp)
    80000930:	04e13423          	sd	a4,72(sp)
    80000934:	ebdff06f          	j	800007f0 <_ZN5Dinic3DFSEii+0x7e0>
    80000938:	0c813603          	ld	a2,200(sp)
    8000093c:	0cc13823          	sd	a2,208(sp)
    80000940:	0d013603          	ld	a2,208(sp)
    80000944:	d0c044e3          	bgtz	a2,8000064c <_ZN5Dinic3DFSEii+0x63c>
    80000948:	a3dff06f          	j	80000384 <_ZN5Dinic3DFSEii+0x374>
    8000094c:	06813703          	ld	a4,104(sp)
    80000950:	06e13823          	sd	a4,112(sp)
    80000954:	e3dff06f          	j	80000790 <_ZN5Dinic3DFSEii+0x780>
    80000958:	0d813603          	ld	a2,216(sp)
    8000095c:	0ec13023          	sd	a2,224(sp)
    80000960:	0e013603          	ld	a2,224(sp)
    80000964:	c8c04ae3          	bgtz	a2,800005f8 <_ZN5Dinic3DFSEii+0x5e8>
    80000968:	ac5ff06f          	j	8000042c <_ZN5Dinic3DFSEii+0x41c>
    8000096c:	0003861b          	sext.w	a2,t2
    80000970:	bd5ff06f          	j	80000544 <_ZN5Dinic3DFSEii+0x534>

0000000080000974 <bench_dinic_prepare>:
    80000974:	00006797          	auipc	a5,0x6
    80000978:	5747b783          	ld	a5,1396(a5) # 80006ee8 <setting>
    8000097c:	0007a783          	lw	a5,0(a5)
    80000980:	f9010113          	addi	sp,sp,-112
    80000984:	05213823          	sd	s2,80(sp)
    80000988:	00100513          	li	a0,1
    8000098c:	00006917          	auipc	s2,0x6
    80000990:	4dc90913          	addi	s2,s2,1244 # 80006e68 <_ZL1N>
    80000994:	06113423          	sd	ra,104(sp)
    80000998:	00f92023          	sw	a5,0(s2)
    8000099c:	06813023          	sd	s0,96(sp)
    800009a0:	04913c23          	sd	s1,88(sp)
    800009a4:	05313423          	sd	s3,72(sp)
    800009a8:	05413023          	sd	s4,64(sp)
    800009ac:	03513c23          	sd	s5,56(sp)
    800009b0:	03613823          	sd	s6,48(sp)
    800009b4:	03713423          	sd	s7,40(sp)
    800009b8:	03813023          	sd	s8,32(sp)
    800009bc:	01913c23          	sd	s9,24(sp)
    800009c0:	01a13823          	sd	s10,16(sp)
    800009c4:	01b13423          	sd	s11,8(sp)
    800009c8:	690030ef          	jal	ra,80004058 <bench_srand>
    800009cc:	04800513          	li	a0,72
    800009d0:	00092b83          	lw	s7,0(s2)
    800009d4:	64c030ef          	jal	ra,80004020 <bench_alloc>
    800009d8:	00092783          	lw	a5,0(s2)
    800009dc:	00006997          	auipc	s3,0x6
    800009e0:	48498993          	addi	s3,s3,1156 # 80006e60 <_ZL1G>
    800009e4:	00050493          	mv	s1,a0
    800009e8:	0017879b          	addiw	a5,a5,1
    800009ec:	0017941b          	slliw	s0,a5,0x1
    800009f0:	ffe4079b          	addiw	a5,s0,-2
    800009f4:	4017d79b          	sraiw	a5,a5,0x1
    800009f8:	02f78a3b          	mulw	s4,a5,a5
    800009fc:	0017979b          	slliw	a5,a5,0x1
    80000a00:	00a9b023          	sd	a0,0(s3)
    80000a04:	00040b1b          	sext.w	s6,s0
    80000a08:	002b1a93          	slli	s5,s6,0x2
    80000a0c:	001b9c1b          	slliw	s8,s7,0x1
    80000a10:	001c0b9b          	addiw	s7,s8,1
    80000a14:	00fa0a3b          	addw	s4,s4,a5
    80000a18:	001a1a1b          	slliw	s4,s4,0x1
    80000a1c:	004a1513          	slli	a0,s4,0x4
    80000a20:	600030ef          	jal	ra,80004020 <bench_alloc>
    80000a24:	00a4b823          	sd	a0,16(s1)
    80000a28:	000a8513          	mv	a0,s5
    80000a2c:	5f4030ef          	jal	ra,80004020 <bench_alloc>
    80000a30:	00a4bc23          	sd	a0,24(s1)
    80000a34:	002a1513          	slli	a0,s4,0x2
    80000a38:	5e8030ef          	jal	ra,80004020 <bench_alloc>
    80000a3c:	02a4b023          	sd	a0,32(s1)
    80000a40:	000b0513          	mv	a0,s6
    80000a44:	5dc030ef          	jal	ra,80004020 <bench_alloc>
    80000a48:	04a4b023          	sd	a0,64(s1)
    80000a4c:	000a8513          	mv	a0,s5
    80000a50:	5d0030ef          	jal	ra,80004020 <bench_alloc>
    80000a54:	02a4b423          	sd	a0,40(s1)
    80000a58:	000a8513          	mv	a0,s5
    80000a5c:	5c4030ef          	jal	ra,80004020 <bench_alloc>
    80000a60:	02a4b823          	sd	a0,48(s1)
    80000a64:	000a8513          	mv	a0,s5
    80000a68:	5b8030ef          	jal	ra,80004020 <bench_alloc>
    80000a6c:	02a4bc23          	sd	a0,56(s1)
    80000a70:	0084a023          	sw	s0,0(s1)
    80000a74:	03605263          	blez	s6,80000a98 <bench_dinic_prepare+0x124>
    80000a78:	0184b783          	ld	a5,24(s1)
    80000a7c:	02041713          	slli	a4,s0,0x20
    80000a80:	01e75713          	srli	a4,a4,0x1e
    80000a84:	00f70733          	add	a4,a4,a5
    80000a88:	fff00693          	li	a3,-1
    80000a8c:	00d7a023          	sw	a3,0(a5)
    80000a90:	00478793          	addi	a5,a5,4
    80000a94:	fee79ce3          	bne	a5,a4,80000a8c <bench_dinic_prepare+0x118>
    80000a98:	00092d03          	lw	s10,0(s2)
    80000a9c:	0004a223          	sw	zero,4(s1)
    80000aa0:	00000b13          	li	s6,0
    80000aa4:	00000493          	li	s1,0
    80000aa8:	00a00a13          	li	s4,10
    80000aac:	25a05863          	blez	s10,80000cfc <bench_dinic_prepare+0x388>
    80000ab0:	002b1a93          	slli	s5,s6,0x2
    80000ab4:	00000c93          	li	s9,0
    80000ab8:	0ba05e63          	blez	s10,80000b74 <bench_dinic_prepare+0x200>
    80000abc:	0009b403          	ld	s0,0(s3)
    80000ac0:	5ac030ef          	jal	ra,8000406c <bench_rand>
    80000ac4:	0345753b          	remuw	a0,a0,s4
    80000ac8:	019d07bb          	addw	a5,s10,s9
    80000acc:	00078813          	mv	a6,a5
    80000ad0:	00279593          	slli	a1,a5,0x2
    80000ad4:	00092d03          	lw	s10,0(s2)
    80000ad8:	001c8c9b          	addiw	s9,s9,1
    80000adc:	0005079b          	sext.w	a5,a0
    80000ae0:	08078863          	beqz	a5,80000b70 <bench_dinic_prepare+0x1fc>
    80000ae4:	00442703          	lw	a4,4(s0)
    80000ae8:	01043783          	ld	a5,16(s0)
    80000aec:	01843603          	ld	a2,24(s0)
    80000af0:	00471693          	slli	a3,a4,0x4
    80000af4:	00d786b3          	add	a3,a5,a3
    80000af8:	0096a023          	sw	s1,0(a3)
    80000afc:	00a6a423          	sw	a0,8(a3)
    80000b00:	0106a223          	sw	a6,4(a3)
    80000b04:	0006a623          	sw	zero,12(a3)
    80000b08:	01560533          	add	a0,a2,s5
    80000b0c:	02043683          	ld	a3,32(s0)
    80000b10:	00052883          	lw	a7,0(a0)
    80000b14:	00271713          	slli	a4,a4,0x2
    80000b18:	00e68733          	add	a4,a3,a4
    80000b1c:	01172023          	sw	a7,0(a4)
    80000b20:	00442883          	lw	a7,4(s0)
    80000b24:	00b60733          	add	a4,a2,a1
    80000b28:	0018861b          	addiw	a2,a7,1
    80000b2c:	00c42223          	sw	a2,4(s0)
    80000b30:	01152023          	sw	a7,0(a0)
    80000b34:	00442603          	lw	a2,4(s0)
    80000b38:	00461593          	slli	a1,a2,0x4
    80000b3c:	00b787b3          	add	a5,a5,a1
    80000b40:	0107a023          	sw	a6,0(a5)
    80000b44:	0097a223          	sw	s1,4(a5)
    80000b48:	0007a423          	sw	zero,8(a5)
    80000b4c:	0007a623          	sw	zero,12(a5)
    80000b50:	00072783          	lw	a5,0(a4)
    80000b54:	00261613          	slli	a2,a2,0x2
    80000b58:	00c686b3          	add	a3,a3,a2
    80000b5c:	00f6a023          	sw	a5,0(a3)
    80000b60:	00442783          	lw	a5,4(s0)
    80000b64:	0017869b          	addiw	a3,a5,1
    80000b68:	00d42223          	sw	a3,4(s0)
    80000b6c:	00f72023          	sw	a5,0(a4)
    80000b70:	f5acc6e3          	blt	s9,s10,80000abc <bench_dinic_prepare+0x148>
    80000b74:	001b0b13          	addi	s6,s6,1
    80000b78:	000b049b          	sext.w	s1,s6
    80000b7c:	f3a4cae3          	blt	s1,s10,80000ab0 <bench_dinic_prepare+0x13c>
    80000b80:	17a05e63          	blez	s10,80000cfc <bench_dinic_prepare+0x388>
    80000b84:	002c1b13          	slli	s6,s8,0x2
    80000b88:	002b9a93          	slli	s5,s7,0x2
    80000b8c:	00000c93          	li	s9,0
    80000b90:	00000d13          	li	s10,0
    80000b94:	3e800a13          	li	s4,1000
    80000b98:	0009b483          	ld	s1,0(s3)
    80000b9c:	4d0030ef          	jal	ra,8000406c <bench_rand>
    80000ba0:	034577bb          	remuw	a5,a0,s4
    80000ba4:	002c9813          	slli	a6,s9,0x2
    80000ba8:	0009b403          	ld	s0,0(s3)
    80000bac:	00092d83          	lw	s11,0(s2)
    80000bb0:	001c8c93          	addi	s9,s9,1
    80000bb4:	00078513          	mv	a0,a5
    80000bb8:	08078863          	beqz	a5,80000c48 <bench_dinic_prepare+0x2d4>
    80000bbc:	0044a703          	lw	a4,4(s1)
    80000bc0:	0104b783          	ld	a5,16(s1)
    80000bc4:	0184b603          	ld	a2,24(s1)
    80000bc8:	00471693          	slli	a3,a4,0x4
    80000bcc:	00d786b3          	add	a3,a5,a3
    80000bd0:	0186a023          	sw	s8,0(a3)
    80000bd4:	01a6a223          	sw	s10,4(a3)
    80000bd8:	00a6a423          	sw	a0,8(a3)
    80000bdc:	0006a623          	sw	zero,12(a3)
    80000be0:	016605b3          	add	a1,a2,s6
    80000be4:	0204b683          	ld	a3,32(s1)
    80000be8:	0005a503          	lw	a0,0(a1)
    80000bec:	00271713          	slli	a4,a4,0x2
    80000bf0:	00e68733          	add	a4,a3,a4
    80000bf4:	00a72023          	sw	a0,0(a4)
    80000bf8:	0044a503          	lw	a0,4(s1)
    80000bfc:	01060733          	add	a4,a2,a6
    80000c00:	0015061b          	addiw	a2,a0,1
    80000c04:	00c4a223          	sw	a2,4(s1)
    80000c08:	00a5a023          	sw	a0,0(a1)
    80000c0c:	0044a603          	lw	a2,4(s1)
    80000c10:	00461593          	slli	a1,a2,0x4
    80000c14:	00b787b3          	add	a5,a5,a1
    80000c18:	01a7a023          	sw	s10,0(a5)
    80000c1c:	0187a223          	sw	s8,4(a5)
    80000c20:	0007a423          	sw	zero,8(a5)
    80000c24:	0007a623          	sw	zero,12(a5)
    80000c28:	00072783          	lw	a5,0(a4)
    80000c2c:	00261613          	slli	a2,a2,0x2
    80000c30:	00c686b3          	add	a3,a3,a2
    80000c34:	00f6a023          	sw	a5,0(a3)
    80000c38:	0044a783          	lw	a5,4(s1)
    80000c3c:	0017869b          	addiw	a3,a5,1
    80000c40:	00d4a223          	sw	a3,4(s1)
    80000c44:	00f72023          	sw	a5,0(a4)
    80000c48:	424030ef          	jal	ra,8000406c <bench_rand>
    80000c4c:	0345773b          	remuw	a4,a0,s4
    80000c50:	01ad87bb          	addw	a5,s11,s10
    80000c54:	00078813          	mv	a6,a5
    80000c58:	00092883          	lw	a7,0(s2)
    80000c5c:	00279793          	slli	a5,a5,0x2
    80000c60:	000c8d1b          	sext.w	s10,s9
    80000c64:	00070513          	mv	a0,a4
    80000c68:	08070863          	beqz	a4,80000cf8 <bench_dinic_prepare+0x384>
    80000c6c:	00442683          	lw	a3,4(s0)
    80000c70:	01043703          	ld	a4,16(s0)
    80000c74:	01843583          	ld	a1,24(s0)
    80000c78:	00469613          	slli	a2,a3,0x4
    80000c7c:	00c70633          	add	a2,a4,a2
    80000c80:	01062023          	sw	a6,0(a2)
    80000c84:	01762223          	sw	s7,4(a2)
    80000c88:	00a62423          	sw	a0,8(a2)
    80000c8c:	00062623          	sw	zero,12(a2)
    80000c90:	00f587b3          	add	a5,a1,a5
    80000c94:	02043603          	ld	a2,32(s0)
    80000c98:	0007a503          	lw	a0,0(a5)
    80000c9c:	00269693          	slli	a3,a3,0x2
    80000ca0:	00d606b3          	add	a3,a2,a3
    80000ca4:	00a6a023          	sw	a0,0(a3)
    80000ca8:	00442503          	lw	a0,4(s0)
    80000cac:	015586b3          	add	a3,a1,s5
    80000cb0:	0015059b          	addiw	a1,a0,1
    80000cb4:	00b42223          	sw	a1,4(s0)
    80000cb8:	00a7a023          	sw	a0,0(a5)
    80000cbc:	00442583          	lw	a1,4(s0)
    80000cc0:	00459793          	slli	a5,a1,0x4
    80000cc4:	00f707b3          	add	a5,a4,a5
    80000cc8:	0177a023          	sw	s7,0(a5)
    80000ccc:	0107a223          	sw	a6,4(a5)
    80000cd0:	0007a423          	sw	zero,8(a5)
    80000cd4:	0007a623          	sw	zero,12(a5)
    80000cd8:	0006a783          	lw	a5,0(a3)
    80000cdc:	00259593          	slli	a1,a1,0x2
    80000ce0:	00b60633          	add	a2,a2,a1
    80000ce4:	00f62023          	sw	a5,0(a2)
    80000ce8:	00442783          	lw	a5,4(s0)
    80000cec:	0017871b          	addiw	a4,a5,1
    80000cf0:	00e42223          	sw	a4,4(s0)
    80000cf4:	00f6a023          	sw	a5,0(a3)
    80000cf8:	eb1d40e3          	blt	s10,a7,80000b98 <bench_dinic_prepare+0x224>
    80000cfc:	06813083          	ld	ra,104(sp)
    80000d00:	06013403          	ld	s0,96(sp)
    80000d04:	05813483          	ld	s1,88(sp)
    80000d08:	05013903          	ld	s2,80(sp)
    80000d0c:	04813983          	ld	s3,72(sp)
    80000d10:	04013a03          	ld	s4,64(sp)
    80000d14:	03813a83          	ld	s5,56(sp)
    80000d18:	03013b03          	ld	s6,48(sp)
    80000d1c:	02813b83          	ld	s7,40(sp)
    80000d20:	02013c03          	ld	s8,32(sp)
    80000d24:	01813c83          	ld	s9,24(sp)
    80000d28:	01013d03          	ld	s10,16(sp)
    80000d2c:	00813d83          	ld	s11,8(sp)
    80000d30:	07010113          	addi	sp,sp,112
    80000d34:	00008067          	ret

0000000080000d38 <bench_dinic_run>:
    80000d38:	f0010113          	addi	sp,sp,-256
    80000d3c:	0e813823          	sd	s0,240(sp)
    80000d40:	00006797          	auipc	a5,0x6
    80000d44:	1287a783          	lw	a5,296(a5) # 80006e68 <_ZL1N>
    80000d48:	00006417          	auipc	s0,0x6
    80000d4c:	11843403          	ld	s0,280(s0) # 80006e60 <_ZL1G>
    80000d50:	0017969b          	slliw	a3,a5,0x1
    80000d54:	0d413823          	sd	s4,208(sp)
    80000d58:	04043583          	ld	a1,64(s0)
    80000d5c:	03843803          	ld	a6,56(s0)
    80000d60:	02843a03          	ld	s4,40(s0)
    80000d64:	01843503          	ld	a0,24(s0)
    80000d68:	00042603          	lw	a2,0(s0)
    80000d6c:	0f213023          	sd	s2,224(sp)
    80000d70:	0e113c23          	sd	ra,248(sp)
    80000d74:	0e913423          	sd	s1,232(sp)
    80000d78:	0d313c23          	sd	s3,216(sp)
    80000d7c:	0d513423          	sd	s5,200(sp)
    80000d80:	0d613023          	sd	s6,192(sp)
    80000d84:	0b713c23          	sd	s7,184(sp)
    80000d88:	0b813823          	sd	s8,176(sp)
    80000d8c:	0b913423          	sd	s9,168(sp)
    80000d90:	0ba13023          	sd	s10,160(sp)
    80000d94:	09b13c23          	sd	s11,152(sp)
    80000d98:	0016871b          	addiw	a4,a3,1
    80000d9c:	00269793          	slli	a5,a3,0x2
    80000da0:	02d13023          	sd	a3,32(sp)
    80000da4:	00d42423          	sw	a3,8(s0)
    80000da8:	00e42623          	sw	a4,12(s0)
    80000dac:	06f13c23          	sd	a5,120(sp)
    80000db0:	00013823          	sd	zero,16(sp)
    80000db4:	00100293          	li	t0,1
    80000db8:	fff00913          	li	s2,-1
    80000dbc:	00058793          	mv	a5,a1
    80000dc0:	00c58733          	add	a4,a1,a2
    80000dc4:	00c05863          	blez	a2,80000dd4 <bench_dinic_run+0x9c>
    80000dc8:	00078023          	sb	zero,0(a5)
    80000dcc:	00178793          	addi	a5,a5,1
    80000dd0:	fef71ce3          	bne	a4,a5,80000dc8 <bench_dinic_run+0x90>
    80000dd4:	00d82023          	sw	a3,0(a6)
    80000dd8:	00842783          	lw	a5,8(s0)
    80000ddc:	00080e93          	mv	t4,a6
    80000de0:	00100f13          	li	t5,1
    80000de4:	00279793          	slli	a5,a5,0x2
    80000de8:	00fa07b3          	add	a5,s4,a5
    80000dec:	0007a023          	sw	zero,0(a5)
    80000df0:	00842783          	lw	a5,8(s0)
    80000df4:	00000e13          	li	t3,0
    80000df8:	00f587b3          	add	a5,a1,a5
    80000dfc:	00578023          	sb	t0,0(a5)
    80000e00:	000ea703          	lw	a4,0(t4)
    80000e04:	001e0e1b          	addiw	t3,t3,1
    80000e08:	00271713          	slli	a4,a4,0x2
    80000e0c:	00e507b3          	add	a5,a0,a4
    80000e10:	0007a783          	lw	a5,0(a5)
    80000e14:	07278863          	beq	a5,s2,80000e84 <bench_dinic_run+0x14c>
    80000e18:	01043383          	ld	t2,16(s0)
    80000e1c:	02043f83          	ld	t6,32(s0)
    80000e20:	00ea06b3          	add	a3,s4,a4
    80000e24:	00479713          	slli	a4,a5,0x4
    80000e28:	00e38733          	add	a4,t2,a4
    80000e2c:	00472603          	lw	a2,4(a4)
    80000e30:	00279793          	slli	a5,a5,0x2
    80000e34:	00ff87b3          	add	a5,t6,a5
    80000e38:	00c588b3          	add	a7,a1,a2
    80000e3c:	0008c303          	lbu	t1,0(a7)
    80000e40:	02031e63          	bnez	t1,80000e7c <bench_dinic_run+0x144>
    80000e44:	00872983          	lw	s3,8(a4)
    80000e48:	00c72483          	lw	s1,12(a4)
    80000e4c:	00261613          	slli	a2,a2,0x2
    80000e50:	002f1313          	slli	t1,t5,0x2
    80000e54:	00ca0633          	add	a2,s4,a2
    80000e58:	00680333          	add	t1,a6,t1
    80000e5c:	0334d063          	bge	s1,s3,80000e7c <bench_dinic_run+0x144>
    80000e60:	0006a483          	lw	s1,0(a3)
    80000e64:	00588023          	sb	t0,0(a7)
    80000e68:	001f0f1b          	addiw	t5,t5,1
    80000e6c:	0014889b          	addiw	a7,s1,1
    80000e70:	01162023          	sw	a7,0(a2)
    80000e74:	00472703          	lw	a4,4(a4)
    80000e78:	00e32023          	sw	a4,0(t1)
    80000e7c:	0007a783          	lw	a5,0(a5)
    80000e80:	fb2792e3          	bne	a5,s2,80000e24 <bench_dinic_run+0xec>
    80000e84:	004e8e93          	addi	t4,t4,4
    80000e88:	f7ee1ce3          	bne	t3,t5,80000e00 <bench_dinic_run+0xc8>
    80000e8c:	00c42303          	lw	t1,12(s0)
    80000e90:	006587b3          	add	a5,a1,t1
    80000e94:	0007c783          	lbu	a5,0(a5)
    80000e98:	3e078863          	beqz	a5,80001288 <bench_dinic_run+0x550>
    80000e9c:	00042603          	lw	a2,0(s0)
    80000ea0:	02c05863          	blez	a2,80000ed0 <bench_dinic_run+0x198>
    80000ea4:	03043683          	ld	a3,48(s0)
    80000ea8:	00050713          	mv	a4,a0
    80000eac:	00000793          	li	a5,0
    80000eb0:	00072603          	lw	a2,0(a4)
    80000eb4:	0017879b          	addiw	a5,a5,1
    80000eb8:	00470713          	addi	a4,a4,4
    80000ebc:	00c6a023          	sw	a2,0(a3)
    80000ec0:	00042603          	lw	a2,0(s0)
    80000ec4:	00468693          	addi	a3,a3,4
    80000ec8:	fec7c4e3          	blt	a5,a2,80000eb0 <bench_dinic_run+0x178>
    80000ecc:	00c42303          	lw	t1,12(s0)
    80000ed0:	02013783          	ld	a5,32(sp)
    80000ed4:	38678c63          	beq	a5,t1,8000126c <bench_dinic_run+0x534>
    80000ed8:	03043783          	ld	a5,48(s0)
    80000edc:	07813703          	ld	a4,120(sp)
    80000ee0:	00f13423          	sd	a5,8(sp)
    80000ee4:	00e787b3          	add	a5,a5,a4
    80000ee8:	0007a983          	lw	s3,0(a5)
    80000eec:	33298463          	beq	s3,s2,80001214 <bench_dinic_run+0x4dc>
    80000ef0:	003f4eb7          	lui	t4,0x3f4
    80000ef4:	00ea0e33          	add	t3,s4,a4
    80000ef8:	00013023          	sd	zero,0(sp)
    80000efc:	f3fe8e93          	addi	t4,t4,-193 # 3f3f3f <_entry_offset+0x3f3f3f>
    80000f00:	0180006f          	j	80000f18 <bench_dinic_run+0x1e0>
    80000f04:	02043783          	ld	a5,32(s0)
    80000f08:	00299993          	slli	s3,s3,0x2
    80000f0c:	013787b3          	add	a5,a5,s3
    80000f10:	0007a983          	lw	s3,0(a5)
    80000f14:	31298a63          	beq	s3,s2,80001228 <bench_dinic_run+0x4f0>
    80000f18:	01043b03          	ld	s6,16(s0)
    80000f1c:	00499493          	slli	s1,s3,0x4
    80000f20:	000e2703          	lw	a4,0(t3)
    80000f24:	009b04b3          	add	s1,s6,s1
    80000f28:	0044a583          	lw	a1,4(s1)
    80000f2c:	0017071b          	addiw	a4,a4,1
    80000f30:	00259613          	slli	a2,a1,0x2
    80000f34:	00ca0db3          	add	s11,s4,a2
    80000f38:	000da783          	lw	a5,0(s11)
    80000f3c:	fcf714e3          	bne	a4,a5,80000f04 <bench_dinic_run+0x1cc>
    80000f40:	0084a683          	lw	a3,8(s1)
    80000f44:	00c4a703          	lw	a4,12(s1)
    80000f48:	40e6873b          	subw	a4,a3,a4
    80000f4c:	00070693          	mv	a3,a4
    80000f50:	00eed463          	bge	t4,a4,80000f58 <bench_dinic_run+0x220>
    80000f54:	000e869b          	sext.w	a3,t4
    80000f58:	2c658263          	beq	a1,t1,8000121c <bench_dinic_run+0x4e4>
    80000f5c:	fa0684e3          	beqz	a3,80000f04 <bench_dinic_run+0x1cc>
    80000f60:	00813703          	ld	a4,8(sp)
    80000f64:	00c70633          	add	a2,a4,a2
    80000f68:	00062a83          	lw	s5,0(a2)
    80000f6c:	f92a8ce3          	beq	s5,s2,80000f04 <bench_dinic_run+0x1cc>
    80000f70:	00000f13          	li	t5,0
    80000f74:	01c0006f          	j	80000f90 <bench_dinic_run+0x258>
    80000f78:	02043783          	ld	a5,32(s0)
    80000f7c:	002a9a93          	slli	s5,s5,0x2
    80000f80:	015787b3          	add	a5,a5,s5
    80000f84:	0007aa83          	lw	s5,0(a5)
    80000f88:	292a8c63          	beq	s5,s2,80001220 <bench_dinic_run+0x4e8>
    80000f8c:	000da783          	lw	a5,0(s11)
    80000f90:	004a9c13          	slli	s8,s5,0x4
    80000f94:	018b0c33          	add	s8,s6,s8
    80000f98:	004c2583          	lw	a1,4(s8)
    80000f9c:	0017879b          	addiw	a5,a5,1
    80000fa0:	00259613          	slli	a2,a1,0x2
    80000fa4:	00ca0733          	add	a4,s4,a2
    80000fa8:	00072503          	lw	a0,0(a4)
    80000fac:	fca796e3          	bne	a5,a0,80000f78 <bench_dinic_run+0x240>
    80000fb0:	008c2883          	lw	a7,8(s8)
    80000fb4:	00cc2783          	lw	a5,12(s8)
    80000fb8:	40f887bb          	subw	a5,a7,a5
    80000fbc:	00078893          	mv	a7,a5
    80000fc0:	00f6d463          	bge	a3,a5,80000fc8 <bench_dinic_run+0x290>
    80000fc4:	0006889b          	sext.w	a7,a3
    80000fc8:	28658663          	beq	a1,t1,80001254 <bench_dinic_run+0x51c>
    80000fcc:	fa0886e3          	beqz	a7,80000f78 <bench_dinic_run+0x240>
    80000fd0:	00813783          	ld	a5,8(sp)
    80000fd4:	00c78633          	add	a2,a5,a2
    80000fd8:	00062b83          	lw	s7,0(a2)
    80000fdc:	f92b8ee3          	beq	s7,s2,80000f78 <bench_dinic_run+0x240>
    80000fe0:	00000f93          	li	t6,0
    80000fe4:	01c0006f          	j	80001000 <bench_dinic_run+0x2c8>
    80000fe8:	02043783          	ld	a5,32(s0)
    80000fec:	002b9b93          	slli	s7,s7,0x2
    80000ff0:	017787b3          	add	a5,a5,s7
    80000ff4:	0007ab83          	lw	s7,0(a5)
    80000ff8:	272b8063          	beq	s7,s2,80001258 <bench_dinic_run+0x520>
    80000ffc:	00072503          	lw	a0,0(a4)
    80001000:	004b9d13          	slli	s10,s7,0x4
    80001004:	01ab0d33          	add	s10,s6,s10
    80001008:	004d2583          	lw	a1,4(s10)
    8000100c:	0015051b          	addiw	a0,a0,1
    80001010:	00259793          	slli	a5,a1,0x2
    80001014:	00fa0833          	add	a6,s4,a5
    80001018:	00082603          	lw	a2,0(a6)
    8000101c:	fcc516e3          	bne	a0,a2,80000fe8 <bench_dinic_run+0x2b0>
    80001020:	00cd2503          	lw	a0,12(s10)
    80001024:	008d2383          	lw	t2,8(s10)
    80001028:	40a383bb          	subw	t2,t2,a0
    8000102c:	00038513          	mv	a0,t2
    80001030:	0078d463          	bge	a7,t2,80001038 <bench_dinic_run+0x300>
    80001034:	0008851b          	sext.w	a0,a7
    80001038:	00a13c23          	sd	a0,24(sp)
    8000103c:	22658263          	beq	a1,t1,80001260 <bench_dinic_run+0x528>
    80001040:	fa0504e3          	beqz	a0,80000fe8 <bench_dinic_run+0x2b0>
    80001044:	00813583          	ld	a1,8(sp)
    80001048:	00f587b3          	add	a5,a1,a5
    8000104c:	0007ac83          	lw	s9,0(a5)
    80001050:	f92c8ce3          	beq	s9,s2,80000fe8 <bench_dinic_run+0x2b0>
    80001054:	00000393          	li	t2,0
    80001058:	01c0006f          	j	80001074 <bench_dinic_run+0x33c>
    8000105c:	02043783          	ld	a5,32(s0)
    80001060:	002c9c93          	slli	s9,s9,0x2
    80001064:	019787b3          	add	a5,a5,s9
    80001068:	0007ac83          	lw	s9,0(a5)
    8000106c:	1f2c8c63          	beq	s9,s2,80001264 <bench_dinic_run+0x52c>
    80001070:	00082603          	lw	a2,0(a6)
    80001074:	004c9793          	slli	a5,s9,0x4
    80001078:	00fb07b3          	add	a5,s6,a5
    8000107c:	0047a583          	lw	a1,4(a5)
    80001080:	0016061b          	addiw	a2,a2,1
    80001084:	00259513          	slli	a0,a1,0x2
    80001088:	00aa0533          	add	a0,s4,a0
    8000108c:	00052503          	lw	a0,0(a0)
    80001090:	fca616e3          	bne	a2,a0,8000105c <bench_dinic_run+0x324>
    80001094:	0087a603          	lw	a2,8(a5)
    80001098:	00c7a083          	lw	ra,12(a5)
    8000109c:	00040513          	mv	a0,s0
    800010a0:	401600bb          	subw	ra,a2,ra
    800010a4:	01813603          	ld	a2,24(sp)
    800010a8:	00008293          	mv	t0,ra
    800010ac:	00165463          	bge	a2,ra,800010b4 <bench_dinic_run+0x37c>
    800010b0:	00060293          	mv	t0,a2
    800010b4:	0002861b          	sext.w	a2,t0
    800010b8:	07c13823          	sd	t3,112(sp)
    800010bc:	06613423          	sd	t1,104(sp)
    800010c0:	06713023          	sd	t2,96(sp)
    800010c4:	05f13c23          	sd	t6,88(sp)
    800010c8:	05113823          	sd	a7,80(sp)
    800010cc:	05013423          	sd	a6,72(sp)
    800010d0:	05e13023          	sd	t5,64(sp)
    800010d4:	02d13c23          	sd	a3,56(sp)
    800010d8:	02e13823          	sd	a4,48(sp)
    800010dc:	03d13423          	sd	t4,40(sp)
    800010e0:	08f13423          	sd	a5,136(sp)
    800010e4:	f2dfe0ef          	jal	ra,80000010 <_ZN5Dinic3DFSEii>
    800010e8:	001cc613          	xori	a2,s9,1
    800010ec:	00461613          	slli	a2,a2,0x4
    800010f0:	00cb05b3          	add	a1,s6,a2
    800010f4:	08b13023          	sd	a1,128(sp)
    800010f8:	02813e83          	ld	t4,40(sp)
    800010fc:	03013703          	ld	a4,48(sp)
    80001100:	03813683          	ld	a3,56(sp)
    80001104:	04013f03          	ld	t5,64(sp)
    80001108:	04813803          	ld	a6,72(sp)
    8000110c:	05013883          	ld	a7,80(sp)
    80001110:	05813f83          	ld	t6,88(sp)
    80001114:	06013383          	ld	t2,96(sp)
    80001118:	06813303          	ld	t1,104(sp)
    8000111c:	07013e03          	ld	t3,112(sp)
    80001120:	00100293          	li	t0,1
    80001124:	f2a05ce3          	blez	a0,8000105c <bench_dinic_run+0x324>
    80001128:	08813783          	ld	a5,136(sp)
    8000112c:	01813603          	ld	a2,24(sp)
    80001130:	007503bb          	addw	t2,a0,t2
    80001134:	00c7a583          	lw	a1,12(a5)
    80001138:	40a6063b          	subw	a2,a2,a0
    8000113c:	00c13c23          	sd	a2,24(sp)
    80001140:	00a585bb          	addw	a1,a1,a0
    80001144:	00b7a623          	sw	a1,12(a5)
    80001148:	08013583          	ld	a1,128(sp)
    8000114c:	00c5a783          	lw	a5,12(a1)
    80001150:	40a787bb          	subw	a5,a5,a0
    80001154:	00f5a623          	sw	a5,12(a1)
    80001158:	f00612e3          	bnez	a2,8000105c <bench_dinic_run+0x324>
    8000115c:	00cd2603          	lw	a2,12(s10)
    80001160:	001bc793          	xori	a5,s7,1
    80001164:	00479793          	slli	a5,a5,0x4
    80001168:	0076063b          	addw	a2,a2,t2
    8000116c:	00cd2623          	sw	a2,12(s10)
    80001170:	00fb07b3          	add	a5,s6,a5
    80001174:	00c7a603          	lw	a2,12(a5)
    80001178:	407888bb          	subw	a7,a7,t2
    8000117c:	007f8fbb          	addw	t6,t6,t2
    80001180:	4076063b          	subw	a2,a2,t2
    80001184:	00c7a623          	sw	a2,12(a5)
    80001188:	e60890e3          	bnez	a7,80000fe8 <bench_dinic_run+0x2b0>
    8000118c:	00cc2703          	lw	a4,12(s8)
    80001190:	001ac793          	xori	a5,s5,1
    80001194:	00479793          	slli	a5,a5,0x4
    80001198:	01f7073b          	addw	a4,a4,t6
    8000119c:	00ec2623          	sw	a4,12(s8)
    800011a0:	00fb07b3          	add	a5,s6,a5
    800011a4:	00c7a703          	lw	a4,12(a5)
    800011a8:	41f686bb          	subw	a3,a3,t6
    800011ac:	01ff0f3b          	addw	t5,t5,t6
    800011b0:	41f7073b          	subw	a4,a4,t6
    800011b4:	00e7a623          	sw	a4,12(a5)
    800011b8:	dc0690e3          	bnez	a3,80000f78 <bench_dinic_run+0x240>
    800011bc:	00c4a703          	lw	a4,12(s1)
    800011c0:	0019c793          	xori	a5,s3,1
    800011c4:	00479793          	slli	a5,a5,0x4
    800011c8:	01e7073b          	addw	a4,a4,t5
    800011cc:	00e4a623          	sw	a4,12(s1)
    800011d0:	00fb0b33          	add	s6,s6,a5
    800011d4:	00cb2783          	lw	a5,12(s6)
    800011d8:	00013703          	ld	a4,0(sp)
    800011dc:	41ee8ebb          	subw	t4,t4,t5
    800011e0:	41e787bb          	subw	a5,a5,t5
    800011e4:	01e7073b          	addw	a4,a4,t5
    800011e8:	00e13023          	sd	a4,0(sp)
    800011ec:	00fb2623          	sw	a5,12(s6)
    800011f0:	d00e9ae3          	bnez	t4,80000f04 <bench_dinic_run+0x1cc>
    800011f4:	01013783          	ld	a5,16(sp)
    800011f8:	03843803          	ld	a6,56(s0)
    800011fc:	02843a03          	ld	s4,40(s0)
    80001200:	04043583          	ld	a1,64(s0)
    80001204:	01843503          	ld	a0,24(s0)
    80001208:	00042603          	lw	a2,0(s0)
    8000120c:	00e787bb          	addw	a5,a5,a4
    80001210:	00f13823          	sd	a5,16(sp)
    80001214:	00842683          	lw	a3,8(s0)
    80001218:	ba5ff06f          	j	80000dbc <bench_dinic_run+0x84>
    8000121c:	00068f13          	mv	t5,a3
    80001220:	f9e04ee3          	bgtz	t5,800011bc <bench_dinic_run+0x484>
    80001224:	ce1ff06f          	j	80000f04 <bench_dinic_run+0x1cc>
    80001228:	01013783          	ld	a5,16(sp)
    8000122c:	00013703          	ld	a4,0(sp)
    80001230:	03843803          	ld	a6,56(s0)
    80001234:	02843a03          	ld	s4,40(s0)
    80001238:	00e787bb          	addw	a5,a5,a4
    8000123c:	04043583          	ld	a1,64(s0)
    80001240:	01843503          	ld	a0,24(s0)
    80001244:	00042603          	lw	a2,0(s0)
    80001248:	00842683          	lw	a3,8(s0)
    8000124c:	00f13823          	sd	a5,16(sp)
    80001250:	b6dff06f          	j	80000dbc <bench_dinic_run+0x84>
    80001254:	00088f93          	mv	t6,a7
    80001258:	f3f04ae3          	bgtz	t6,8000118c <bench_dinic_run+0x454>
    8000125c:	d1dff06f          	j	80000f78 <bench_dinic_run+0x240>
    80001260:	01813383          	ld	t2,24(sp)
    80001264:	ee704ce3          	bgtz	t2,8000115c <bench_dinic_run+0x424>
    80001268:	d81ff06f          	j	80000fe8 <bench_dinic_run+0x2b0>
    8000126c:	01013703          	ld	a4,16(sp)
    80001270:	003f47b7          	lui	a5,0x3f4
    80001274:	f3f7879b          	addiw	a5,a5,-193 # 3f3f3f <_entry_offset+0x3f3f3f>
    80001278:	00e787bb          	addw	a5,a5,a4
    8000127c:	00842683          	lw	a3,8(s0)
    80001280:	00f13823          	sd	a5,16(sp)
    80001284:	b39ff06f          	j	80000dbc <bench_dinic_run+0x84>
    80001288:	01013703          	ld	a4,16(sp)
    8000128c:	0f813083          	ld	ra,248(sp)
    80001290:	0f013403          	ld	s0,240(sp)
    80001294:	00006797          	auipc	a5,0x6
    80001298:	bce7ac23          	sw	a4,-1064(a5) # 80006e6c <_ZL3ans>
    8000129c:	0e813483          	ld	s1,232(sp)
    800012a0:	0e013903          	ld	s2,224(sp)
    800012a4:	0d813983          	ld	s3,216(sp)
    800012a8:	0d013a03          	ld	s4,208(sp)
    800012ac:	0c813a83          	ld	s5,200(sp)
    800012b0:	0c013b03          	ld	s6,192(sp)
    800012b4:	0b813b83          	ld	s7,184(sp)
    800012b8:	0b013c03          	ld	s8,176(sp)
    800012bc:	0a813c83          	ld	s9,168(sp)
    800012c0:	0a013d03          	ld	s10,160(sp)
    800012c4:	09813d83          	ld	s11,152(sp)
    800012c8:	10010113          	addi	sp,sp,256
    800012cc:	00008067          	ret

00000000800012d0 <bench_dinic_validate>:
    800012d0:	00006797          	auipc	a5,0x6
    800012d4:	c187b783          	ld	a5,-1000(a5) # 80006ee8 <setting>
    800012d8:	0187a503          	lw	a0,24(a5)
    800012dc:	00006797          	auipc	a5,0x6
    800012e0:	b907a783          	lw	a5,-1136(a5) # 80006e6c <_ZL3ans>
    800012e4:	40f50533          	sub	a0,a0,a5
    800012e8:	00153513          	seqz	a0,a0
    800012ec:	00008067          	ret

00000000800012f0 <_ZL9radixPassPiS_S_ii>:
    800012f0:	fd010113          	addi	sp,sp,-48
    800012f4:	0017079b          	addiw	a5,a4,1
    800012f8:	02813023          	sd	s0,32(sp)
    800012fc:	01413023          	sd	s4,0(sp)
    80001300:	00050413          	mv	s0,a0
    80001304:	00070a13          	mv	s4,a4
    80001308:	00279513          	slli	a0,a5,0x2
    8000130c:	00913c23          	sd	s1,24(sp)
    80001310:	01213823          	sd	s2,16(sp)
    80001314:	01313423          	sd	s3,8(sp)
    80001318:	02113423          	sd	ra,40(sp)
    8000131c:	00058993          	mv	s3,a1
    80001320:	00060493          	mv	s1,a2
    80001324:	00068913          	mv	s2,a3
    80001328:	4f9020ef          	jal	ra,80004020 <bench_alloc>
    8000132c:	0e0a4c63          	bltz	s4,80001424 <_ZL9radixPassPiS_S_ii+0x134>
    80001330:	001a0713          	addi	a4,s4,1
    80001334:	00271713          	slli	a4,a4,0x2
    80001338:	00050793          	mv	a5,a0
    8000133c:	00a70733          	add	a4,a4,a0
    80001340:	0007a023          	sw	zero,0(a5)
    80001344:	00478793          	addi	a5,a5,4
    80001348:	fef71ce3          	bne	a4,a5,80001340 <_ZL9radixPassPiS_S_ii+0x50>
    8000134c:	05205663          	blez	s2,80001398 <_ZL9radixPassPiS_S_ii+0xa8>
    80001350:	fff9071b          	addiw	a4,s2,-1
    80001354:	02071793          	slli	a5,a4,0x20
    80001358:	01e7d713          	srli	a4,a5,0x1e
    8000135c:	00440793          	addi	a5,s0,4
    80001360:	00040813          	mv	a6,s0
    80001364:	00f70733          	add	a4,a4,a5
    80001368:	00082783          	lw	a5,0(a6)
    8000136c:	00480813          	addi	a6,a6,4
    80001370:	00279793          	slli	a5,a5,0x2
    80001374:	00f487b3          	add	a5,s1,a5
    80001378:	0007a783          	lw	a5,0(a5)
    8000137c:	00279793          	slli	a5,a5,0x2
    80001380:	00f507b3          	add	a5,a0,a5
    80001384:	0007a883          	lw	a7,0(a5)
    80001388:	0018889b          	addiw	a7,a7,1
    8000138c:	0117a023          	sw	a7,0(a5)
    80001390:	fd071ce3          	bne	a4,a6,80001368 <_ZL9radixPassPiS_S_ii+0x78>
    80001394:	020a4663          	bltz	s4,800013c0 <_ZL9radixPassPiS_S_ii+0xd0>
    80001398:	00050793          	mv	a5,a0
    8000139c:	00000693          	li	a3,0
    800013a0:	00000813          	li	a6,0
    800013a4:	0007a603          	lw	a2,0(a5)
    800013a8:	0018081b          	addiw	a6,a6,1
    800013ac:	00d7a023          	sw	a3,0(a5)
    800013b0:	00d606bb          	addw	a3,a2,a3
    800013b4:	00478793          	addi	a5,a5,4
    800013b8:	ff0a56e3          	bge	s4,a6,800013a4 <_ZL9radixPassPiS_S_ii+0xb4>
    800013bc:	05205463          	blez	s2,80001404 <_ZL9radixPassPiS_S_ii+0x114>
    800013c0:	00040893          	mv	a7,s0
    800013c4:	00000813          	li	a6,0
    800013c8:	0008a683          	lw	a3,0(a7)
    800013cc:	0018081b          	addiw	a6,a6,1
    800013d0:	00488893          	addi	a7,a7,4
    800013d4:	00269793          	slli	a5,a3,0x2
    800013d8:	00f487b3          	add	a5,s1,a5
    800013dc:	0007a703          	lw	a4,0(a5)
    800013e0:	00271713          	slli	a4,a4,0x2
    800013e4:	00e50733          	add	a4,a0,a4
    800013e8:	00072783          	lw	a5,0(a4)
    800013ec:	0017861b          	addiw	a2,a5,1
    800013f0:	00279793          	slli	a5,a5,0x2
    800013f4:	00c72023          	sw	a2,0(a4)
    800013f8:	00f987b3          	add	a5,s3,a5
    800013fc:	00d7a023          	sw	a3,0(a5)
    80001400:	fd2844e3          	blt	a6,s2,800013c8 <_ZL9radixPassPiS_S_ii+0xd8>
    80001404:	02813083          	ld	ra,40(sp)
    80001408:	02013403          	ld	s0,32(sp)
    8000140c:	01813483          	ld	s1,24(sp)
    80001410:	01013903          	ld	s2,16(sp)
    80001414:	00813983          	ld	s3,8(sp)
    80001418:	00013a03          	ld	s4,0(sp)
    8000141c:	03010113          	addi	sp,sp,48
    80001420:	00008067          	ret
    80001424:	f32046e3          	bgtz	s2,80001350 <_ZL9radixPassPiS_S_ii+0x60>
    80001428:	fddff06f          	j	80001404 <_ZL9radixPassPiS_S_ii+0x114>

000000008000142c <_Z11suffixArrayPiS_ii>:
    8000142c:	f8010113          	addi	sp,sp,-128
    80001430:	00300713          	li	a4,3
    80001434:	06913423          	sd	s1,104(sp)
    80001438:	0026049b          	addiw	s1,a2,2
    8000143c:	06813823          	sd	s0,112(sp)
    80001440:	02e4c43b          	divw	s0,s1,a4
    80001444:	03a13023          	sd	s10,32(sp)
    80001448:	05413823          	sd	s4,80(sp)
    8000144c:	05313c23          	sd	s3,88(sp)
    80001450:	05513423          	sd	s5,72(sp)
    80001454:	00050993          	mv	s3,a0
    80001458:	06113c23          	sd	ra,120(sp)
    8000145c:	07213023          	sd	s2,96(sp)
    80001460:	05613023          	sd	s6,64(sp)
    80001464:	03713c23          	sd	s7,56(sp)
    80001468:	00060b13          	mv	s6,a2
    8000146c:	03813823          	sd	s8,48(sp)
    80001470:	03913423          	sd	s9,40(sp)
    80001474:	00058c13          	mv	s8,a1
    80001478:	01b13c23          	sd	s11,24(sp)
    8000147c:	00068c93          	mv	s9,a3
    80001480:	02e64d3b          	divw	s10,a2,a4
    80001484:	00241793          	slli	a5,s0,0x2
    80001488:	00f13423          	sd	a5,8(sp)
    8000148c:	008d0d3b          	addw	s10,s10,s0
    80001490:	003d0a1b          	addiw	s4,s10,3
    80001494:	002a1a13          	slli	s4,s4,0x2
    80001498:	000a0513          	mv	a0,s4
    8000149c:	002d0a9b          	addiw	s5,s10,2
    800014a0:	381020ef          	jal	ra,80004020 <bench_alloc>
    800014a4:	002a9a93          	slli	s5,s5,0x2
    800014a8:	015506b3          	add	a3,a0,s5
    800014ac:	ffca8d93          	addi	s11,s5,-4
    800014b0:	0006a023          	sw	zero,0(a3)
    800014b4:	ff8a8b93          	addi	s7,s5,-8
    800014b8:	01b506b3          	add	a3,a0,s11
    800014bc:	0006a023          	sw	zero,0(a3)
    800014c0:	017506b3          	add	a3,a0,s7
    800014c4:	0006a023          	sw	zero,0(a3)
    800014c8:	00050913          	mv	s2,a0
    800014cc:	000a0513          	mv	a0,s4
    800014d0:	351020ef          	jal	ra,80004020 <bench_alloc>
    800014d4:	00813783          	ld	a5,8(sp)
    800014d8:	01550ab3          	add	s5,a0,s5
    800014dc:	000aa023          	sw	zero,0(s5)
    800014e0:	01b50db3          	add	s11,a0,s11
    800014e4:	000da023          	sw	zero,0(s11)
    800014e8:	01750bb3          	add	s7,a0,s7
    800014ec:	000ba023          	sw	zero,0(s7)
    800014f0:	00050a13          	mv	s4,a0
    800014f4:	00078513          	mv	a0,a5
    800014f8:	329020ef          	jal	ra,80004020 <bench_alloc>
    800014fc:	00813783          	ld	a5,8(sp)
    80001500:	00050d93          	mv	s11,a0
    80001504:	000d0a9b          	sext.w	s5,s10
    80001508:	00078513          	mv	a0,a5
    8000150c:	315020ef          	jal	ra,80004020 <bench_alloc>
    80001510:	001b079b          	addiw	a5,s6,1
    80001514:	00300713          	li	a4,3
    80001518:	02e7c7bb          	divw	a5,a5,a4
    8000151c:	00050b93          	mv	s7,a0
    80001520:	00000693          	li	a3,0
    80001524:	00000613          	li	a2,0
    80001528:	00300813          	li	a6,3
    8000152c:	40f404bb          	subw	s1,s0,a5
    80001530:	0164853b          	addw	a0,s1,s6
    80001534:	02a05e63          	blez	a0,80001570 <_Z11suffixArrayPiS_ii+0x144>
    80001538:	0016869b          	addiw	a3,a3,1
    8000153c:	00261793          	slli	a5,a2,0x2
    80001540:	00068713          	mv	a4,a3
    80001544:	00f907b3          	add	a5,s2,a5
    80001548:	02a68463          	beq	a3,a0,80001570 <_Z11suffixArrayPiS_ii+0x144>
    8000154c:	030765bb          	remw	a1,a4,a6
    80001550:	fe0584e3          	beqz	a1,80001538 <_Z11suffixArrayPiS_ii+0x10c>
    80001554:	0016061b          	addiw	a2,a2,1
    80001558:	00e7a023          	sw	a4,0(a5)
    8000155c:	0016869b          	addiw	a3,a3,1
    80001560:	00261793          	slli	a5,a2,0x2
    80001564:	00068713          	mv	a4,a3
    80001568:	00f907b3          	add	a5,s2,a5
    8000156c:	fea690e3          	bne	a3,a0,8000154c <_Z11suffixArrayPiS_ii+0x120>
    80001570:	00898613          	addi	a2,s3,8
    80001574:	000a0593          	mv	a1,s4
    80001578:	00090513          	mv	a0,s2
    8000157c:	000c8713          	mv	a4,s9
    80001580:	000a8693          	mv	a3,s5
    80001584:	d6dff0ef          	jal	ra,800012f0 <_ZL9radixPassPiS_S_ii>
    80001588:	000c8713          	mv	a4,s9
    8000158c:	000a8693          	mv	a3,s5
    80001590:	00498613          	addi	a2,s3,4
    80001594:	00090593          	mv	a1,s2
    80001598:	000a0513          	mv	a0,s4
    8000159c:	d55ff0ef          	jal	ra,800012f0 <_ZL9radixPassPiS_S_ii>
    800015a0:	000c8713          	mv	a4,s9
    800015a4:	000a8693          	mv	a3,s5
    800015a8:	00098613          	mv	a2,s3
    800015ac:	000a0593          	mv	a1,s4
    800015b0:	00090513          	mv	a0,s2
    800015b4:	d3dff0ef          	jal	ra,800012f0 <_ZL9radixPassPiS_S_ii>
    800015b8:	11505463          	blez	s5,800016c0 <_Z11suffixArrayPiS_ii+0x294>
    800015bc:	020d1793          	slli	a5,s10,0x20
    800015c0:	01e7d813          	srli	a6,a5,0x1e
    800015c4:	000a0d13          	mv	s10,s4
    800015c8:	01480833          	add	a6,a6,s4
    800015cc:	000a0613          	mv	a2,s4
    800015d0:	fff00e13          	li	t3,-1
    800015d4:	fff00593          	li	a1,-1
    800015d8:	fff00893          	li	a7,-1
    800015dc:	00000693          	li	a3,0
    800015e0:	00300513          	li	a0,3
    800015e4:	00100313          	li	t1,1
    800015e8:	02c0006f          	j	80001614 <_Z11suffixArrayPiS_ii+0x1e8>
    800015ec:	02a7c7bb          	divw	a5,a5,a0
    800015f0:	0016869b          	addiw	a3,a3,1
    800015f4:	000f0893          	mv	a7,t5
    800015f8:	0087873b          	addw	a4,a5,s0
    800015fc:	00271713          	slli	a4,a4,0x2
    80001600:	00e90733          	add	a4,s2,a4
    80001604:	046e8a63          	beq	t4,t1,80001658 <_Z11suffixArrayPiS_ii+0x22c>
    80001608:	00d72023          	sw	a3,0(a4)
    8000160c:	00460613          	addi	a2,a2,4
    80001610:	05060e63          	beq	a2,a6,8000166c <_Z11suffixArrayPiS_ii+0x240>
    80001614:	00062783          	lw	a5,0(a2)
    80001618:	00058f93          	mv	t6,a1
    8000161c:	000e0293          	mv	t0,t3
    80001620:	00279713          	slli	a4,a5,0x2
    80001624:	00e98733          	add	a4,s3,a4
    80001628:	00072f03          	lw	t5,0(a4)
    8000162c:	02a7eebb          	remw	t4,a5,a0
    80001630:	00472583          	lw	a1,4(a4)
    80001634:	00872e03          	lw	t3,8(a4)
    80001638:	fb1f1ae3          	bne	t5,a7,800015ec <_Z11suffixArrayPiS_ii+0x1c0>
    8000163c:	fabf98e3          	bne	t6,a1,800015ec <_Z11suffixArrayPiS_ii+0x1c0>
    80001640:	fbc296e3          	bne	t0,t3,800015ec <_Z11suffixArrayPiS_ii+0x1c0>
    80001644:	02a7c7bb          	divw	a5,a5,a0
    80001648:	0087873b          	addw	a4,a5,s0
    8000164c:	00271713          	slli	a4,a4,0x2
    80001650:	00e90733          	add	a4,s2,a4
    80001654:	fa6e9ae3          	bne	t4,t1,80001608 <_Z11suffixArrayPiS_ii+0x1dc>
    80001658:	00279793          	slli	a5,a5,0x2
    8000165c:	00f907b3          	add	a5,s2,a5
    80001660:	00d7a023          	sw	a3,0(a5)
    80001664:	00460613          	addi	a2,a2,4
    80001668:	fb0616e3          	bne	a2,a6,80001614 <_Z11suffixArrayPiS_ii+0x1e8>
    8000166c:	00090613          	mv	a2,s2
    80001670:	00000713          	li	a4,0
    80001674:	2d56c463          	blt	a3,s5,8000193c <_Z11suffixArrayPiS_ii+0x510>
    80001678:	00062783          	lw	a5,0(a2)
    8000167c:	00460613          	addi	a2,a2,4
    80001680:	00279793          	slli	a5,a5,0x2
    80001684:	00fa07b3          	add	a5,s4,a5
    80001688:	fee7ae23          	sw	a4,-4(a5)
    8000168c:	0017071b          	addiw	a4,a4,1
    80001690:	feea94e3          	bne	s5,a4,80001678 <_Z11suffixArrayPiS_ii+0x24c>
    80001694:	00000613          	li	a2,0
    80001698:	000d2703          	lw	a4,0(s10)
    8000169c:	00261793          	slli	a5,a2,0x2
    800016a0:	004d0d13          	addi	s10,s10,4
    800016a4:	0017169b          	slliw	a3,a4,0x1
    800016a8:	00fd87b3          	add	a5,s11,a5
    800016ac:	00e686bb          	addw	a3,a3,a4
    800016b0:	00875663          	bge	a4,s0,800016bc <_Z11suffixArrayPiS_ii+0x290>
    800016b4:	00d7a023          	sw	a3,0(a5)
    800016b8:	0016061b          	addiw	a2,a2,1
    800016bc:	fd0d1ee3          	bne	s10,a6,80001698 <_Z11suffixArrayPiS_ii+0x26c>
    800016c0:	000c8713          	mv	a4,s9
    800016c4:	00040693          	mv	a3,s0
    800016c8:	00098613          	mv	a2,s3
    800016cc:	000b8593          	mv	a1,s7
    800016d0:	000d8513          	mv	a0,s11
    800016d4:	c1dff0ef          	jal	ra,800012f0 <_ZL9radixPassPiS_S_ii>
    800016d8:	00000893          	li	a7,0
    800016dc:	00000e93          	li	t4,0
    800016e0:	13605863          	blez	s6,80001810 <_Z11suffixArrayPiS_ii+0x3e4>
    800016e4:	004a0793          	addi	a5,s4,4
    800016e8:	00300593          	li	a1,3
    800016ec:	000a8d9b          	sext.w	s11,s5
    800016f0:	fffa8d1b          	addiw	s10,s5,-1
    800016f4:	00f13423          	sd	a5,8(sp)
    800016f8:	00040c9b          	sext.w	s9,s0
    800016fc:	fff4039b          	addiw	t2,s0,-1
    80001700:	004b8513          	addi	a0,s7,4
    80001704:	0400006f          	j	80001744 <_Z11suffixArrayPiS_ii+0x318>
    80001708:	0017169b          	slliw	a3,a4,0x1
    8000170c:	00e686bb          	addw	a3,a3,a4
    80001710:	0016869b          	addiw	a3,a3,1
    80001714:	00269313          	slli	t1,a3,0x2
    80001718:	00698333          	add	t1,s3,t1
    8000171c:	00032303          	lw	t1,0(t1)
    80001720:	09e34263          	blt	t1,t5,800017a4 <_Z11suffixArrayPiS_ii+0x378>
    80001724:	13e30463          	beq	t1,t5,8000184c <_Z11suffixArrayPiS_ii+0x420>
    80001728:	00289693          	slli	a3,a7,0x2
    8000172c:	00dc07b3          	add	a5,s8,a3
    80001730:	01c7a023          	sw	t3,0(a5)
    80001734:	001e8e9b          	addiw	t4,t4,1
    80001738:	15d40663          	beq	s0,t4,80001884 <_Z11suffixArrayPiS_ii+0x458>
    8000173c:	0018889b          	addiw	a7,a7,1
    80001740:	0d68d863          	bge	a7,s6,80001810 <_Z11suffixArrayPiS_ii+0x3e4>
    80001744:	002e9793          	slli	a5,t4,0x2
    80001748:	00fb87b3          	add	a5,s7,a5
    8000174c:	0007ae03          	lw	t3,0(a5)
    80001750:	00249813          	slli	a6,s1,0x2
    80001754:	010a0833          	add	a6,s4,a6
    80001758:	02be463b          	divw	a2,t3,a1
    8000175c:	00082703          	lw	a4,0(a6)
    80001760:	002e1313          	slli	t1,t3,0x2
    80001764:	00698333          	add	t1,s3,t1
    80001768:	00032f03          	lw	t5,0(t1)
    8000176c:	00060f93          	mv	t6,a2
    80001770:	f8874ce3          	blt	a4,s0,80001708 <_Z11suffixArrayPiS_ii+0x2dc>
    80001774:	4087073b          	subw	a4,a4,s0
    80001778:	0017169b          	slliw	a3,a4,0x1
    8000177c:	00e686bb          	addw	a3,a3,a4
    80001780:	0026869b          	addiw	a3,a3,2
    80001784:	00269293          	slli	t0,a3,0x2
    80001788:	005982b3          	add	t0,s3,t0
    8000178c:	0002a603          	lw	a2,0(t0)
    80001790:	01e64a63          	blt	a2,t5,800017a4 <_Z11suffixArrayPiS_ii+0x378>
    80001794:	f9e61ae3          	bne	a2,t5,80001728 <_Z11suffixArrayPiS_ii+0x2fc>
    80001798:	0042af03          	lw	t5,4(t0)
    8000179c:	00432603          	lw	a2,4(t1)
    800017a0:	16cf5863          	bge	t5,a2,80001910 <_Z11suffixArrayPiS_ii+0x4e4>
    800017a4:	00289713          	slli	a4,a7,0x2
    800017a8:	00ec0633          	add	a2,s8,a4
    800017ac:	00d62023          	sw	a3,0(a2)
    800017b0:	0014849b          	addiw	s1,s1,1
    800017b4:	f89a94e3          	bne	s5,s1,8000173c <_Z11suffixArrayPiS_ii+0x310>
    800017b8:	0018889b          	addiw	a7,a7,1
    800017bc:	00088813          	mv	a6,a7
    800017c0:	f68edee3          	bge	t4,s0,8000173c <_Z11suffixArrayPiS_ii+0x310>
    800017c4:	41d3863b          	subw	a2,t2,t4
    800017c8:	02061613          	slli	a2,a2,0x20
    800017cc:	02065613          	srli	a2,a2,0x20
    800017d0:	01d60633          	add	a2,a2,t4
    800017d4:	00470713          	addi	a4,a4,4
    800017d8:	00261613          	slli	a2,a2,0x2
    800017dc:	00ec0733          	add	a4,s8,a4
    800017e0:	000e8e9b          	sext.w	t4,t4
    800017e4:	00a60633          	add	a2,a2,a0
    800017e8:	0007a683          	lw	a3,0(a5)
    800017ec:	00478793          	addi	a5,a5,4
    800017f0:	00470713          	addi	a4,a4,4
    800017f4:	fed72e23          	sw	a3,-4(a4)
    800017f8:	fef618e3          	bne	a2,a5,800017e8 <_Z11suffixArrayPiS_ii+0x3bc>
    800017fc:	41d8083b          	subw	a6,a6,t4
    80001800:	019808bb          	addw	a7,a6,s9
    80001804:	0018889b          	addiw	a7,a7,1
    80001808:	00040e93          	mv	t4,s0
    8000180c:	f368cce3          	blt	a7,s6,80001744 <_Z11suffixArrayPiS_ii+0x318>
    80001810:	07813083          	ld	ra,120(sp)
    80001814:	07013403          	ld	s0,112(sp)
    80001818:	06813483          	ld	s1,104(sp)
    8000181c:	06013903          	ld	s2,96(sp)
    80001820:	05813983          	ld	s3,88(sp)
    80001824:	05013a03          	ld	s4,80(sp)
    80001828:	04813a83          	ld	s5,72(sp)
    8000182c:	04013b03          	ld	s6,64(sp)
    80001830:	03813b83          	ld	s7,56(sp)
    80001834:	03013c03          	ld	s8,48(sp)
    80001838:	02813c83          	ld	s9,40(sp)
    8000183c:	02013d03          	ld	s10,32(sp)
    80001840:	01813d83          	ld	s11,24(sp)
    80001844:	08010113          	addi	sp,sp,128
    80001848:	00008067          	ret
    8000184c:	0087073b          	addw	a4,a4,s0
    80001850:	00271713          	slli	a4,a4,0x2
    80001854:	00261613          	slli	a2,a2,0x2
    80001858:	00e90733          	add	a4,s2,a4
    8000185c:	00c90633          	add	a2,s2,a2
    80001860:	00072303          	lw	t1,0(a4)
    80001864:	00062703          	lw	a4,0(a2)
    80001868:	ec6740e3          	blt	a4,t1,80001728 <_Z11suffixArrayPiS_ii+0x2fc>
    8000186c:	00289713          	slli	a4,a7,0x2
    80001870:	00ec0633          	add	a2,s8,a4
    80001874:	00d62023          	sw	a3,0(a2)
    80001878:	0014849b          	addiw	s1,s1,1
    8000187c:	ec9a90e3          	bne	s5,s1,8000173c <_Z11suffixArrayPiS_ii+0x310>
    80001880:	f39ff06f          	j	800017b8 <_Z11suffixArrayPiS_ii+0x38c>
    80001884:	0018889b          	addiw	a7,a7,1
    80001888:	00088313          	mv	t1,a7
    8000188c:	eb54d8e3          	bge	s1,s5,8000173c <_Z11suffixArrayPiS_ii+0x310>
    80001890:	409d08bb          	subw	a7,s10,s1
    80001894:	02089893          	slli	a7,a7,0x20
    80001898:	00813783          	ld	a5,8(sp)
    8000189c:	0208d893          	srli	a7,a7,0x20
    800018a0:	009888b3          	add	a7,a7,s1
    800018a4:	00468693          	addi	a3,a3,4
    800018a8:	00289893          	slli	a7,a7,0x2
    800018ac:	00dc06b3          	add	a3,s8,a3
    800018b0:	0004849b          	sext.w	s1,s1
    800018b4:	00f888b3          	add	a7,a7,a5
    800018b8:	0180006f          	j	800018d0 <_Z11suffixArrayPiS_ii+0x4a4>
    800018bc:	0016079b          	addiw	a5,a2,1
    800018c0:	00f6a023          	sw	a5,0(a3)
    800018c4:	00480813          	addi	a6,a6,4
    800018c8:	00468693          	addi	a3,a3,4
    800018cc:	03088a63          	beq	a7,a6,80001900 <_Z11suffixArrayPiS_ii+0x4d4>
    800018d0:	00082703          	lw	a4,0(a6)
    800018d4:	40870e3b          	subw	t3,a4,s0
    800018d8:	0017161b          	slliw	a2,a4,0x1
    800018dc:	001e179b          	slliw	a5,t3,0x1
    800018e0:	00e6063b          	addw	a2,a2,a4
    800018e4:	01c787bb          	addw	a5,a5,t3
    800018e8:	fc874ae3          	blt	a4,s0,800018bc <_Z11suffixArrayPiS_ii+0x490>
    800018ec:	0027879b          	addiw	a5,a5,2
    800018f0:	00f6a023          	sw	a5,0(a3)
    800018f4:	00480813          	addi	a6,a6,4
    800018f8:	00468693          	addi	a3,a3,4
    800018fc:	fd089ae3          	bne	a7,a6,800018d0 <_Z11suffixArrayPiS_ii+0x4a4>
    80001900:	4093033b          	subw	t1,t1,s1
    80001904:	01b308bb          	addw	a7,t1,s11
    80001908:	000a8493          	mv	s1,s5
    8000190c:	e31ff06f          	j	8000173c <_Z11suffixArrayPiS_ii+0x310>
    80001910:	e0cf1ce3          	bne	t5,a2,80001728 <_Z11suffixArrayPiS_ii+0x2fc>
    80001914:	00170713          	addi	a4,a4,1
    80001918:	008f8fbb          	addw	t6,t6,s0
    8000191c:	00271613          	slli	a2,a4,0x2
    80001920:	002f9713          	slli	a4,t6,0x2
    80001924:	00c90633          	add	a2,s2,a2
    80001928:	00e90733          	add	a4,s2,a4
    8000192c:	00062603          	lw	a2,0(a2)
    80001930:	00072703          	lw	a4,0(a4)
    80001934:	dec74ae3          	blt	a4,a2,80001728 <_Z11suffixArrayPiS_ii+0x2fc>
    80001938:	e6dff06f          	j	800017a4 <_Z11suffixArrayPiS_ii+0x378>
    8000193c:	000a8613          	mv	a2,s5
    80001940:	000a0593          	mv	a1,s4
    80001944:	00090513          	mv	a0,s2
    80001948:	01013423          	sd	a6,8(sp)
    8000194c:	ae1ff0ef          	jal	ra,8000142c <_Z11suffixArrayPiS_ii>
    80001950:	00813803          	ld	a6,8(sp)
    80001954:	000a0693          	mv	a3,s4
    80001958:	00000713          	li	a4,0
    8000195c:	0006a783          	lw	a5,0(a3)
    80001960:	0017071b          	addiw	a4,a4,1
    80001964:	00468693          	addi	a3,a3,4
    80001968:	00279793          	slli	a5,a5,0x2
    8000196c:	00f907b3          	add	a5,s2,a5
    80001970:	00e7a023          	sw	a4,0(a5)
    80001974:	ff5714e3          	bne	a4,s5,8000195c <_Z11suffixArrayPiS_ii+0x530>
    80001978:	d1dff06f          	j	80001694 <_Z11suffixArrayPiS_ii+0x268>

000000008000197c <bench_ssort_prepare>:
    8000197c:	00005797          	auipc	a5,0x5
    80001980:	56c7b783          	ld	a5,1388(a5) # 80006ee8 <setting>
    80001984:	0007a783          	lw	a5,0(a5)
    80001988:	fd010113          	addi	sp,sp,-48
    8000198c:	00913c23          	sd	s1,24(sp)
    80001990:	00100513          	li	a0,1
    80001994:	00005497          	auipc	s1,0x5
    80001998:	4dc48493          	addi	s1,s1,1244 # 80006e70 <_ZL1N>
    8000199c:	02113423          	sd	ra,40(sp)
    800019a0:	00f4a023          	sw	a5,0(s1)
    800019a4:	01213823          	sd	s2,16(sp)
    800019a8:	02813023          	sd	s0,32(sp)
    800019ac:	01313423          	sd	s3,8(sp)
    800019b0:	6a8020ef          	jal	ra,80004058 <bench_srand>
    800019b4:	0004a503          	lw	a0,0(s1)
    800019b8:	00005917          	auipc	s2,0x5
    800019bc:	4c090913          	addi	s2,s2,1216 # 80006e78 <_ZL1s>
    800019c0:	00a5051b          	addiw	a0,a0,10
    800019c4:	00251513          	slli	a0,a0,0x2
    800019c8:	658020ef          	jal	ra,80004020 <bench_alloc>
    800019cc:	0004a783          	lw	a5,0(s1)
    800019d0:	00a93023          	sd	a0,0(s2)
    800019d4:	00a7851b          	addiw	a0,a5,10
    800019d8:	00251513          	slli	a0,a0,0x2
    800019dc:	644020ef          	jal	ra,80004020 <bench_alloc>
    800019e0:	0004a783          	lw	a5,0(s1)
    800019e4:	00005717          	auipc	a4,0x5
    800019e8:	48a73e23          	sd	a0,1180(a4) # 80006e80 <_ZL2sa>
    800019ec:	02f05a63          	blez	a5,80001a20 <bench_ssort_prepare+0xa4>
    800019f0:	00000413          	li	s0,0
    800019f4:	01a00993          	li	s3,26
    800019f8:	674020ef          	jal	ra,8000406c <bench_rand>
    800019fc:	0335753b          	remuw	a0,a0,s3
    80001a00:	00093783          	ld	a5,0(s2)
    80001a04:	00241713          	slli	a4,s0,0x2
    80001a08:	0004a683          	lw	a3,0(s1)
    80001a0c:	00e787b3          	add	a5,a5,a4
    80001a10:	00140413          	addi	s0,s0,1
    80001a14:	0004071b          	sext.w	a4,s0
    80001a18:	00a7a023          	sw	a0,0(a5)
    80001a1c:	fcd74ee3          	blt	a4,a3,800019f8 <bench_ssort_prepare+0x7c>
    80001a20:	02813083          	ld	ra,40(sp)
    80001a24:	02013403          	ld	s0,32(sp)
    80001a28:	01813483          	ld	s1,24(sp)
    80001a2c:	01013903          	ld	s2,16(sp)
    80001a30:	00813983          	ld	s3,8(sp)
    80001a34:	03010113          	addi	sp,sp,48
    80001a38:	00008067          	ret

0000000080001a3c <bench_ssort_run>:
    80001a3c:	01a00693          	li	a3,26
    80001a40:	00005617          	auipc	a2,0x5
    80001a44:	43062603          	lw	a2,1072(a2) # 80006e70 <_ZL1N>
    80001a48:	00005597          	auipc	a1,0x5
    80001a4c:	4385b583          	ld	a1,1080(a1) # 80006e80 <_ZL2sa>
    80001a50:	00005517          	auipc	a0,0x5
    80001a54:	42853503          	ld	a0,1064(a0) # 80006e78 <_ZL1s>
    80001a58:	9d5ff06f          	j	8000142c <_Z11suffixArrayPiS_ii>

0000000080001a5c <bench_ssort_validate>:
    80001a5c:	00005597          	auipc	a1,0x5
    80001a60:	4145a583          	lw	a1,1044(a1) # 80006e70 <_ZL1N>
    80001a64:	00005517          	auipc	a0,0x5
    80001a68:	41c53503          	ld	a0,1052(a0) # 80006e80 <_ZL2sa>
    80001a6c:	00259593          	slli	a1,a1,0x2
    80001a70:	ff010113          	addi	sp,sp,-16
    80001a74:	00b505b3          	add	a1,a0,a1
    80001a78:	00113423          	sd	ra,8(sp)
    80001a7c:	624020ef          	jal	ra,800040a0 <checksum>
    80001a80:	00005797          	auipc	a5,0x5
    80001a84:	4687b783          	ld	a5,1128(a5) # 80006ee8 <setting>
    80001a88:	0187a783          	lw	a5,24(a5)
    80001a8c:	00813083          	ld	ra,8(sp)
    80001a90:	0005051b          	sext.w	a0,a0
    80001a94:	40a78533          	sub	a0,a5,a0
    80001a98:	00153513          	seqz	a0,a0
    80001a9c:	01010113          	addi	sp,sp,16
    80001aa0:	00008067          	ret

0000000080001aa4 <dfs>:
    80001aa4:	fd010113          	addi	sp,sp,-48
    80001aa8:	01413023          	sd	s4,0(sp)
    80001aac:	02113423          	sd	ra,40(sp)
    80001ab0:	02813023          	sd	s0,32(sp)
    80001ab4:	00913c23          	sd	s1,24(sp)
    80001ab8:	01213823          	sd	s2,16(sp)
    80001abc:	01313423          	sd	s3,8(sp)
    80001ac0:	00005797          	auipc	a5,0x5
    80001ac4:	3c87a783          	lw	a5,968(a5) # 80006e88 <FULL>
    80001ac8:	00100a13          	li	s4,1
    80001acc:	04a78c63          	beq	a5,a0,80001b24 <dfs+0x80>
    80001ad0:	00c5e433          	or	s0,a1,a2
    80001ad4:	00a46433          	or	s0,s0,a0
    80001ad8:	fff44413          	not	s0,s0
    80001adc:	00f47433          	and	s0,s0,a5
    80001ae0:	00050493          	mv	s1,a0
    80001ae4:	00058993          	mv	s3,a1
    80001ae8:	00060913          	mv	s2,a2
    80001aec:	00000a13          	li	s4,0
    80001af0:	02040a63          	beqz	s0,80001b24 <dfs+0x80>
    80001af4:	408007bb          	negw	a5,s0
    80001af8:	00f477b3          	and	a5,s0,a5
    80001afc:	0007851b          	sext.w	a0,a5
    80001b00:	013565b3          	or	a1,a0,s3
    80001b04:	00a96633          	or	a2,s2,a0
    80001b08:	0015959b          	slliw	a1,a1,0x1
    80001b0c:	0016561b          	srliw	a2,a2,0x1
    80001b10:	00956533          	or	a0,a0,s1
    80001b14:	40f4043b          	subw	s0,s0,a5
    80001b18:	f8dff0ef          	jal	ra,80001aa4 <dfs>
    80001b1c:	01450a3b          	addw	s4,a0,s4
    80001b20:	fc041ae3          	bnez	s0,80001af4 <dfs+0x50>
    80001b24:	02813083          	ld	ra,40(sp)
    80001b28:	02013403          	ld	s0,32(sp)
    80001b2c:	01813483          	ld	s1,24(sp)
    80001b30:	01013903          	ld	s2,16(sp)
    80001b34:	00813983          	ld	s3,8(sp)
    80001b38:	000a0513          	mv	a0,s4
    80001b3c:	00013a03          	ld	s4,0(sp)
    80001b40:	03010113          	addi	sp,sp,48
    80001b44:	00008067          	ret

0000000080001b48 <bench_queen_prepare>:
    80001b48:	00005797          	auipc	a5,0x5
    80001b4c:	3a07b783          	ld	a5,928(a5) # 80006ee8 <setting>
    80001b50:	0007a703          	lw	a4,0(a5)
    80001b54:	00005797          	auipc	a5,0x5
    80001b58:	3207ac23          	sw	zero,824(a5) # 80006e8c <ans>
    80001b5c:	00100793          	li	a5,1
    80001b60:	00e797bb          	sllw	a5,a5,a4
    80001b64:	fff7879b          	addiw	a5,a5,-1
    80001b68:	00005717          	auipc	a4,0x5
    80001b6c:	32f72023          	sw	a5,800(a4) # 80006e88 <FULL>
    80001b70:	00008067          	ret

0000000080001b74 <bench_queen_run>:
    80001b74:	fe010113          	addi	sp,sp,-32
    80001b78:	00813823          	sd	s0,16(sp)
    80001b7c:	00913423          	sd	s1,8(sp)
    80001b80:	00113c23          	sd	ra,24(sp)
    80001b84:	00005417          	auipc	s0,0x5
    80001b88:	30442403          	lw	s0,772(s0) # 80006e88 <FULL>
    80001b8c:	00100493          	li	s1,1
    80001b90:	02040663          	beqz	s0,80001bbc <bench_queen_run+0x48>
    80001b94:	00000493          	li	s1,0
    80001b98:	408007bb          	negw	a5,s0
    80001b9c:	00f477b3          	and	a5,s0,a5
    80001ba0:	0017959b          	slliw	a1,a5,0x1
    80001ba4:	0017d61b          	srliw	a2,a5,0x1
    80001ba8:	0007851b          	sext.w	a0,a5
    80001bac:	40f4043b          	subw	s0,s0,a5
    80001bb0:	ef5ff0ef          	jal	ra,80001aa4 <dfs>
    80001bb4:	009504bb          	addw	s1,a0,s1
    80001bb8:	fe0410e3          	bnez	s0,80001b98 <bench_queen_run+0x24>
    80001bbc:	01813083          	ld	ra,24(sp)
    80001bc0:	01013403          	ld	s0,16(sp)
    80001bc4:	00005797          	auipc	a5,0x5
    80001bc8:	2c97a423          	sw	s1,712(a5) # 80006e8c <ans>
    80001bcc:	00813483          	ld	s1,8(sp)
    80001bd0:	02010113          	addi	sp,sp,32
    80001bd4:	00008067          	ret

0000000080001bd8 <bench_queen_validate>:
    80001bd8:	00005797          	auipc	a5,0x5
    80001bdc:	3107b783          	ld	a5,784(a5) # 80006ee8 <setting>
    80001be0:	0187a503          	lw	a0,24(a5)
    80001be4:	00005797          	auipc	a5,0x5
    80001be8:	2a87a783          	lw	a5,680(a5) # 80006e8c <ans>
    80001bec:	40f50533          	sub	a0,a0,a5
    80001bf0:	00153513          	seqz	a0,a0
    80001bf4:	00008067          	ret

0000000080001bf8 <bench_md5_prepare>:
    80001bf8:	00005797          	auipc	a5,0x5
    80001bfc:	2f07b783          	ld	a5,752(a5) # 80006ee8 <setting>
    80001c00:	0007a783          	lw	a5,0(a5)
    80001c04:	fe010113          	addi	sp,sp,-32
    80001c08:	00913423          	sd	s1,8(sp)
    80001c0c:	00100513          	li	a0,1
    80001c10:	00005497          	auipc	s1,0x5
    80001c14:	28048493          	addi	s1,s1,640 # 80006e90 <N>
    80001c18:	00f4a023          	sw	a5,0(s1)
    80001c1c:	00113c23          	sd	ra,24(sp)
    80001c20:	01213023          	sd	s2,0(sp)
    80001c24:	00813823          	sd	s0,16(sp)
    80001c28:	430020ef          	jal	ra,80004058 <bench_srand>
    80001c2c:	0004a503          	lw	a0,0(s1)
    80001c30:	00005917          	auipc	s2,0x5
    80001c34:	27090913          	addi	s2,s2,624 # 80006ea0 <str>
    80001c38:	3e8020ef          	jal	ra,80004020 <bench_alloc>
    80001c3c:	0004a783          	lw	a5,0(s1)
    80001c40:	00a93023          	sd	a0,0(s2)
    80001c44:	02f05463          	blez	a5,80001c6c <bench_md5_prepare+0x74>
    80001c48:	00000413          	li	s0,0
    80001c4c:	420020ef          	jal	ra,8000406c <bench_rand>
    80001c50:	00093783          	ld	a5,0(s2)
    80001c54:	0004a703          	lw	a4,0(s1)
    80001c58:	008787b3          	add	a5,a5,s0
    80001c5c:	00140413          	addi	s0,s0,1
    80001c60:	00a78023          	sb	a0,0(a5)
    80001c64:	0004079b          	sext.w	a5,s0
    80001c68:	fee7c2e3          	blt	a5,a4,80001c4c <bench_md5_prepare+0x54>
    80001c6c:	01000513          	li	a0,16
    80001c70:	3b0020ef          	jal	ra,80004020 <bench_alloc>
    80001c74:	01813083          	ld	ra,24(sp)
    80001c78:	01013403          	ld	s0,16(sp)
    80001c7c:	00005797          	auipc	a5,0x5
    80001c80:	20a7be23          	sd	a0,540(a5) # 80006e98 <digest>
    80001c84:	00813483          	ld	s1,8(sp)
    80001c88:	00013903          	ld	s2,0(sp)
    80001c8c:	02010113          	addi	sp,sp,32
    80001c90:	00008067          	ret

0000000080001c94 <bench_md5_run>:
    80001c94:	00005617          	auipc	a2,0x5
    80001c98:	1fc62603          	lw	a2,508(a2) # 80006e90 <N>
    80001c9c:	f6010113          	addi	sp,sp,-160
    80001ca0:	00160793          	addi	a5,a2,1
    80001ca4:	09213423          	sd	s2,136(sp)
    80001ca8:	07413c23          	sd	s4,120(sp)
    80001cac:	00005917          	auipc	s2,0x5
    80001cb0:	1f493903          	ld	s2,500(s2) # 80006ea0 <str>
    80001cb4:	08813c23          	sd	s0,152(sp)
    80001cb8:	08913823          	sd	s1,144(sp)
    80001cbc:	09313023          	sd	s3,128(sp)
    80001cc0:	07513823          	sd	s5,112(sp)
    80001cc4:	07613423          	sd	s6,104(sp)
    80001cc8:	07713023          	sd	s7,96(sp)
    80001ccc:	05813c23          	sd	s8,88(sp)
    80001cd0:	05913823          	sd	s9,80(sp)
    80001cd4:	05a13423          	sd	s10,72(sp)
    80001cd8:	05b13023          	sd	s11,64(sp)
    80001cdc:	03f7f693          	andi	a3,a5,63
    80001ce0:	03800713          	li	a4,56
    80001ce4:	00005a17          	auipc	s4,0x5
    80001ce8:	1b4a3a03          	ld	s4,436(s4) # 80006e98 <digest>
    80001cec:	00c905b3          	add	a1,s2,a2
    80001cf0:	00078f13          	mv	t5,a5
    80001cf4:	2ee68863          	beq	a3,a4,80001fe4 <bench_md5_run+0x350>
    80001cf8:	03800693          	li	a3,56
    80001cfc:	001f0f13          	addi	t5,t5,1
    80001d00:	03ff7713          	andi	a4,t5,63
    80001d04:	fed71ce3          	bne	a4,a3,80001cfc <bench_md5_run+0x68>
    80001d08:	f8000713          	li	a4,-128
    80001d0c:	00e58023          	sb	a4,0(a1)
    80001d10:	2de7fe63          	bgeu	a5,t5,80001fec <bench_md5_run+0x358>
    80001d14:	00f907b3          	add	a5,s2,a5
    80001d18:	01e90733          	add	a4,s2,t5
    80001d1c:	00078023          	sb	zero,0(a5)
    80001d20:	00178793          	addi	a5,a5,1
    80001d24:	fef71ce3          	bne	a4,a5,80001d1c <bench_md5_run+0x88>
    80001d28:	0036159b          	slliw	a1,a2,0x3
    80001d2c:	41d65693          	srai	a3,a2,0x1d
    80001d30:	0085d89b          	srliw	a7,a1,0x8
    80001d34:	0105d81b          	srliw	a6,a1,0x10
    80001d38:	0185d51b          	srliw	a0,a1,0x18
    80001d3c:	004f0793          	addi	a5,t5,4
    80001d40:	00b70023          	sb	a1,0(a4)
    80001d44:	011700a3          	sb	a7,1(a4)
    80001d48:	01070123          	sb	a6,2(a4)
    80001d4c:	00a701a3          	sb	a0,3(a4)
    80001d50:	00f907b3          	add	a5,s2,a5
    80001d54:	0086d59b          	srliw	a1,a3,0x8
    80001d58:	0106d71b          	srliw	a4,a3,0x10
    80001d5c:	01d65613          	srli	a2,a2,0x1d
    80001d60:	0186d69b          	srliw	a3,a3,0x18
    80001d64:	103252b7          	lui	t0,0x10325
    80001d68:	98bae3b7          	lui	t2,0x98bae
    80001d6c:	efcdb437          	lui	s0,0xefcdb
    80001d70:	674524b7          	lui	s1,0x67452
    80001d74:	d76aa9b7          	lui	s3,0xd76aa
    80001d78:	00c78023          	sb	a2,0(a5)
    80001d7c:	00b780a3          	sb	a1,1(a5)
    80001d80:	00e78123          	sb	a4,2(a5)
    80001d84:	00d781a3          	sb	a3,3(a5)
    80001d88:	47628293          	addi	t0,t0,1142 # 10325476 <_entry_offset+0x10325476>
    80001d8c:	cfe38393          	addi	t2,t2,-770 # ffffffff98badcfe <_end+0xffffffff18b9ecfe>
    80001d90:	b8940413          	addi	s0,s0,-1143 # ffffffffefcdab89 <_end+0xffffffff6fccbb89>
    80001d94:	30148493          	addi	s1,s1,769 # 67452301 <_entry_offset+0x67452301>
    80001d98:	00000f93          	li	t6,0
    80001d9c:	47898993          	addi	s3,s3,1144 # ffffffffd76aa478 <_end+0xffffffff5769b478>
    80001da0:	00f00b13          	li	s6,15
    80001da4:	01f00b93          	li	s7,31
    80001da8:	02f00e93          	li	t4,47
    80001dac:	03f00a93          	li	s5,63
    80001db0:	01f907b3          	add	a5,s2,t6
    80001db4:	00010713          	mv	a4,sp
    80001db8:	0017c583          	lbu	a1,1(a5)
    80001dbc:	0007c503          	lbu	a0,0(a5)
    80001dc0:	0027c603          	lbu	a2,2(a5)
    80001dc4:	0037c683          	lbu	a3,3(a5)
    80001dc8:	00859593          	slli	a1,a1,0x8
    80001dcc:	00a5e5b3          	or	a1,a1,a0
    80001dd0:	01061613          	slli	a2,a2,0x10
    80001dd4:	00b66633          	or	a2,a2,a1
    80001dd8:	01869693          	slli	a3,a3,0x18
    80001ddc:	00c6e6b3          	or	a3,a3,a2
    80001de0:	00d72023          	sw	a3,0(a4)
    80001de4:	00470713          	addi	a4,a4,4
    80001de8:	04010693          	addi	a3,sp,64
    80001dec:	00478793          	addi	a5,a5,4
    80001df0:	fce694e3          	bne	a3,a4,80001db8 <bench_md5_run+0x124>
    80001df4:	00048d93          	mv	s11,s1
    80001df8:	00098c93          	mv	s9,s3
    80001dfc:	00000813          	li	a6,0
    80001e00:	00004617          	auipc	a2,0x4
    80001e04:	a0460613          	addi	a2,a2,-1532 # 80005804 <_etext+0x4>
    80001e08:	00004697          	auipc	a3,0x4
    80001e0c:	afc68693          	addi	a3,a3,-1284 # 80005904 <r+0x4>
    80001e10:	00040713          	mv	a4,s0
    80001e14:	00028513          	mv	a0,t0
    80001e18:	00038593          	mv	a1,t2
    80001e1c:	00000e13          	li	t3,0
    80001e20:	00100893          	li	a7,1
    80001e24:	00500313          	li	t1,5
    80001e28:	00700c13          	li	s8,7
    80001e2c:	019d8dbb          	addw	s11,s11,s9
    80001e30:	090b7263          	bgeu	s6,a6,80001eb4 <bench_md5_run+0x220>
    80001e34:	00e5c7b3          	xor	a5,a1,a4
    80001e38:	00a7f7b3          	and	a5,a5,a0
    80001e3c:	00f5c7b3          	xor	a5,a1,a5
    80001e40:	090be663          	bltu	s7,a6,80001ecc <bench_md5_run+0x238>
    80001e44:	0007879b          	sext.w	a5,a5
    80001e48:	00f8fc93          	andi	s9,a7,15
    80001e4c:	020c9d13          	slli	s10,s9,0x20
    80001e50:	01ed5c93          	srli	s9,s10,0x1e
    80001e54:	040c8c93          	addi	s9,s9,64
    80001e58:	002c8cb3          	add	s9,s9,sp
    80001e5c:	fc0cad03          	lw	s10,-64(s9)
    80001e60:	01b787bb          	addw	a5,a5,s11
    80001e64:	41800cbb          	negw	s9,s8
    80001e68:	01a787bb          	addw	a5,a5,s10
    80001e6c:	01879c3b          	sllw	s8,a5,s8
    80001e70:	0197d7bb          	srlw	a5,a5,s9
    80001e74:	00fc67b3          	or	a5,s8,a5
    80001e78:	00e787bb          	addw	a5,a5,a4
    80001e7c:	00062c83          	lw	s9,0(a2)
    80001e80:	00050d93          	mv	s11,a0
    80001e84:	0018081b          	addiw	a6,a6,1
    80001e88:	0006ac03          	lw	s8,0(a3)
    80001e8c:	00058513          	mv	a0,a1
    80001e90:	00460613          	addi	a2,a2,4
    80001e94:	00070593          	mv	a1,a4
    80001e98:	00468693          	addi	a3,a3,4
    80001e9c:	0033031b          	addiw	t1,t1,3
    80001ea0:	0058889b          	addiw	a7,a7,5
    80001ea4:	007e0e1b          	addiw	t3,t3,7
    80001ea8:	00078713          	mv	a4,a5
    80001eac:	019d8dbb          	addw	s11,s11,s9
    80001eb0:	f90b62e3          	bltu	s6,a6,80001e34 <bench_md5_run+0x1a0>
    80001eb4:	00a5c7b3          	xor	a5,a1,a0
    80001eb8:	00e7f7b3          	and	a5,a5,a4
    80001ebc:	00f547b3          	xor	a5,a0,a5
    80001ec0:	0007879b          	sext.w	a5,a5
    80001ec4:	00080c93          	mv	s9,a6
    80001ec8:	f85ff06f          	j	80001e4c <bench_md5_run+0x1b8>
    80001ecc:	00a5c7b3          	xor	a5,a1,a0
    80001ed0:	00e7c7b3          	xor	a5,a5,a4
    80001ed4:	010ee863          	bltu	t4,a6,80001ee4 <bench_md5_run+0x250>
    80001ed8:	0007879b          	sext.w	a5,a5
    80001edc:	00f37c93          	andi	s9,t1,15
    80001ee0:	f6dff06f          	j	80001e4c <bench_md5_run+0x1b8>
    80001ee4:	00fe7c93          	andi	s9,t3,15
    80001ee8:	002c9c93          	slli	s9,s9,0x2
    80001eec:	040c8793          	addi	a5,s9,64
    80001ef0:	00278cb3          	add	s9,a5,sp
    80001ef4:	fc0cac83          	lw	s9,-64(s9)
    80001ef8:	fff54793          	not	a5,a0
    80001efc:	00e7e7b3          	or	a5,a5,a4
    80001f00:	00b7c7b3          	xor	a5,a5,a1
    80001f04:	00fc8cbb          	addw	s9,s9,a5
    80001f08:	01bc8cbb          	addw	s9,s9,s11
    80001f0c:	41800d3b          	negw	s10,s8
    80001f10:	018c97bb          	sllw	a5,s9,s8
    80001f14:	01acdcbb          	srlw	s9,s9,s10
    80001f18:	0197e7b3          	or	a5,a5,s9
    80001f1c:	00e787bb          	addw	a5,a5,a4
    80001f20:	f5581ee3          	bne	a6,s5,80001e7c <bench_md5_run+0x1e8>
    80001f24:	040f8f93          	addi	t6,t6,64
    80001f28:	009504bb          	addw	s1,a0,s1
    80001f2c:	0087843b          	addw	s0,a5,s0
    80001f30:	007703bb          	addw	t2,a4,t2
    80001f34:	005582bb          	addw	t0,a1,t0
    80001f38:	e7efece3          	bltu	t6,t5,80001db0 <bench_md5_run+0x11c>
    80001f3c:	0084df1b          	srliw	t5,s1,0x8
    80001f40:	0104de9b          	srliw	t4,s1,0x10
    80001f44:	0184de1b          	srliw	t3,s1,0x18
    80001f48:	0084531b          	srliw	t1,s0,0x8
    80001f4c:	0104589b          	srliw	a7,s0,0x10
    80001f50:	0184581b          	srliw	a6,s0,0x18
    80001f54:	0083d51b          	srliw	a0,t2,0x8
    80001f58:	0103d59b          	srliw	a1,t2,0x10
    80001f5c:	0183d61b          	srliw	a2,t2,0x18
    80001f60:	0082d69b          	srliw	a3,t0,0x8
    80001f64:	0102d71b          	srliw	a4,t0,0x10
    80001f68:	0182d79b          	srliw	a5,t0,0x18
    80001f6c:	009a0023          	sb	s1,0(s4)
    80001f70:	01ea00a3          	sb	t5,1(s4)
    80001f74:	01da0123          	sb	t4,2(s4)
    80001f78:	01ca01a3          	sb	t3,3(s4)
    80001f7c:	008a0223          	sb	s0,4(s4)
    80001f80:	006a02a3          	sb	t1,5(s4)
    80001f84:	011a0323          	sb	a7,6(s4)
    80001f88:	010a03a3          	sb	a6,7(s4)
    80001f8c:	007a0423          	sb	t2,8(s4)
    80001f90:	00aa04a3          	sb	a0,9(s4)
    80001f94:	00ba0523          	sb	a1,10(s4)
    80001f98:	00ca05a3          	sb	a2,11(s4)
    80001f9c:	005a0623          	sb	t0,12(s4)
    80001fa0:	00da06a3          	sb	a3,13(s4)
    80001fa4:	00ea0723          	sb	a4,14(s4)
    80001fa8:	00fa07a3          	sb	a5,15(s4)
    80001fac:	09813403          	ld	s0,152(sp)
    80001fb0:	09013483          	ld	s1,144(sp)
    80001fb4:	08813903          	ld	s2,136(sp)
    80001fb8:	08013983          	ld	s3,128(sp)
    80001fbc:	07813a03          	ld	s4,120(sp)
    80001fc0:	07013a83          	ld	s5,112(sp)
    80001fc4:	06813b03          	ld	s6,104(sp)
    80001fc8:	06013b83          	ld	s7,96(sp)
    80001fcc:	05813c03          	ld	s8,88(sp)
    80001fd0:	05013c83          	ld	s9,80(sp)
    80001fd4:	04813d03          	ld	s10,72(sp)
    80001fd8:	04013d83          	ld	s11,64(sp)
    80001fdc:	0a010113          	addi	sp,sp,160
    80001fe0:	00008067          	ret
    80001fe4:	f8000793          	li	a5,-128
    80001fe8:	00f58023          	sb	a5,0(a1)
    80001fec:	01e90733          	add	a4,s2,t5
    80001ff0:	d39ff06f          	j	80001d28 <bench_md5_run+0x94>

0000000080001ff4 <bench_md5_validate>:
    80001ff4:	00005517          	auipc	a0,0x5
    80001ff8:	ea453503          	ld	a0,-348(a0) # 80006e98 <digest>
    80001ffc:	ff010113          	addi	sp,sp,-16
    80002000:	01050593          	addi	a1,a0,16
    80002004:	00113423          	sd	ra,8(sp)
    80002008:	098020ef          	jal	ra,800040a0 <checksum>
    8000200c:	00005797          	auipc	a5,0x5
    80002010:	edc7b783          	ld	a5,-292(a5) # 80006ee8 <setting>
    80002014:	0187a783          	lw	a5,24(a5)
    80002018:	00813083          	ld	ra,8(sp)
    8000201c:	0005051b          	sext.w	a0,a0
    80002020:	40a78533          	sub	a0,a5,a0
    80002024:	00153513          	seqz	a0,a0
    80002028:	01010113          	addi	sp,sp,16
    8000202c:	00008067          	ret

0000000080002030 <bench_memcpy.part.0>:
    80002030:	ff010113          	addi	sp,sp,-16
    80002034:	00800613          	li	a2,8
    80002038:	00004597          	auipc	a1,0x4
    8000203c:	9c858593          	addi	a1,a1,-1592 # 80005a00 <r+0x100>
    80002040:	00004517          	auipc	a0,0x4
    80002044:	a2050513          	addi	a0,a0,-1504 # 80005a60 <r+0x160>
    80002048:	00113423          	sd	ra,8(sp)
    8000204c:	6a4030ef          	jal	ra,800056f0 <printf>
    80002050:	00100513          	li	a0,1
    80002054:	5a9020ef          	jal	ra,80004dfc <halt>

0000000080002058 <qlz_compress>:
    80002058:	00100793          	li	a5,1
    8000205c:	f5010113          	addi	sp,sp,-176
    80002060:	02079793          	slli	a5,a5,0x20
    80002064:	00060713          	mv	a4,a2
    80002068:	02c13023          	sd	a2,32(sp)
    8000206c:	0a113423          	sd	ra,168(sp)
    80002070:	0a813023          	sd	s0,160(sp)
    80002074:	08913c23          	sd	s1,152(sp)
    80002078:	09213823          	sd	s2,144(sp)
    8000207c:	09313423          	sd	s3,136(sp)
    80002080:	09413023          	sd	s4,128(sp)
    80002084:	07513c23          	sd	s5,120(sp)
    80002088:	07613823          	sd	s6,112(sp)
    8000208c:	07713423          	sd	s7,104(sp)
    80002090:	07813023          	sd	s8,96(sp)
    80002094:	05913c23          	sd	s9,88(sp)
    80002098:	05a13823          	sd	s10,80(sp)
    8000209c:	05b13423          	sd	s11,72(sp)
    800020a0:	fff60613          	addi	a2,a2,-1
    800020a4:	e6e78793          	addi	a5,a5,-402
    800020a8:	00b13823          	sd	a1,16(sp)
    800020ac:	5ac7e063          	bltu	a5,a2,8000264c <qlz_compress+0x5f4>
    800020b0:	00300593          	li	a1,3
    800020b4:	0d700793          	li	a5,215
    800020b8:	00b13c23          	sd	a1,24(sp)
    800020bc:	00050b93          	mv	s7,a0
    800020c0:	46e7e063          	bltu	a5,a4,80002520 <qlz_compress+0x4c8>
    800020c4:	000107b7          	lui	a5,0x10
    800020c8:	00011737          	lui	a4,0x11
    800020cc:	00878793          	addi	a5,a5,8 # 10008 <_entry_offset+0x10008>
    800020d0:	80870713          	addi	a4,a4,-2040 # 10808 <_entry_offset+0x10808>
    800020d4:	00f687b3          	add	a5,a3,a5
    800020d8:	00e68733          	add	a4,a3,a4
    800020dc:	00078023          	sb	zero,0(a5)
    800020e0:	00178793          	addi	a5,a5,1
    800020e4:	fef71ce3          	bne	a4,a5,800020dc <qlz_compress+0x84>
    800020e8:	00cb8733          	add	a4,s7,a2
    800020ec:	01013783          	ld	a5,16(sp)
    800020f0:	01813603          	ld	a2,24(sp)
    800020f4:	02e13423          	sd	a4,40(sp)
    800020f8:	ff670d13          	addi	s10,a4,-10
    800020fc:	00c78633          	add	a2,a5,a2
    80002100:	00c13023          	sd	a2,0(sp)
    80002104:	00460f93          	addi	t6,a2,4
    80002108:	5f7d6663          	bltu	s10,s7,800026f4 <qlz_compress+0x69c>
    8000210c:	02013783          	ld	a5,32(sp)
    80002110:	ffc70d93          	addi	s11,a4,-4
    80002114:	800008b7          	lui	a7,0x80000
    80002118:	0017d793          	srli	a5,a5,0x1
    8000211c:	00fb87b3          	add	a5,s7,a5
    80002120:	00f13423          	sd	a5,8(sp)
    80002124:	000b8713          	mv	a4,s7
    80002128:	00060793          	mv	a5,a2
    8000212c:	00010c37          	lui	s8,0x10
    80002130:	00400993          	li	s3,4
    80002134:	04010413          	addi	s0,sp,64
    80002138:	40ed82b3          	sub	t0,s11,a4
    8000213c:	0fe00613          	li	a2,254
    80002140:	00565463          	bge	a2,t0,80002148 <qlz_compress+0xf0>
    80002144:	0fe00293          	li	t0,254
    80002148:	00174603          	lbu	a2,1(a4)
    8000214c:	00274503          	lbu	a0,2(a4)
    80002150:	00074583          	lbu	a1,0(a4)
    80002154:	0086161b          	slliw	a2,a2,0x8
    80002158:	0105151b          	slliw	a0,a0,0x10
    8000215c:	00a66633          	or	a2,a2,a0
    80002160:	00b66633          	or	a2,a2,a1
    80002164:	00d6551b          	srliw	a0,a2,0xd
    80002168:	0096559b          	srliw	a1,a2,0x9
    8000216c:	00a5c5b3          	xor	a1,a1,a0
    80002170:	0006061b          	sext.w	a2,a2
    80002174:	00c5c5b3          	xor	a1,a1,a2
    80002178:	7ff5ff13          	andi	t5,a1,2047
    8000217c:	005f1313          	slli	t1,t5,0x5
    80002180:	00668333          	add	t1,a3,t1
    80002184:	00833503          	ld	a0,8(t1)
    80002188:	01e68833          	add	a6,a3,t5
    8000218c:	010c0833          	add	a6,s8,a6
    80002190:	ffe70a13          	addi	s4,a4,-2
    80002194:	00884383          	lbu	t2,8(a6)
    80002198:	00128293          	addi	t0,t0,1
    8000219c:	000f0593          	mv	a1,t5
    800021a0:	09457863          	bgeu	a0,s4,80002230 <qlz_compress+0x1d8>
    800021a4:	2c039c63          	bnez	t2,8000247c <qlz_compress+0x424>
    800021a8:	00e33423          	sd	a4,8(t1)
    800021ac:	00100613          	li	a2,1
    800021b0:	00c80423          	sb	a2,8(a6)
    800021b4:	0018d89b          	srliw	a7,a7,0x1
    800021b8:	00074603          	lbu	a2,0(a4)
    800021bc:	001f8f93          	addi	t6,t6,1
    800021c0:	00170713          	addi	a4,a4,1
    800021c4:	fecf8fa3          	sb	a2,-1(t6)
    800021c8:	0018f613          	andi	a2,a7,1
    800021cc:	00060593          	mv	a1,a2
    800021d0:	12ed6c63          	bltu	s10,a4,80002308 <qlz_compress+0x2b0>
    800021d4:	f60582e3          	beqz	a1,80002138 <qlz_compress+0xe0>
    800021d8:	00813603          	ld	a2,8(sp)
    800021dc:	00e67e63          	bgeu	a2,a4,800021f8 <qlz_compress+0x1a0>
    800021e0:	00013583          	ld	a1,0(sp)
    800021e4:	41770633          	sub	a2,a4,s7
    800021e8:	40565513          	srai	a0,a2,0x5
    800021ec:	40bf85b3          	sub	a1,t6,a1
    800021f0:	40a60633          	sub	a2,a2,a0
    800021f4:	46b64a63          	blt	a2,a1,80002668 <qlz_compress+0x610>
    800021f8:	80000637          	lui	a2,0x80000
    800021fc:	0018d89b          	srliw	a7,a7,0x1
    80002200:	00c8e8b3          	or	a7,a7,a2
    80002204:	03112e23          	sw	a7,60(sp)
    80002208:	03c10613          	addi	a2,sp,60
    8000220c:	00064583          	lbu	a1,0(a2) # ffffffff80000000 <_end+0xfffffffeffff1000>
    80002210:	00160613          	addi	a2,a2,1
    80002214:	00178793          	addi	a5,a5,1
    80002218:	feb78fa3          	sb	a1,-1(a5)
    8000221c:	fec418e3          	bne	s0,a2,8000220c <qlz_compress+0x1b4>
    80002220:	000f8793          	mv	a5,t6
    80002224:	800008b7          	lui	a7,0x80000
    80002228:	004f8f93          	addi	t6,t6,4
    8000222c:	f0dff06f          	j	80002138 <qlz_compress+0xe0>
    80002230:	00000e93          	li	t4,0
    80002234:	005f1813          	slli	a6,t5,0x5
    80002238:	0003891b          	sext.w	s2,t2
    8000223c:	01068833          	add	a6,a3,a6
    80002240:	00000c93          	li	s9,0
    80002244:	00100313          	li	t1,1
    80002248:	03237863          	bgeu	t1,s2,80002278 <qlz_compress+0x220>
    8000224c:	01083e03          	ld	t3,16(a6)
    80002250:	020e9513          	slli	a0,t4,0x20
    80002254:	02055513          	srli	a0,a0,0x20
    80002258:	00a704b3          	add	s1,a4,a0
    8000225c:	00ae0533          	add	a0,t3,a0
    80002260:	0004c483          	lbu	s1,0(s1)
    80002264:	00054503          	lbu	a0,0(a0)
    80002268:	1aa48063          	beq	s1,a0,80002408 <qlz_compress+0x3b0>
    8000226c:	0013031b          	addiw	t1,t1,1
    80002270:	00880813          	addi	a6,a6,8
    80002274:	fd331ae3          	bne	t1,s3,80002248 <qlz_compress+0x1f0>
    80002278:	0033f513          	andi	a0,t2,3
    8000227c:	002f1613          	slli	a2,t5,0x2
    80002280:	00a60633          	add	a2,a2,a0
    80002284:	00361613          	slli	a2,a2,0x3
    80002288:	00c68633          	add	a2,a3,a2
    8000228c:	01e68f33          	add	t5,a3,t5
    80002290:	00e63423          	sd	a4,8(a2)
    80002294:	01ec0f33          	add	t5,s8,t5
    80002298:	0013839b          	addiw	t2,t2,1
    8000229c:	0018d61b          	srliw	a2,a7,0x1
    800022a0:	007f0423          	sb	t2,8(t5)
    800022a4:	00200513          	li	a0,2
    800022a8:	0006089b          	sext.w	a7,a2
    800022ac:	f1d576e3          	bgeu	a0,t4,800021b8 <qlz_compress+0x160>
    800022b0:	80000537          	lui	a0,0x80000
    800022b4:	0055959b          	slliw	a1,a1,0x5
    800022b8:	00a66833          	or	a6,a2,a0
    800022bc:	00bce5b3          	or	a1,s9,a1
    800022c0:	020e9513          	slli	a0,t4,0x20
    800022c4:	02055513          	srli	a0,a0,0x20
    800022c8:	0005861b          	sext.w	a2,a1
    800022cc:	00900593          	li	a1,9
    800022d0:	0008089b          	sext.w	a7,a6
    800022d4:	00a70733          	add	a4,a4,a0
    800022d8:	23d5e063          	bltu	a1,t4,800024f8 <qlz_compress+0x4a0>
    800022dc:	ffee8e9b          	addiw	t4,t4,-2
    800022e0:	002e9e9b          	slliw	t4,t4,0x2
    800022e4:	01d66633          	or	a2,a2,t4
    800022e8:	0006061b          	sext.w	a2,a2
    800022ec:	00865593          	srli	a1,a2,0x8
    800022f0:	00cf8023          	sb	a2,0(t6)
    800022f4:	00bf80a3          	sb	a1,1(t6)
    800022f8:	0018f613          	andi	a2,a7,1
    800022fc:	002f8f93          	addi	t6,t6,2
    80002300:	00060593          	mv	a1,a2
    80002304:	eced78e3          	bgeu	s10,a4,800021d4 <qlz_compress+0x17c>
    80002308:	02813803          	ld	a6,40(sp)
    8000230c:	0018d29b          	srliw	t0,a7,0x1
    80002310:	0018d51b          	srliw	a0,a7,0x1
    80002314:	20e86c63          	bltu	a6,a4,8000252c <qlz_compress+0x4d4>
    80002318:	02813583          	ld	a1,40(sp)
    8000231c:	03c10813          	addi	a6,sp,60
    80002320:	80000f37          	lui	t5,0x80000
    80002324:	ffd58e13          	addi	t3,a1,-3
    80002328:	02013583          	ld	a1,32(sp)
    8000232c:	04010313          	addi	t1,sp,64
    80002330:	00010eb7          	lui	t4,0x10
    80002334:	00bb8bb3          	add	s7,s7,a1
    80002338:	0002839b          	sext.w	t2,t0
    8000233c:	08061a63          	bnez	a2,800023d0 <qlz_compress+0x378>
    80002340:	0028d51b          	srliw	a0,a7,0x2
    80002344:	0012f593          	andi	a1,t0,1
    80002348:	00038893          	mv	a7,t2
    8000234c:	06ee6063          	bltu	t3,a4,800023ac <qlz_compress+0x354>
    80002350:	00174283          	lbu	t0,1(a4)
    80002354:	00274603          	lbu	a2,2(a4)
    80002358:	00074403          	lbu	s0,0(a4)
    8000235c:	0082929b          	slliw	t0,t0,0x8
    80002360:	0106161b          	slliw	a2,a2,0x10
    80002364:	00c2e2b3          	or	t0,t0,a2
    80002368:	00d2d39b          	srliw	t2,t0,0xd
    8000236c:	0092d61b          	srliw	a2,t0,0x9
    80002370:	00764633          	xor	a2,a2,t2
    80002374:	0082e2b3          	or	t0,t0,s0
    80002378:	00564633          	xor	a2,a2,t0
    8000237c:	7ff67613          	andi	a2,a2,2047
    80002380:	00c682b3          	add	t0,a3,a2
    80002384:	005e82b3          	add	t0,t4,t0
    80002388:	0082c383          	lbu	t2,8(t0)
    8000238c:	00261613          	slli	a2,a2,0x2
    80002390:	0033f413          	andi	s0,t2,3
    80002394:	00860633          	add	a2,a2,s0
    80002398:	00361613          	slli	a2,a2,0x3
    8000239c:	00c68633          	add	a2,a3,a2
    800023a0:	00e63423          	sd	a4,8(a2)
    800023a4:	0013839b          	addiw	t2,t2,1
    800023a8:	00728423          	sb	t2,8(t0)
    800023ac:	00074603          	lbu	a2,0(a4)
    800023b0:	00170713          	addi	a4,a4,1
    800023b4:	001f8f93          	addi	t6,t6,1
    800023b8:	fecf8fa3          	sb	a2,-1(t6)
    800023bc:	17770a63          	beq	a4,s7,80002530 <qlz_compress+0x4d8>
    800023c0:	0018d29b          	srliw	t0,a7,0x1
    800023c4:	0018f613          	andi	a2,a7,1
    800023c8:	0002839b          	sext.w	t2,t0
    800023cc:	f6060ae3          	beqz	a2,80002340 <qlz_compress+0x2e8>
    800023d0:	01e2e2b3          	or	t0,t0,t5
    800023d4:	02512e23          	sw	t0,60(sp)
    800023d8:	00080613          	mv	a2,a6
    800023dc:	00064583          	lbu	a1,0(a2)
    800023e0:	00160613          	addi	a2,a2,1
    800023e4:	00178793          	addi	a5,a5,1
    800023e8:	feb78fa3          	sb	a1,-1(a5)
    800023ec:	fec318e3          	bne	t1,a2,800023dc <qlz_compress+0x384>
    800023f0:	000f8793          	mv	a5,t6
    800023f4:	20000537          	lui	a0,0x20000
    800023f8:	004f8f93          	addi	t6,t6,4
    800023fc:	00000593          	li	a1,0
    80002400:	400008b7          	lui	a7,0x40000
    80002404:	f49ff06f          	j	8000234c <qlz_compress+0x2f4>
    80002408:	001e4503          	lbu	a0,1(t3)
    8000240c:	002e4483          	lbu	s1,2(t3)
    80002410:	000e4a83          	lbu	s5,0(t3)
    80002414:	0085151b          	slliw	a0,a0,0x8
    80002418:	0104949b          	slliw	s1,s1,0x10
    8000241c:	00956533          	or	a0,a0,s1
    80002420:	01556533          	or	a0,a0,s5
    80002424:	0005051b          	sext.w	a0,a0
    80002428:	e4c512e3          	bne	a0,a2,8000226c <qlz_compress+0x214>
    8000242c:	e54e70e3          	bgeu	t3,s4,8000226c <qlz_compress+0x214>
    80002430:	003e4483          	lbu	s1,3(t3)
    80002434:	00374503          	lbu	a0,3(a4)
    80002438:	2aa49a63          	bne	s1,a0,800026ec <qlz_compress+0x694>
    8000243c:	00300513          	li	a0,3
    80002440:	00556663          	bltu	a0,t0,8000244c <qlz_compress+0x3f4>
    80002444:	2a80006f          	j	800026ec <qlz_compress+0x694>
    80002448:	0254f263          	bgeu	s1,t0,8000246c <qlz_compress+0x414>
    8000244c:	0015051b          	addiw	a0,a0,1 # 20000001 <_entry_offset+0x20000001>
    80002450:	02051493          	slli	s1,a0,0x20
    80002454:	0204d493          	srli	s1,s1,0x20
    80002458:	009e0b33          	add	s6,t3,s1
    8000245c:	00970ab3          	add	s5,a4,s1
    80002460:	000b4b03          	lbu	s6,0(s6)
    80002464:	000aca83          	lbu	s5,0(s5)
    80002468:	ff5b00e3          	beq	s6,s5,80002448 <qlz_compress+0x3f0>
    8000246c:	e0aef0e3          	bgeu	t4,a0,8000226c <qlz_compress+0x214>
    80002470:	00030c93          	mv	s9,t1
    80002474:	00050e93          	mv	t4,a0
    80002478:	df5ff06f          	j	8000226c <qlz_compress+0x214>
    8000247c:	00154803          	lbu	a6,1(a0)
    80002480:	00254303          	lbu	t1,2(a0)
    80002484:	00054e03          	lbu	t3,0(a0)
    80002488:	0088181b          	slliw	a6,a6,0x8
    8000248c:	0103131b          	slliw	t1,t1,0x10
    80002490:	00686833          	or	a6,a6,t1
    80002494:	01c86833          	or	a6,a6,t3
    80002498:	0008081b          	sext.w	a6,a6
    8000249c:	00000e93          	li	t4,0
    800024a0:	d8c81ae3          	bne	a6,a2,80002234 <qlz_compress+0x1dc>
    800024a4:	00354303          	lbu	t1,3(a0)
    800024a8:	00374803          	lbu	a6,3(a4)
    800024ac:	00300e93          	li	t4,3
    800024b0:	d90312e3          	bne	t1,a6,80002234 <qlz_compress+0x1dc>
    800024b4:	00454303          	lbu	t1,4(a0)
    800024b8:	00474803          	lbu	a6,4(a4)
    800024bc:	00400e93          	li	t4,4
    800024c0:	d7031ae3          	bne	t1,a6,80002234 <qlz_compress+0x1dc>
    800024c4:	0059e663          	bltu	s3,t0,800024d0 <qlz_compress+0x478>
    800024c8:	d6dff06f          	j	80002234 <qlz_compress+0x1dc>
    800024cc:	d65874e3          	bgeu	a6,t0,80002234 <qlz_compress+0x1dc>
    800024d0:	001e8e1b          	addiw	t3,t4,1 # 10001 <_entry_offset+0x10001>
    800024d4:	020e1813          	slli	a6,t3,0x20
    800024d8:	02085813          	srli	a6,a6,0x20
    800024dc:	01070eb3          	add	t4,a4,a6
    800024e0:	01050333          	add	t1,a0,a6
    800024e4:	000ec483          	lbu	s1,0(t4)
    800024e8:	00034303          	lbu	t1,0(t1)
    800024ec:	000e0e9b          	sext.w	t4,t3
    800024f0:	fc930ee3          	beq	t1,s1,800024cc <qlz_compress+0x474>
    800024f4:	d41ff06f          	j	80002234 <qlz_compress+0x1dc>
    800024f8:	010e9e9b          	slliw	t4,t4,0x10
    800024fc:	01d66633          	or	a2,a2,t4
    80002500:	0006061b          	sext.w	a2,a2
    80002504:	00865513          	srli	a0,a2,0x8
    80002508:	01065593          	srli	a1,a2,0x10
    8000250c:	00cf8023          	sb	a2,0(t6)
    80002510:	00af80a3          	sb	a0,1(t6)
    80002514:	00bf8123          	sb	a1,2(t6)
    80002518:	003f8f93          	addi	t6,t6,3
    8000251c:	cadff06f          	j	800021c8 <qlz_compress+0x170>
    80002520:	00900793          	li	a5,9
    80002524:	00f13c23          	sd	a5,24(sp)
    80002528:	b9dff06f          	j	800020c4 <qlz_compress+0x6c>
    8000252c:	03c10813          	addi	a6,sp,60
    80002530:	00059e63          	bnez	a1,8000254c <qlz_compress+0x4f4>
    80002534:	0018d71b          	srliw	a4,a7,0x1
    80002538:	00177613          	andi	a2,a4,1
    8000253c:	0008851b          	sext.w	a0,a7
    80002540:	0007089b          	sext.w	a7,a4
    80002544:	fe0608e3          	beqz	a2,80002534 <qlz_compress+0x4dc>
    80002548:	0025551b          	srliw	a0,a0,0x2
    8000254c:	80000737          	lui	a4,0x80000
    80002550:	00e56533          	or	a0,a0,a4
    80002554:	02a12e23          	sw	a0,60(sp)
    80002558:	04010613          	addi	a2,sp,64
    8000255c:	00084703          	lbu	a4,0(a6)
    80002560:	00180813          	addi	a6,a6,1
    80002564:	00178793          	addi	a5,a5,1
    80002568:	fee78fa3          	sb	a4,-1(a5)
    8000256c:	ff0618e3          	bne	a2,a6,8000255c <qlz_compress+0x504>
    80002570:	00013783          	ld	a5,0(sp)
    80002574:	40ff8533          	sub	a0,t6,a5
    80002578:	00900793          	li	a5,9
    8000257c:	00f55463          	bge	a0,a5,80002584 <qlz_compress+0x52c>
    80002580:	00900513          	li	a0,9
    80002584:	01813783          	ld	a5,24(sp)
    80002588:	00f50533          	add	a0,a0,a5
    8000258c:	00100793          	li	a5,1
    80002590:	0006b023          	sd	zero,0(a3)
    80002594:	01813683          	ld	a3,24(sp)
    80002598:	00300713          	li	a4,3
    8000259c:	0ae68c63          	beq	a3,a4,80002654 <qlz_compress+0x5fc>
    800025a0:	01013703          	ld	a4,16(sp)
    800025a4:	0027e793          	ori	a5,a5,2
    800025a8:	03c10813          	addi	a6,sp,60
    800025ac:	00f70023          	sb	a5,0(a4) # ffffffff80000000 <_end+0xfffffffeffff1000>
    800025b0:	02a12e23          	sw	a0,60(sp)
    800025b4:	00080793          	mv	a5,a6
    800025b8:	00170713          	addi	a4,a4,1
    800025bc:	04010613          	addi	a2,sp,64
    800025c0:	0007c683          	lbu	a3,0(a5)
    800025c4:	00178793          	addi	a5,a5,1
    800025c8:	00170713          	addi	a4,a4,1
    800025cc:	fed70fa3          	sb	a3,-1(a4)
    800025d0:	fef618e3          	bne	a2,a5,800025c0 <qlz_compress+0x568>
    800025d4:	02013783          	ld	a5,32(sp)
    800025d8:	04010693          	addi	a3,sp,64
    800025dc:	02f12e23          	sw	a5,60(sp)
    800025e0:	01013783          	ld	a5,16(sp)
    800025e4:	00578793          	addi	a5,a5,5
    800025e8:	00084703          	lbu	a4,0(a6)
    800025ec:	00180813          	addi	a6,a6,1
    800025f0:	00178793          	addi	a5,a5,1
    800025f4:	fee78fa3          	sb	a4,-1(a5)
    800025f8:	fed818e3          	bne	a6,a3,800025e8 <qlz_compress+0x590>
    800025fc:	01013783          	ld	a5,16(sp)
    80002600:	0007c783          	lbu	a5,0(a5)
    80002604:	01013703          	ld	a4,16(sp)
    80002608:	0487e793          	ori	a5,a5,72
    8000260c:	00f70023          	sb	a5,0(a4)
    80002610:	0a813083          	ld	ra,168(sp)
    80002614:	0a013403          	ld	s0,160(sp)
    80002618:	09813483          	ld	s1,152(sp)
    8000261c:	09013903          	ld	s2,144(sp)
    80002620:	08813983          	ld	s3,136(sp)
    80002624:	08013a03          	ld	s4,128(sp)
    80002628:	07813a83          	ld	s5,120(sp)
    8000262c:	07013b03          	ld	s6,112(sp)
    80002630:	06813b83          	ld	s7,104(sp)
    80002634:	06013c03          	ld	s8,96(sp)
    80002638:	05813c83          	ld	s9,88(sp)
    8000263c:	05013d03          	ld	s10,80(sp)
    80002640:	04813d83          	ld	s11,72(sp)
    80002644:	0b010113          	addi	sp,sp,176
    80002648:	00008067          	ret
    8000264c:	00000513          	li	a0,0
    80002650:	fc1ff06f          	j	80002610 <qlz_compress+0x5b8>
    80002654:	01013703          	ld	a4,16(sp)
    80002658:	02013683          	ld	a3,32(sp)
    8000265c:	00a700a3          	sb	a0,1(a4)
    80002660:	00d70123          	sb	a3,2(a4)
    80002664:	fa1ff06f          	j	80002604 <qlz_compress+0x5ac>
    80002668:	0a0b8e63          	beqz	s7,80002724 <qlz_compress+0x6cc>
    8000266c:	02013603          	ld	a2,32(sp)
    80002670:	00013703          	ld	a4,0(sp)
    80002674:	00cb87b3          	add	a5,s7,a2
    80002678:	02f77c63          	bgeu	a4,a5,800026b0 <qlz_compress+0x658>
    8000267c:	02ebfa63          	bgeu	s7,a4,800026b0 <qlz_compress+0x658>
    80002680:	00c70733          	add	a4,a4,a2
    80002684:	fff7c603          	lbu	a2,-1(a5)
    80002688:	fff70713          	addi	a4,a4,-1
    8000268c:	fff78793          	addi	a5,a5,-1
    80002690:	00c70023          	sb	a2,0(a4)
    80002694:	00013603          	ld	a2,0(sp)
    80002698:	fee616e3          	bne	a2,a4,80002684 <qlz_compress+0x62c>
    8000269c:	01813783          	ld	a5,24(sp)
    800026a0:	02013703          	ld	a4,32(sp)
    800026a4:	00e78533          	add	a0,a5,a4
    800026a8:	00000793          	li	a5,0
    800026ac:	ee5ff06f          	j	80002590 <qlz_compress+0x538>
    800026b0:	00013603          	ld	a2,0(sp)
    800026b4:	000bc703          	lbu	a4,0(s7)
    800026b8:	001b8b93          	addi	s7,s7,1
    800026bc:	00160613          	addi	a2,a2,1
    800026c0:	00c13023          	sd	a2,0(sp)
    800026c4:	fee60fa3          	sb	a4,-1(a2)
    800026c8:	fd778ae3          	beq	a5,s7,8000269c <qlz_compress+0x644>
    800026cc:	00013603          	ld	a2,0(sp)
    800026d0:	000bc703          	lbu	a4,0(s7)
    800026d4:	001b8b93          	addi	s7,s7,1
    800026d8:	00160613          	addi	a2,a2,1
    800026dc:	00c13023          	sd	a2,0(sp)
    800026e0:	fee60fa3          	sb	a4,-1(a2)
    800026e4:	fd7796e3          	bne	a5,s7,800026b0 <qlz_compress+0x658>
    800026e8:	fb5ff06f          	j	8000269c <qlz_compress+0x644>
    800026ec:	00300513          	li	a0,3
    800026f0:	d7dff06f          	j	8000246c <qlz_compress+0x414>
    800026f4:	02813783          	ld	a5,40(sp)
    800026f8:	0177ee63          	bltu	a5,s7,80002714 <qlz_compress+0x6bc>
    800026fc:	00013783          	ld	a5,0(sp)
    80002700:	000b8713          	mv	a4,s7
    80002704:	800008b7          	lui	a7,0x80000
    80002708:	400002b7          	lui	t0,0x40000
    8000270c:	00000613          	li	a2,0
    80002710:	c09ff06f          	j	80002318 <qlz_compress+0x2c0>
    80002714:	00013783          	ld	a5,0(sp)
    80002718:	800008b7          	lui	a7,0x80000
    8000271c:	03c10813          	addi	a6,sp,60
    80002720:	e15ff06f          	j	80002534 <qlz_compress+0x4dc>
    80002724:	90dff0ef          	jal	ra,80002030 <bench_memcpy.part.0>

0000000080002728 <bench_lzip_prepare>:
    80002728:	00004797          	auipc	a5,0x4
    8000272c:	7c07b783          	ld	a5,1984(a5) # 80006ee8 <setting>
    80002730:	0007a783          	lw	a5,0(a5)
    80002734:	fd010113          	addi	sp,sp,-48
    80002738:	00913c23          	sd	s1,24(sp)
    8000273c:	00100513          	li	a0,1
    80002740:	00004497          	auipc	s1,0x4
    80002744:	76848493          	addi	s1,s1,1896 # 80006ea8 <SIZE>
    80002748:	02113423          	sd	ra,40(sp)
    8000274c:	00f4a023          	sw	a5,0(s1)
    80002750:	01213823          	sd	s2,16(sp)
    80002754:	02813023          	sd	s0,32(sp)
    80002758:	01313423          	sd	s3,8(sp)
    8000275c:	0fd010ef          	jal	ra,80004058 <bench_srand>
    80002760:	00011537          	lui	a0,0x11
    80002764:	80850513          	addi	a0,a0,-2040 # 10808 <_entry_offset+0x10808>
    80002768:	0b9010ef          	jal	ra,80004020 <bench_alloc>
    8000276c:	00050793          	mv	a5,a0
    80002770:	0004a503          	lw	a0,0(s1)
    80002774:	00004717          	auipc	a4,0x4
    80002778:	74f73a23          	sd	a5,1876(a4) # 80006ec8 <state>
    8000277c:	00004917          	auipc	s2,0x4
    80002780:	73490913          	addi	s2,s2,1844 # 80006eb0 <blk>
    80002784:	09d010ef          	jal	ra,80004020 <bench_alloc>
    80002788:	0004a783          	lw	a5,0(s1)
    8000278c:	00a93023          	sd	a0,0(s2)
    80002790:	1907851b          	addiw	a0,a5,400
    80002794:	08d010ef          	jal	ra,80004020 <bench_alloc>
    80002798:	0004a783          	lw	a5,0(s1)
    8000279c:	00004717          	auipc	a4,0x4
    800027a0:	70a73e23          	sd	a0,1820(a4) # 80006eb8 <compress>
    800027a4:	02f05a63          	blez	a5,800027d8 <bench_lzip_prepare+0xb0>
    800027a8:	00000413          	li	s0,0
    800027ac:	01a00993          	li	s3,26
    800027b0:	0bd010ef          	jal	ra,8000406c <bench_rand>
    800027b4:	0335753b          	remuw	a0,a0,s3
    800027b8:	00093783          	ld	a5,0(s2)
    800027bc:	0004a683          	lw	a3,0(s1)
    800027c0:	008787b3          	add	a5,a5,s0
    800027c4:	00140413          	addi	s0,s0,1
    800027c8:	0004071b          	sext.w	a4,s0
    800027cc:	0615051b          	addiw	a0,a0,97
    800027d0:	00a78023          	sb	a0,0(a5)
    800027d4:	fcd74ee3          	blt	a4,a3,800027b0 <bench_lzip_prepare+0x88>
    800027d8:	02813083          	ld	ra,40(sp)
    800027dc:	02013403          	ld	s0,32(sp)
    800027e0:	01813483          	ld	s1,24(sp)
    800027e4:	01013903          	ld	s2,16(sp)
    800027e8:	00813983          	ld	s3,8(sp)
    800027ec:	03010113          	addi	sp,sp,48
    800027f0:	00008067          	ret

00000000800027f4 <bench_lzip_run>:
    800027f4:	ff010113          	addi	sp,sp,-16
    800027f8:	00004697          	auipc	a3,0x4
    800027fc:	6d06b683          	ld	a3,1744(a3) # 80006ec8 <state>
    80002800:	00004617          	auipc	a2,0x4
    80002804:	6a862603          	lw	a2,1704(a2) # 80006ea8 <SIZE>
    80002808:	00004597          	auipc	a1,0x4
    8000280c:	6b05b583          	ld	a1,1712(a1) # 80006eb8 <compress>
    80002810:	00004517          	auipc	a0,0x4
    80002814:	6a053503          	ld	a0,1696(a0) # 80006eb0 <blk>
    80002818:	00113423          	sd	ra,8(sp)
    8000281c:	83dff0ef          	jal	ra,80002058 <qlz_compress>
    80002820:	00813083          	ld	ra,8(sp)
    80002824:	00004797          	auipc	a5,0x4
    80002828:	68a7ae23          	sw	a0,1692(a5) # 80006ec0 <len>
    8000282c:	01010113          	addi	sp,sp,16
    80002830:	00008067          	ret

0000000080002834 <bench_lzip_validate>:
    80002834:	00004517          	auipc	a0,0x4
    80002838:	68453503          	ld	a0,1668(a0) # 80006eb8 <compress>
    8000283c:	00004597          	auipc	a1,0x4
    80002840:	6845a583          	lw	a1,1668(a1) # 80006ec0 <len>
    80002844:	ff010113          	addi	sp,sp,-16
    80002848:	00b505b3          	add	a1,a0,a1
    8000284c:	00113423          	sd	ra,8(sp)
    80002850:	051010ef          	jal	ra,800040a0 <checksum>
    80002854:	00004797          	auipc	a5,0x4
    80002858:	6947b783          	ld	a5,1684(a5) # 80006ee8 <setting>
    8000285c:	0187a783          	lw	a5,24(a5)
    80002860:	00813083          	ld	ra,8(sp)
    80002864:	0005051b          	sext.w	a0,a0
    80002868:	40a78533          	sub	a0,a5,a0
    8000286c:	00153513          	seqz	a0,a0
    80002870:	01010113          	addi	sp,sp,16
    80002874:	00008067          	ret

0000000080002878 <_ZNK14Updatable_heapI8N_puzzleILi4EEE7pointerERKS1_.isra.0>:
    80002878:	00064803          	lbu	a6,0(a2)
    8000287c:	00080e63          	beqz	a6,80002898 <_ZNK14Updatable_heapI8N_puzzleILi4EEE7pointerERKS1_.isra.0+0x20>
    80002880:	01462783          	lw	a5,20(a2)
    80002884:	fff5051b          	addiw	a0,a0,-1
    80002888:	00a7f7b3          	and	a5,a5,a0
    8000288c:	02079713          	slli	a4,a5,0x20
    80002890:	01d75793          	srli	a5,a4,0x1d
    80002894:	00f585b3          	add	a1,a1,a5
    80002898:	0005b503          	ld	a0,0(a1)
    8000289c:	04050663          	beqz	a0,800028e8 <_ZNK14Updatable_heapI8N_puzzleILi4EEE7pointerERKS1_.isra.0+0x70>
    800028a0:	01800893          	li	a7,24
    800028a4:	00054783          	lbu	a5,0(a0)
    800028a8:	04078263          	beqz	a5,800028ec <_ZNK14Updatable_heapI8N_puzzleILi4EEE7pointerERKS1_.isra.0+0x74>
    800028ac:	04080063          	beqz	a6,800028ec <_ZNK14Updatable_heapI8N_puzzleILi4EEE7pointerERKS1_.isra.0+0x74>
    800028b0:	01452703          	lw	a4,20(a0)
    800028b4:	01462783          	lw	a5,20(a2)
    800028b8:	02f71a63          	bne	a4,a5,800028ec <_ZNK14Updatable_heapI8N_puzzleILi4EEE7pointerERKS1_.isra.0+0x74>
    800028bc:	00800713          	li	a4,8
    800028c0:	ffc70793          	addi	a5,a4,-4
    800028c4:	00f505b3          	add	a1,a0,a5
    800028c8:	00f606b3          	add	a3,a2,a5
    800028cc:	0005c583          	lbu	a1,0(a1)
    800028d0:	0006c683          	lbu	a3,0(a3)
    800028d4:	00178793          	addi	a5,a5,1
    800028d8:	00d59a63          	bne	a1,a3,800028ec <_ZNK14Updatable_heapI8N_puzzleILi4EEE7pointerERKS1_.isra.0+0x74>
    800028dc:	fef714e3          	bne	a4,a5,800028c4 <_ZNK14Updatable_heapI8N_puzzleILi4EEE7pointerERKS1_.isra.0+0x4c>
    800028e0:	00470713          	addi	a4,a4,4
    800028e4:	fd171ee3          	bne	a4,a7,800028c0 <_ZNK14Updatable_heapI8N_puzzleILi4EEE7pointerERKS1_.isra.0+0x48>
    800028e8:	00008067          	ret
    800028ec:	01853503          	ld	a0,24(a0)
    800028f0:	fa051ae3          	bnez	a0,800028a4 <_ZNK14Updatable_heapI8N_puzzleILi4EEE7pointerERKS1_.isra.0+0x2c>
    800028f4:	00008067          	ret

00000000800028f8 <bench_15pz_prepare>:
    800028f8:	00008067          	ret

00000000800028fc <bench_15pz_validate>:
    800028fc:	00004797          	auipc	a5,0x4
    80002900:	5ec7b783          	ld	a5,1516(a5) # 80006ee8 <setting>
    80002904:	0187a503          	lw	a0,24(a5)
    80002908:	00004797          	auipc	a5,0x4
    8000290c:	5c87a783          	lw	a5,1480(a5) # 80006ed0 <_ZL3ans>
    80002910:	40f50533          	sub	a0,a0,a5
    80002914:	00153513          	seqz	a0,a0
    80002918:	00008067          	ret

000000008000291c <_ZN8N_puzzleILi4EEC1Ev>:
    8000291c:	f6010113          	addi	sp,sp,-160
    80002920:	05813823          	sd	s8,80(sp)
    80002924:	08113c23          	sd	ra,152(sp)
    80002928:	08813823          	sd	s0,144(sp)
    8000292c:	08913423          	sd	s1,136(sp)
    80002930:	09213023          	sd	s2,128(sp)
    80002934:	07313c23          	sd	s3,120(sp)
    80002938:	07413823          	sd	s4,112(sp)
    8000293c:	07513423          	sd	s5,104(sp)
    80002940:	07613023          	sd	s6,96(sp)
    80002944:	05713c23          	sd	s7,88(sp)
    80002948:	05913423          	sd	s9,72(sp)
    8000294c:	00100793          	li	a5,1
    80002950:	00f50023          	sb	a5,0(a0)
    80002954:	00050c13          	mv	s8,a0
    80002958:	000501a3          	sb	zero,3(a0)
    8000295c:	00010713          	mv	a4,sp
    80002960:	00000793          	li	a5,0
    80002964:	01000693          	li	a3,16
    80002968:	00f72023          	sw	a5,0(a4)
    8000296c:	0017879b          	addiw	a5,a5,1
    80002970:	00470713          	addi	a4,a4,4
    80002974:	fed79ae3          	bne	a5,a3,80002968 <_ZN8N_puzzleILi4EEC1Ev+0x4c>
    80002978:	03c10a13          	addi	s4,sp,60
    8000297c:	000c0413          	mv	s0,s8
    80002980:	00000993          	li	s3,0
    80002984:	00000c93          	li	s9,0
    80002988:	00400913          	li	s2,4
    8000298c:	ff000a93          	li	s5,-16
    80002990:	000a0b93          	mv	s7,s4
    80002994:	00000b13          	li	s6,0
    80002998:	0109849b          	addiw	s1,s3,16
    8000299c:	6d0010ef          	jal	ra,8000406c <bench_rand>
    800029a0:	416487bb          	subw	a5,s1,s6
    800029a4:	02f576bb          	remuw	a3,a0,a5
    800029a8:	000b089b          	sext.w	a7,s6
    800029ac:	01640833          	add	a6,s0,s6
    800029b0:	00269693          	slli	a3,a3,0x2
    800029b4:	04068793          	addi	a5,a3,64
    800029b8:	002787b3          	add	a5,a5,sp
    800029bc:	fc07a583          	lw	a1,-64(a5)
    800029c0:	fff5879b          	addiw	a5,a1,-1
    800029c4:	41f7d61b          	sraiw	a2,a5,0x1f
    800029c8:	01e6561b          	srliw	a2,a2,0x1e
    800029cc:	00f607bb          	addw	a5,a2,a5
    800029d0:	0037f713          	andi	a4,a5,3
    800029d4:	40c7073b          	subw	a4,a4,a2
    800029d8:	4027d79b          	sraiw	a5,a5,0x2
    800029dc:	419787bb          	subw	a5,a5,s9
    800029e0:	4117073b          	subw	a4,a4,a7
    800029e4:	41f7d51b          	sraiw	a0,a5,0x1f
    800029e8:	41f7561b          	sraiw	a2,a4,0x1f
    800029ec:	00f547b3          	xor	a5,a0,a5
    800029f0:	00e64733          	xor	a4,a2,a4
    800029f4:	40a787bb          	subw	a5,a5,a0
    800029f8:	40c7073b          	subw	a4,a4,a2
    800029fc:	00b80223          	sb	a1,4(a6)
    80002a00:	00e787bb          	addw	a5,a5,a4
    80002a04:	0a059463          	bnez	a1,80002aac <_ZN8N_puzzleILi4EEC1Ev+0x190>
    80002a08:	019c00a3          	sb	s9,1(s8) # 10001 <_entry_offset+0x10001>
    80002a0c:	016c0123          	sb	s6,2(s8)
    80002a10:	000ba783          	lw	a5,0(s7)
    80002a14:	04068713          	addi	a4,a3,64
    80002a18:	002706b3          	add	a3,a4,sp
    80002a1c:	001b0b13          	addi	s6,s6,1
    80002a20:	fcf6a023          	sw	a5,-64(a3)
    80002a24:	ffcb8b93          	addi	s7,s7,-4
    80002a28:	f72b1ae3          	bne	s6,s2,8000299c <_ZN8N_puzzleILi4EEC1Ev+0x80>
    80002a2c:	ffc9899b          	addiw	s3,s3,-4
    80002a30:	001c8c9b          	addiw	s9,s9,1
    80002a34:	ff0a0a13          	addi	s4,s4,-16
    80002a38:	00440413          	addi	s0,s0,4
    80002a3c:	f5599ae3          	bne	s3,s5,80002990 <_ZN8N_puzzleILi4EEC1Ev+0x74>
    80002a40:	000c2a23          	sw	zero,20(s8)
    80002a44:	004c0693          	addi	a3,s8,4
    80002a48:	014c0513          	addi	a0,s8,20
    80002a4c:	00000713          	li	a4,0
    80002a50:	7b500593          	li	a1,1973
    80002a54:	ffc68793          	addi	a5,a3,-4
    80002a58:	02e5873b          	mulw	a4,a1,a4
    80002a5c:	00478603          	lb	a2,4(a5)
    80002a60:	00178793          	addi	a5,a5,1
    80002a64:	00c7073b          	addw	a4,a4,a2
    80002a68:	fef698e3          	bne	a3,a5,80002a58 <_ZN8N_puzzleILi4EEC1Ev+0x13c>
    80002a6c:	00468693          	addi	a3,a3,4
    80002a70:	fed512e3          	bne	a0,a3,80002a54 <_ZN8N_puzzleILi4EEC1Ev+0x138>
    80002a74:	09813083          	ld	ra,152(sp)
    80002a78:	09013403          	ld	s0,144(sp)
    80002a7c:	00ec2a23          	sw	a4,20(s8)
    80002a80:	08813483          	ld	s1,136(sp)
    80002a84:	08013903          	ld	s2,128(sp)
    80002a88:	07813983          	ld	s3,120(sp)
    80002a8c:	07013a03          	ld	s4,112(sp)
    80002a90:	06813a83          	ld	s5,104(sp)
    80002a94:	06013b03          	ld	s6,96(sp)
    80002a98:	05813b83          	ld	s7,88(sp)
    80002a9c:	05013c03          	ld	s8,80(sp)
    80002aa0:	04813c83          	ld	s9,72(sp)
    80002aa4:	0a010113          	addi	sp,sp,160
    80002aa8:	00008067          	ret
    80002aac:	003c4703          	lbu	a4,3(s8)
    80002ab0:	00e787bb          	addw	a5,a5,a4
    80002ab4:	00fc01a3          	sb	a5,3(s8)
    80002ab8:	f59ff06f          	j	80002a10 <_ZN8N_puzzleILi4EEC1Ev+0xf4>

0000000080002abc <_ZN8N_puzzleILi4EEC1EPi>:
    80002abc:	fe010113          	addi	sp,sp,-32
    80002ac0:	00100793          	li	a5,1
    80002ac4:	00010e13          	mv	t3,sp
    80002ac8:	00f50023          	sb	a5,0(a0)
    80002acc:	00813c23          	sd	s0,24(sp)
    80002ad0:	000501a3          	sb	zero,3(a0)
    80002ad4:	01010e93          	addi	t4,sp,16
    80002ad8:	000e0793          	mv	a5,t3
    80002adc:	00078023          	sb	zero,0(a5)
    80002ae0:	00178793          	addi	a5,a5,1
    80002ae4:	ffd79ce3          	bne	a5,t4,80002adc <_ZN8N_puzzleILi4EEC1EPi+0x20>
    80002ae8:	00050f13          	mv	t5,a0
    80002aec:	00000313          	li	t1,0
    80002af0:	00100293          	li	t0,1
    80002af4:	00400f93          	li	t6,4
    80002af8:	00058893          	mv	a7,a1
    80002afc:	00000693          	li	a3,0
    80002b00:	0008a603          	lw	a2,0(a7) # ffffffff80000000 <_end+0xfffffffeffff1000>
    80002b04:	0006841b          	sext.w	s0,a3
    80002b08:	00df03b3          	add	t2,t5,a3
    80002b0c:	fff6079b          	addiw	a5,a2,-1
    80002b10:	41f7d81b          	sraiw	a6,a5,0x1f
    80002b14:	01e8581b          	srliw	a6,a6,0x1e
    80002b18:	00f807bb          	addw	a5,a6,a5
    80002b1c:	0037f713          	andi	a4,a5,3
    80002b20:	4107073b          	subw	a4,a4,a6
    80002b24:	4087073b          	subw	a4,a4,s0
    80002b28:	41f7581b          	sraiw	a6,a4,0x1f
    80002b2c:	4027d79b          	sraiw	a5,a5,0x2
    80002b30:	406787bb          	subw	a5,a5,t1
    80002b34:	00e84733          	xor	a4,a6,a4
    80002b38:	41f7d41b          	sraiw	s0,a5,0x1f
    80002b3c:	4107073b          	subw	a4,a4,a6
    80002b40:	01060813          	addi	a6,a2,16
    80002b44:	00f447b3          	xor	a5,s0,a5
    80002b48:	00280833          	add	a6,a6,sp
    80002b4c:	408787bb          	subw	a5,a5,s0
    80002b50:	00c38223          	sb	a2,4(t2)
    80002b54:	fe580823          	sb	t0,-16(a6)
    80002b58:	00e787bb          	addw	a5,a5,a4
    80002b5c:	06061e63          	bnez	a2,80002bd8 <_ZN8N_puzzleILi4EEC1EPi+0x11c>
    80002b60:	006500a3          	sb	t1,1(a0)
    80002b64:	00d50123          	sb	a3,2(a0)
    80002b68:	00168693          	addi	a3,a3,1
    80002b6c:	00488893          	addi	a7,a7,4
    80002b70:	f9f698e3          	bne	a3,t6,80002b00 <_ZN8N_puzzleILi4EEC1EPi+0x44>
    80002b74:	0013031b          	addiw	t1,t1,1
    80002b78:	01058593          	addi	a1,a1,16
    80002b7c:	004f0f13          	addi	t5,t5,4 # ffffffff80000004 <_end+0xfffffffeffff1004>
    80002b80:	f7f31ce3          	bne	t1,t6,80002af8 <_ZN8N_puzzleILi4EEC1EPi+0x3c>
    80002b84:	000e4783          	lbu	a5,0(t3)
    80002b88:	001e0e13          	addi	t3,t3,1
    80002b8c:	04078e63          	beqz	a5,80002be8 <_ZN8N_puzzleILi4EEC1EPi+0x12c>
    80002b90:	ffde1ae3          	bne	t3,t4,80002b84 <_ZN8N_puzzleILi4EEC1EPi+0xc8>
    80002b94:	00052a23          	sw	zero,20(a0)
    80002b98:	00450613          	addi	a2,a0,4
    80002b9c:	01450813          	addi	a6,a0,20
    80002ba0:	00000713          	li	a4,0
    80002ba4:	7b500593          	li	a1,1973
    80002ba8:	ffc60793          	addi	a5,a2,-4
    80002bac:	02e5873b          	mulw	a4,a1,a4
    80002bb0:	00478683          	lb	a3,4(a5)
    80002bb4:	00178793          	addi	a5,a5,1
    80002bb8:	00d7073b          	addw	a4,a4,a3
    80002bbc:	fec798e3          	bne	a5,a2,80002bac <_ZN8N_puzzleILi4EEC1EPi+0xf0>
    80002bc0:	00478613          	addi	a2,a5,4
    80002bc4:	fec812e3          	bne	a6,a2,80002ba8 <_ZN8N_puzzleILi4EEC1EPi+0xec>
    80002bc8:	01813403          	ld	s0,24(sp)
    80002bcc:	00e52a23          	sw	a4,20(a0)
    80002bd0:	02010113          	addi	sp,sp,32
    80002bd4:	00008067          	ret
    80002bd8:	00354703          	lbu	a4,3(a0)
    80002bdc:	00e787bb          	addw	a5,a5,a4
    80002be0:	00f501a3          	sb	a5,3(a0)
    80002be4:	f85ff06f          	j	80002b68 <_ZN8N_puzzleILi4EEC1EPi+0xac>
    80002be8:	01813403          	ld	s0,24(sp)
    80002bec:	00050023          	sb	zero,0(a0)
    80002bf0:	02010113          	addi	sp,sp,32
    80002bf4:	00008067          	ret

0000000080002bf8 <_ZNK8N_puzzleILi4EE8solvableEv>:
    80002bf8:	00050e13          	mv	t3,a0
    80002bfc:	00054503          	lbu	a0,0(a0)
    80002c00:	0c050c63          	beqz	a0,80002cd8 <_ZNK8N_puzzleILi4EE8solvableEv+0xe0>
    80002c04:	fc010113          	addi	sp,sp,-64
    80002c08:	00010893          	mv	a7,sp
    80002c0c:	000e0613          	mv	a2,t3
    80002c10:	00000813          	li	a6,0
    80002c14:	01000513          	li	a0,16
    80002c18:	00400593          	li	a1,4
    80002c1c:	00088693          	mv	a3,a7
    80002c20:	00000793          	li	a5,0
    80002c24:	00f60733          	add	a4,a2,a5
    80002c28:	00470703          	lb	a4,4(a4)
    80002c2c:	00178793          	addi	a5,a5,1
    80002c30:	00071463          	bnez	a4,80002c38 <_ZNK8N_puzzleILi4EE8solvableEv+0x40>
    80002c34:	01000713          	li	a4,16
    80002c38:	00e6a023          	sw	a4,0(a3)
    80002c3c:	00468693          	addi	a3,a3,4
    80002c40:	feb792e3          	bne	a5,a1,80002c24 <_ZNK8N_puzzleILi4EE8solvableEv+0x2c>
    80002c44:	0048081b          	addiw	a6,a6,4
    80002c48:	01088893          	addi	a7,a7,16
    80002c4c:	00460613          	addi	a2,a2,4
    80002c50:	fca816e3          	bne	a6,a0,80002c1c <_ZNK8N_puzzleILi4EE8solvableEv+0x24>
    80002c54:	00100313          	li	t1,1
    80002c58:	00100793          	li	a5,1
    80002c5c:	00000813          	li	a6,0
    80002c60:	00000613          	li	a2,0
    80002c64:	01000893          	li	a7,16
    80002c68:	00279713          	slli	a4,a5,0x2
    80002c6c:	04070713          	addi	a4,a4,64
    80002c70:	04060693          	addi	a3,a2,64
    80002c74:	00270733          	add	a4,a4,sp
    80002c78:	002686b3          	add	a3,a3,sp
    80002c7c:	fc06a683          	lw	a3,-64(a3)
    80002c80:	fc072703          	lw	a4,-64(a4)
    80002c84:	0017879b          	addiw	a5,a5,1
    80002c88:	00078593          	mv	a1,a5
    80002c8c:	00d75463          	bge	a4,a3,80002c94 <_ZNK8N_puzzleILi4EE8solvableEv+0x9c>
    80002c90:	0018081b          	addiw	a6,a6,1
    80002c94:	fd179ae3          	bne	a5,a7,80002c68 <_ZNK8N_puzzleILi4EE8solvableEv+0x70>
    80002c98:	0013079b          	addiw	a5,t1,1
    80002c9c:	00030613          	mv	a2,t1
    80002ca0:	00b78863          	beq	a5,a1,80002cb0 <_ZNK8N_puzzleILi4EE8solvableEv+0xb8>
    80002ca4:	00078313          	mv	t1,a5
    80002ca8:	00261613          	slli	a2,a2,0x2
    80002cac:	fbdff06f          	j	80002c68 <_ZNK8N_puzzleILi4EE8solvableEv+0x70>
    80002cb0:	001e4703          	lbu	a4,1(t3)
    80002cb4:	002e4783          	lbu	a5,2(t3)
    80002cb8:	00600513          	li	a0,6
    80002cbc:	40e5053b          	subw	a0,a0,a4
    80002cc0:	40f5053b          	subw	a0,a0,a5
    80002cc4:	0105053b          	addw	a0,a0,a6
    80002cc8:	fff54513          	not	a0,a0
    80002ccc:	00157513          	andi	a0,a0,1
    80002cd0:	04010113          	addi	sp,sp,64
    80002cd4:	00008067          	ret
    80002cd8:	00008067          	ret

0000000080002cdc <_ZN14Updatable_heapI8N_puzzleILi4EEE12percolate_upEi>:
    80002cdc:	00100793          	li	a5,1
    80002ce0:	06f58463          	beq	a1,a5,80002d48 <_ZN14Updatable_heapI8N_puzzleILi4EEE12percolate_upEi+0x6c>
    80002ce4:	01053803          	ld	a6,16(a0)
    80002ce8:	00359793          	slli	a5,a1,0x3
    80002cec:	00100e93          	li	t4,1
    80002cf0:	00f807b3          	add	a5,a6,a5
    80002cf4:	0007b883          	ld	a7,0(a5)
    80002cf8:	0288ae03          	lw	t3,40(a7)
    80002cfc:	01c0006f          	j	80002d18 <_ZN14Updatable_heapI8N_puzzleILi4EEE12percolate_upEi+0x3c>
    80002d00:	00a6b023          	sd	a0,0(a3)
    80002d04:	01173023          	sd	a7,0(a4)
    80002d08:	0006b703          	ld	a4,0(a3)
    80002d0c:	02f8a023          	sw	a5,32(a7)
    80002d10:	02c72023          	sw	a2,32(a4)
    80002d14:	03d58a63          	beq	a1,t4,80002d48 <_ZN14Updatable_heapI8N_puzzleILi4EEE12percolate_upEi+0x6c>
    80002d18:	01f5d79b          	srliw	a5,a1,0x1f
    80002d1c:	00b787bb          	addw	a5,a5,a1
    80002d20:	4017d79b          	sraiw	a5,a5,0x1
    80002d24:	00058613          	mv	a2,a1
    80002d28:	0007859b          	sext.w	a1,a5
    80002d2c:	00359713          	slli	a4,a1,0x3
    80002d30:	00e80733          	add	a4,a6,a4
    80002d34:	00073503          	ld	a0,0(a4)
    80002d38:	00361693          	slli	a3,a2,0x3
    80002d3c:	00d806b3          	add	a3,a6,a3
    80002d40:	02852303          	lw	t1,40(a0)
    80002d44:	fa6e4ee3          	blt	t3,t1,80002d00 <_ZN14Updatable_heapI8N_puzzleILi4EEE12percolate_upEi+0x24>
    80002d48:	00008067          	ret

0000000080002d4c <_ZN14Updatable_heapI8N_puzzleILi4EEE4pushERKS1_i>:
    80002d4c:	fd010113          	addi	sp,sp,-48
    80002d50:	01313423          	sd	s3,8(sp)
    80002d54:	00052983          	lw	s3,0(a0)
    80002d58:	00913c23          	sd	s1,24(sp)
    80002d5c:	00058493          	mv	s1,a1
    80002d60:	00853583          	ld	a1,8(a0)
    80002d64:	02813023          	sd	s0,32(sp)
    80002d68:	01213823          	sd	s2,16(sp)
    80002d6c:	00050413          	mv	s0,a0
    80002d70:	00060913          	mv	s2,a2
    80002d74:	00098513          	mv	a0,s3
    80002d78:	00048613          	mv	a2,s1
    80002d7c:	02113423          	sd	ra,40(sp)
    80002d80:	af9ff0ef          	jal	ra,80002878 <_ZNK14Updatable_heapI8N_puzzleILi4EEE7pointerERKS1_.isra.0>
    80002d84:	04050263          	beqz	a0,80002dc8 <_ZN14Updatable_heapI8N_puzzleILi4EEE4pushERKS1_i+0x7c>
    80002d88:	02c54783          	lbu	a5,44(a0)
    80002d8c:	02079063          	bnez	a5,80002dac <_ZN14Updatable_heapI8N_puzzleILi4EEE4pushERKS1_i+0x60>
    80002d90:	00054703          	lbu	a4,0(a0)
    80002d94:	04000793          	li	a5,64
    80002d98:	00070463          	beqz	a4,80002da0 <_ZN14Updatable_heapI8N_puzzleILi4EEE4pushERKS1_i+0x54>
    80002d9c:	00350783          	lb	a5,3(a0)
    80002da0:	02852683          	lw	a3,40(a0)
    80002da4:	00f9073b          	addw	a4,s2,a5
    80002da8:	14d74863          	blt	a4,a3,80002ef8 <_ZN14Updatable_heapI8N_puzzleILi4EEE4pushERKS1_i+0x1ac>
    80002dac:	02813083          	ld	ra,40(sp)
    80002db0:	02013403          	ld	s0,32(sp)
    80002db4:	01813483          	ld	s1,24(sp)
    80002db8:	01013903          	ld	s2,16(sp)
    80002dbc:	00813983          	ld	s3,8(sp)
    80002dc0:	03010113          	addi	sp,sp,48
    80002dc4:	00008067          	ret
    80002dc8:	01842783          	lw	a5,24(s0)
    80002dcc:	16f9c463          	blt	s3,a5,80002f34 <_ZN14Updatable_heapI8N_puzzleILi4EEE4pushERKS1_i+0x1e8>
    80002dd0:	0017879b          	addiw	a5,a5,1
    80002dd4:	00f42c23          	sw	a5,24(s0)
    80002dd8:	03800513          	li	a0,56
    80002ddc:	244010ef          	jal	ra,80004020 <bench_alloc>
    80002de0:	0004c883          	lbu	a7,0(s1)
    80002de4:	00843803          	ld	a6,8(s0)
    80002de8:	0144a683          	lw	a3,20(s1)
    80002dec:	00000713          	li	a4,0
    80002df0:	10089063          	bnez	a7,80002ef0 <_ZN14Updatable_heapI8N_puzzleILi4EEE4pushERKS1_i+0x1a4>
    80002df4:	00042583          	lw	a1,0(s0)
    80002df8:	01842983          	lw	s3,24(s0)
    80002dfc:	00448793          	addi	a5,s1,4
    80002e00:	fff5859b          	addiw	a1,a1,-1
    80002e04:	00b77733          	and	a4,a4,a1
    80002e08:	02071613          	slli	a2,a4,0x20
    80002e0c:	01d65713          	srli	a4,a2,0x1d
    80002e10:	00e80733          	add	a4,a6,a4
    80002e14:	00073e03          	ld	t3,0(a4)
    80002e18:	01150023          	sb	a7,0(a0)
    80002e1c:	0014c303          	lbu	t1,1(s1)
    80002e20:	00450713          	addi	a4,a0,4
    80002e24:	01448613          	addi	a2,s1,20
    80002e28:	006500a3          	sb	t1,1(a0)
    80002e2c:	0024c303          	lbu	t1,2(s1)
    80002e30:	00650123          	sb	t1,2(a0)
    80002e34:	00348303          	lb	t1,3(s1)
    80002e38:	00d52a23          	sw	a3,20(a0)
    80002e3c:	006501a3          	sb	t1,3(a0)
    80002e40:	00078683          	lb	a3,0(a5)
    80002e44:	00478793          	addi	a5,a5,4
    80002e48:	00470713          	addi	a4,a4,4
    80002e4c:	fed70e23          	sb	a3,-4(a4)
    80002e50:	ffd78683          	lb	a3,-3(a5)
    80002e54:	fed70ea3          	sb	a3,-3(a4)
    80002e58:	ffe78683          	lb	a3,-2(a5)
    80002e5c:	fed70f23          	sb	a3,-2(a4)
    80002e60:	fff78683          	lb	a3,-1(a5)
    80002e64:	fed70fa3          	sb	a3,-1(a4)
    80002e68:	fcc79ce3          	bne	a5,a2,80002e40 <_ZN14Updatable_heapI8N_puzzleILi4EEE4pushERKS1_i+0xf4>
    80002e6c:	01c53c23          	sd	t3,24(a0)
    80002e70:	03352023          	sw	s3,32(a0)
    80002e74:	03252223          	sw	s2,36(a0)
    80002e78:	0a088463          	beqz	a7,80002f20 <_ZN14Updatable_heapI8N_puzzleILi4EEE4pushERKS1_i+0x1d4>
    80002e7c:	0144a783          	lw	a5,20(s1)
    80002e80:	0123033b          	addw	t1,t1,s2
    80002e84:	02652423          	sw	t1,40(a0)
    80002e88:	00b7f7b3          	and	a5,a5,a1
    80002e8c:	02079713          	slli	a4,a5,0x20
    80002e90:	01d75793          	srli	a5,a4,0x1d
    80002e94:	02050623          	sb	zero,44(a0)
    80002e98:	02053823          	sd	zero,48(a0)
    80002e9c:	00f80833          	add	a6,a6,a5
    80002ea0:	01043783          	ld	a5,16(s0)
    80002ea4:	00399713          	slli	a4,s3,0x3
    80002ea8:	00a83023          	sd	a0,0(a6)
    80002eac:	00e787b3          	add	a5,a5,a4
    80002eb0:	00a7b023          	sd	a0,0(a5)
    80002eb4:	00098593          	mv	a1,s3
    80002eb8:	00040513          	mv	a0,s0
    80002ebc:	e21ff0ef          	jal	ra,80002cdc <_ZN14Updatable_heapI8N_puzzleILi4EEE12percolate_upEi>
    80002ec0:	01c42783          	lw	a5,28(s0)
    80002ec4:	00078713          	mv	a4,a5
    80002ec8:	0137d463          	bge	a5,s3,80002ed0 <_ZN14Updatable_heapI8N_puzzleILi4EEE4pushERKS1_i+0x184>
    80002ecc:	00098713          	mv	a4,s3
    80002ed0:	02813083          	ld	ra,40(sp)
    80002ed4:	00e42e23          	sw	a4,28(s0)
    80002ed8:	02013403          	ld	s0,32(sp)
    80002edc:	01813483          	ld	s1,24(sp)
    80002ee0:	01013903          	ld	s2,16(sp)
    80002ee4:	00813983          	ld	s3,8(sp)
    80002ee8:	03010113          	addi	sp,sp,48
    80002eec:	00008067          	ret
    80002ef0:	0006871b          	sext.w	a4,a3
    80002ef4:	f01ff06f          	j	80002df4 <_ZN14Updatable_heapI8N_puzzleILi4EEE4pushERKS1_i+0xa8>
    80002ef8:	02052583          	lw	a1,32(a0)
    80002efc:	02e52423          	sw	a4,40(a0)
    80002f00:	00040513          	mv	a0,s0
    80002f04:	02013403          	ld	s0,32(sp)
    80002f08:	02813083          	ld	ra,40(sp)
    80002f0c:	01813483          	ld	s1,24(sp)
    80002f10:	01013903          	ld	s2,16(sp)
    80002f14:	00813983          	ld	s3,8(sp)
    80002f18:	03010113          	addi	sp,sp,48
    80002f1c:	dc1ff06f          	j	80002cdc <_ZN14Updatable_heapI8N_puzzleILi4EEE12percolate_upEi>
    80002f20:	0409091b          	addiw	s2,s2,64
    80002f24:	03252423          	sw	s2,40(a0)
    80002f28:	02050623          	sb	zero,44(a0)
    80002f2c:	02053823          	sd	zero,48(a0)
    80002f30:	f71ff06f          	j	80002ea0 <_ZN14Updatable_heapI8N_puzzleILi4EEE4pushERKS1_i+0x154>
    80002f34:	09800613          	li	a2,152
    80002f38:	00003597          	auipc	a1,0x3
    80002f3c:	b4858593          	addi	a1,a1,-1208 # 80005a80 <r+0x180>
    80002f40:	00003517          	auipc	a0,0x3
    80002f44:	b2050513          	addi	a0,a0,-1248 # 80005a60 <r+0x160>
    80002f48:	7a8020ef          	jal	ra,800056f0 <printf>
    80002f4c:	00100513          	li	a0,1
    80002f50:	6ad010ef          	jal	ra,80004dfc <halt>

0000000080002f54 <_ZN14Updatable_heapI8N_puzzleILi4EEE14percolate_downEv>:
    80002f54:	01852383          	lw	t2,24(a0)
    80002f58:	00200793          	li	a5,2
    80002f5c:	0e77d063          	bge	a5,t2,8000303c <_ZN14Updatable_heapI8N_puzzleILi4EEE14percolate_downEv+0xe8>
    80002f60:	01053603          	ld	a2,16(a0)
    80002f64:	00100293          	li	t0,1
    80002f68:	00200713          	li	a4,2
    80002f6c:	0280006f          	j	80002f94 <_ZN14Updatable_heapI8N_puzzleILi4EEE14percolate_downEv+0x40>
    80002f70:	0deec463          	blt	t4,t5,80003038 <_ZN14Updatable_heapI8N_puzzleILi4EEE14percolate_downEv+0xe4>
    80002f74:	0107b023          	sd	a6,0(a5)
    80002f78:	00b6b023          	sd	a1,0(a3)
    80002f7c:	0007b783          	ld	a5,0(a5)
    80002f80:	0255a023          	sw	t0,32(a1)
    80002f84:	000f829b          	sext.w	t0,t6
    80002f88:	03f7a023          	sw	t6,32(a5)
    80002f8c:	0012971b          	slliw	a4,t0,0x1
    80002f90:	06775063          	bge	a4,t2,80002ff0 <_ZN14Updatable_heapI8N_puzzleILi4EEE14percolate_downEv+0x9c>
    80002f94:	00371793          	slli	a5,a4,0x3
    80002f98:	00329693          	slli	a3,t0,0x3
    80002f9c:	00f60333          	add	t1,a2,a5
    80002fa0:	00d606b3          	add	a3,a2,a3
    80002fa4:	0006b803          	ld	a6,0(a3)
    80002fa8:	00033883          	ld	a7,0(t1)
    80002fac:	00878793          	addi	a5,a5,8
    80002fb0:	00f607b3          	add	a5,a2,a5
    80002fb4:	0007b583          	ld	a1,0(a5)
    80002fb8:	02882e83          	lw	t4,40(a6)
    80002fbc:	0288ae03          	lw	t3,40(a7)
    80002fc0:	0285af03          	lw	t5,40(a1)
    80002fc4:	00170f9b          	addiw	t6,a4,1
    80002fc8:	fbcec4e3          	blt	t4,t3,80002f70 <_ZN14Updatable_heapI8N_puzzleILi4EEE14percolate_downEv+0x1c>
    80002fcc:	fbee54e3          	bge	t3,t5,80002f74 <_ZN14Updatable_heapI8N_puzzleILi4EEE14percolate_downEv+0x20>
    80002fd0:	01033023          	sd	a6,0(t1)
    80002fd4:	0116b023          	sd	a7,0(a3)
    80002fd8:	00033783          	ld	a5,0(t1)
    80002fdc:	0258a023          	sw	t0,32(a7)
    80002fe0:	00070293          	mv	t0,a4
    80002fe4:	02e7a023          	sw	a4,32(a5)
    80002fe8:	0012971b          	slliw	a4,t0,0x1
    80002fec:	fa7744e3          	blt	a4,t2,80002f94 <_ZN14Updatable_heapI8N_puzzleILi4EEE14percolate_downEv+0x40>
    80002ff0:	00770463          	beq	a4,t2,80002ff8 <_ZN14Updatable_heapI8N_puzzleILi4EEE14percolate_downEv+0xa4>
    80002ff4:	00008067          	ret
    80002ff8:	01053683          	ld	a3,16(a0)
    80002ffc:	00329613          	slli	a2,t0,0x3
    80003000:	00371793          	slli	a5,a4,0x3
    80003004:	00f687b3          	add	a5,a3,a5
    80003008:	00c686b3          	add	a3,a3,a2
    8000300c:	0006b583          	ld	a1,0(a3)
    80003010:	0007b603          	ld	a2,0(a5)
    80003014:	0285a503          	lw	a0,40(a1)
    80003018:	02862803          	lw	a6,40(a2)
    8000301c:	fca85ce3          	bge	a6,a0,80002ff4 <_ZN14Updatable_heapI8N_puzzleILi4EEE14percolate_downEv+0xa0>
    80003020:	00b7b023          	sd	a1,0(a5)
    80003024:	00c6b023          	sd	a2,0(a3)
    80003028:	0007b783          	ld	a5,0(a5)
    8000302c:	02562023          	sw	t0,32(a2)
    80003030:	02e7a023          	sw	a4,32(a5)
    80003034:	00008067          	ret
    80003038:	00008067          	ret
    8000303c:	00200713          	li	a4,2
    80003040:	00100293          	li	t0,1
    80003044:	fa7718e3          	bne	a4,t2,80002ff4 <_ZN14Updatable_heapI8N_puzzleILi4EEE14percolate_downEv+0xa0>
    80003048:	fb1ff06f          	j	80002ff8 <_ZN14Updatable_heapI8N_puzzleILi4EEE14percolate_downEv+0xa4>

000000008000304c <bench_15pz_run>:
    8000304c:	ee010113          	addi	sp,sp,-288
    80003050:	02810513          	addi	a0,sp,40
    80003054:	10113c23          	sd	ra,280(sp)
    80003058:	10813823          	sd	s0,272(sp)
    8000305c:	10913423          	sd	s1,264(sp)
    80003060:	11213023          	sd	s2,256(sp)
    80003064:	0f313c23          	sd	s3,248(sp)
    80003068:	0f413823          	sd	s4,240(sp)
    8000306c:	0f513423          	sd	s5,232(sp)
    80003070:	0f613023          	sd	s6,224(sp)
    80003074:	0d713c23          	sd	s7,216(sp)
    80003078:	0d813823          	sd	s8,208(sp)
    8000307c:	0d913423          	sd	s9,200(sp)
    80003080:	0da13023          	sd	s10,192(sp)
    80003084:	0bb13c23          	sd	s11,184(sp)
    80003088:	895ff0ef          	jal	ra,8000291c <_ZN8N_puzzleILi4EEC1Ev>
    8000308c:	00004797          	auipc	a5,0x4
    80003090:	e5c7b783          	ld	a5,-420(a5) # 80006ee8 <setting>
    80003094:	0007a783          	lw	a5,0(a5)
    80003098:	00200713          	li	a4,2
    8000309c:	1ee788e3          	beq	a5,a4,80003a8c <bench_15pz_run+0xa40>
    800030a0:	06f74e63          	blt	a4,a5,8000311c <bench_15pz_run+0xd0>
    800030a4:	180780e3          	beqz	a5,80003a24 <bench_15pz_run+0x9d8>
    800030a8:	00100713          	li	a4,1
    800030ac:	28e794e3          	bne	a5,a4,80003b34 <bench_15pz_run+0xae8>
    800030b0:	07010493          	addi	s1,sp,112
    800030b4:	00003597          	auipc	a1,0x3
    800030b8:	26458593          	addi	a1,a1,612 # 80006318 <_ZL8PUZZLE_M>
    800030bc:	00048513          	mv	a0,s1
    800030c0:	9fdff0ef          	jal	ra,80002abc <_ZN8N_puzzleILi4EEC1EPi>
    800030c4:	08412703          	lw	a4,132(sp)
    800030c8:	07012683          	lw	a3,112(sp)
    800030cc:	00048793          	mv	a5,s1
    800030d0:	02e12e23          	sw	a4,60(sp)
    800030d4:	02d12423          	sw	a3,40(sp)
    800030d8:	02810713          	addi	a4,sp,40
    800030dc:	08010913          	addi	s2,sp,128
    800030e0:	0047c503          	lbu	a0,4(a5)
    800030e4:	0057c583          	lbu	a1,5(a5)
    800030e8:	0067c603          	lbu	a2,6(a5)
    800030ec:	0077c683          	lbu	a3,7(a5)
    800030f0:	00a70223          	sb	a0,4(a4)
    800030f4:	00b702a3          	sb	a1,5(a4)
    800030f8:	00c70323          	sb	a2,6(a4)
    800030fc:	00d703a3          	sb	a3,7(a4)
    80003100:	00478793          	addi	a5,a5,4
    80003104:	00470713          	addi	a4,a4,4
    80003108:	fd279ce3          	bne	a5,s2,800030e0 <bench_15pz_run+0x94>
    8000310c:	000017b7          	lui	a5,0x1
    80003110:	80078793          	addi	a5,a5,-2048 # 800 <_entry_offset+0x800>
    80003114:	00f13423          	sd	a5,8(sp)
    80003118:	0700006f          	j	80003188 <bench_15pz_run+0x13c>
    8000311c:	00300713          	li	a4,3
    80003120:	20e79ae3          	bne	a5,a4,80003b34 <bench_15pz_run+0xae8>
    80003124:	07010493          	addi	s1,sp,112
    80003128:	00003597          	auipc	a1,0x3
    8000312c:	17058593          	addi	a1,a1,368 # 80006298 <_ZL8PUZZLE_H>
    80003130:	00048513          	mv	a0,s1
    80003134:	989ff0ef          	jal	ra,80002abc <_ZN8N_puzzleILi4EEC1EPi>
    80003138:	08412703          	lw	a4,132(sp)
    8000313c:	07012683          	lw	a3,112(sp)
    80003140:	00048793          	mv	a5,s1
    80003144:	02e12e23          	sw	a4,60(sp)
    80003148:	02d12423          	sw	a3,40(sp)
    8000314c:	02810713          	addi	a4,sp,40
    80003150:	08010913          	addi	s2,sp,128
    80003154:	0047c503          	lbu	a0,4(a5)
    80003158:	0057c583          	lbu	a1,5(a5)
    8000315c:	0067c603          	lbu	a2,6(a5)
    80003160:	0077c683          	lbu	a3,7(a5)
    80003164:	00a70223          	sb	a0,4(a4)
    80003168:	00b702a3          	sb	a1,5(a4)
    8000316c:	00c70323          	sb	a2,6(a4)
    80003170:	00d703a3          	sb	a3,7(a4)
    80003174:	00478793          	addi	a5,a5,4
    80003178:	00470713          	addi	a4,a4,4
    8000317c:	fcf91ce3          	bne	s2,a5,80003154 <bench_15pz_run+0x108>
    80003180:	000c07b7          	lui	a5,0xc0
    80003184:	00f13423          	sd	a5,8(sp)
    80003188:	02810513          	addi	a0,sp,40
    8000318c:	a6dff0ef          	jal	ra,80002bf8 <_ZNK8N_puzzleILi4EE8solvableEv>
    80003190:	160502e3          	beqz	a0,80003af4 <bench_15pz_run+0xaa8>
    80003194:	02000513          	li	a0,32
    80003198:	689000ef          	jal	ra,80004020 <bench_alloc>
    8000319c:	00813783          	ld	a5,8(sp)
    800031a0:	00050413          	mv	s0,a0
    800031a4:	00f52023          	sw	a5,0(a0)
    800031a8:	00379513          	slli	a0,a5,0x3
    800031ac:	675000ef          	jal	ra,80004020 <bench_alloc>
    800031b0:	00042783          	lw	a5,0(s0)
    800031b4:	00a43823          	sd	a0,16(s0)
    800031b8:	0017879b          	addiw	a5,a5,1 # c0001 <_entry_offset+0xc0001>
    800031bc:	00379513          	slli	a0,a5,0x3
    800031c0:	661000ef          	jal	ra,80004020 <bench_alloc>
    800031c4:	00042703          	lw	a4,0(s0)
    800031c8:	00a43423          	sd	a0,8(s0)
    800031cc:	00043c23          	sd	zero,24(s0)
    800031d0:	00050793          	mv	a5,a0
    800031d4:	02e05263          	blez	a4,800031f8 <bench_15pz_run+0x1ac>
    800031d8:	fff7071b          	addiw	a4,a4,-1
    800031dc:	02071693          	slli	a3,a4,0x20
    800031e0:	01d6d713          	srli	a4,a3,0x1d
    800031e4:	00850693          	addi	a3,a0,8
    800031e8:	00d70733          	add	a4,a4,a3
    800031ec:	0007b023          	sd	zero,0(a5)
    800031f0:	00878793          	addi	a5,a5,8
    800031f4:	fee79ce3          	bne	a5,a4,800031ec <bench_15pz_run+0x1a0>
    800031f8:	00000613          	li	a2,0
    800031fc:	02810593          	addi	a1,sp,40
    80003200:	00040513          	mv	a0,s0
    80003204:	b49ff0ef          	jal	ra,80002d4c <_ZN14Updatable_heapI8N_puzzleILi4EEE4pushERKS1_i>
    80003208:	01842603          	lw	a2,24(s0)
    8000320c:	fff00793          	li	a5,-1
    80003210:	00004717          	auipc	a4,0x4
    80003214:	cc070713          	addi	a4,a4,-832 # 80006ed0 <_ZL3ans>
    80003218:	00f72023          	sw	a5,0(a4)
    8000321c:	00000a13          	li	s4,0
    80003220:	18060863          	beqz	a2,800033b0 <bench_15pz_run+0x364>
    80003224:	01048793          	addi	a5,s1,16
    80003228:	00100c13          	li	s8,1
    8000322c:	05010a93          	addi	s5,sp,80
    80003230:	01448d93          	addi	s11,s1,20
    80003234:	00f13023          	sd	a5,0(sp)
    80003238:	01043303          	ld	t1,16(s0)
    8000323c:	00048713          	mv	a4,s1
    80003240:	00048693          	mv	a3,s1
    80003244:	00833783          	ld	a5,8(t1)
    80003248:	00378583          	lb	a1,3(a5)
    8000324c:	0007cc83          	lbu	s9,0(a5)
    80003250:	0017cb83          	lbu	s7,1(a5)
    80003254:	0027cb03          	lbu	s6,2(a5)
    80003258:	0007a983          	lw	s3,0(a5)
    8000325c:	0147ad03          	lw	s10,20(a5)
    80003260:	00b13823          	sd	a1,16(sp)
    80003264:	00478793          	addi	a5,a5,4
    80003268:	0007c883          	lbu	a7,0(a5)
    8000326c:	0017c803          	lbu	a6,1(a5)
    80003270:	0027c503          	lbu	a0,2(a5)
    80003274:	0037c583          	lbu	a1,3(a5)
    80003278:	01168223          	sb	a7,4(a3)
    8000327c:	010682a3          	sb	a6,5(a3)
    80003280:	00a68323          	sb	a0,6(a3)
    80003284:	00b683a3          	sb	a1,7(a3)
    80003288:	00468693          	addi	a3,a3,4
    8000328c:	00478793          	addi	a5,a5,4
    80003290:	fd269ce3          	bne	a3,s2,80003268 <bench_15pz_run+0x21c>
    80003294:	5f860e63          	beq	a2,s8,80003890 <bench_15pz_run+0x844>
    80003298:	06cc5ee3          	bge	s8,a2,80003b14 <bench_15pz_run+0xac8>
    8000329c:	00361793          	slli	a5,a2,0x3
    800032a0:	00f307b3          	add	a5,t1,a5
    800032a4:	0007b783          	ld	a5,0(a5)
    800032a8:	fff6061b          	addiw	a2,a2,-1
    800032ac:	00040513          	mv	a0,s0
    800032b0:	00f33423          	sd	a5,8(t1)
    800032b4:	0387a023          	sw	s8,32(a5)
    800032b8:	00c42c23          	sw	a2,24(s0)
    800032bc:	00e13c23          	sd	a4,24(sp)
    800032c0:	c95ff0ef          	jal	ra,80002f54 <_ZN14Updatable_heapI8N_puzzleILi4EEE14percolate_downEv>
    800032c4:	01813703          	ld	a4,24(sp)
    800032c8:	05312023          	sw	s3,64(sp)
    800032cc:	04010993          	addi	s3,sp,64
    800032d0:	05a12a23          	sw	s10,84(sp)
    800032d4:	00098793          	mv	a5,s3
    800032d8:	00474503          	lbu	a0,4(a4)
    800032dc:	00574583          	lbu	a1,5(a4)
    800032e0:	00674603          	lbu	a2,6(a4)
    800032e4:	00774683          	lbu	a3,7(a4)
    800032e8:	00a78223          	sb	a0,4(a5)
    800032ec:	00b782a3          	sb	a1,5(a5)
    800032f0:	00c78323          	sb	a2,6(a5)
    800032f4:	00d783a3          	sb	a3,7(a5)
    800032f8:	00470713          	addi	a4,a4,4
    800032fc:	00478793          	addi	a5,a5,4
    80003300:	fd271ce3          	bne	a4,s2,800032d8 <bench_15pz_run+0x28c>
    80003304:	001a0a1b          	addiw	s4,s4,1
    80003308:	00048713          	mv	a4,s1
    8000330c:	00000793          	li	a5,0
    80003310:	00f00693          	li	a3,15
    80003314:	0017879b          	addiw	a5,a5,1
    80003318:	00f72023          	sw	a5,0(a4)
    8000331c:	00470713          	addi	a4,a4,4
    80003320:	fed79ae3          	bne	a5,a3,80003314 <bench_15pz_run+0x2c8>
    80003324:	00048593          	mv	a1,s1
    80003328:	05810513          	addi	a0,sp,88
    8000332c:	0a012623          	sw	zero,172(sp)
    80003330:	f8cff0ef          	jal	ra,80002abc <_ZN8N_puzzleILi4EEC1EPi>
    80003334:	220c8c63          	beqz	s9,8000356c <bench_15pz_run+0x520>
    80003338:	05814783          	lbu	a5,88(sp)
    8000333c:	0a078863          	beqz	a5,800033ec <bench_15pz_run+0x3a0>
    80003340:	06c12783          	lw	a5,108(sp)
    80003344:	00400693          	li	a3,4
    80003348:	0ba79263          	bne	a5,s10,800033ec <bench_15pz_run+0x3a0>
    8000334c:	ffc68793          	addi	a5,a3,-4
    80003350:	04010713          	addi	a4,sp,64
    80003354:	00f70733          	add	a4,a4,a5
    80003358:	00474603          	lbu	a2,4(a4)
    8000335c:	05810713          	addi	a4,sp,88
    80003360:	00f70733          	add	a4,a4,a5
    80003364:	00474703          	lbu	a4,4(a4)
    80003368:	08e61263          	bne	a2,a4,800033ec <bench_15pz_run+0x3a0>
    8000336c:	00178793          	addi	a5,a5,1
    80003370:	fef690e3          	bne	a3,a5,80003350 <bench_15pz_run+0x304>
    80003374:	00468693          	addi	a3,a3,4
    80003378:	01400793          	li	a5,20
    8000337c:	fcf698e3          	bne	a3,a5,8000334c <bench_15pz_run+0x300>
    80003380:	00843583          	ld	a1,8(s0)
    80003384:	00042503          	lw	a0,0(s0)
    80003388:	04010613          	addi	a2,sp,64
    8000338c:	cecff0ef          	jal	ra,80002878 <_ZNK14Updatable_heapI8N_puzzleILi4EEE7pointerERKS1_.isra.0>
    80003390:	800007b7          	lui	a5,0x80000
    80003394:	fff7c793          	not	a5,a5
    80003398:	00050463          	beqz	a0,800033a0 <bench_15pz_run+0x354>
    8000339c:	02452783          	lw	a5,36(a0)
    800033a0:	02fa07bb          	mulw	a5,s4,a5
    800033a4:	00004717          	auipc	a4,0x4
    800033a8:	b2c70713          	addi	a4,a4,-1236 # 80006ed0 <_ZL3ans>
    800033ac:	00f72023          	sw	a5,0(a4)
    800033b0:	11813083          	ld	ra,280(sp)
    800033b4:	11013403          	ld	s0,272(sp)
    800033b8:	10813483          	ld	s1,264(sp)
    800033bc:	10013903          	ld	s2,256(sp)
    800033c0:	0f813983          	ld	s3,248(sp)
    800033c4:	0f013a03          	ld	s4,240(sp)
    800033c8:	0e813a83          	ld	s5,232(sp)
    800033cc:	0e013b03          	ld	s6,224(sp)
    800033d0:	0d813b83          	ld	s7,216(sp)
    800033d4:	0d013c03          	ld	s8,208(sp)
    800033d8:	0c813c83          	ld	s9,200(sp)
    800033dc:	0c013d03          	ld	s10,192(sp)
    800033e0:	0b813d83          	ld	s11,184(sp)
    800033e4:	12010113          	addi	sp,sp,288
    800033e8:	00008067          	ret
    800033ec:	00300793          	li	a5,3
    800033f0:	000b8d1b          	sext.w	s10,s7
    800033f4:	00300c93          	li	s9,3
    800033f8:	4afb0063          	beq	s6,a5,80003898 <bench_15pz_run+0x84c>
    800033fc:	00048593          	mv	a1,s1
    80003400:	00048713          	mv	a4,s1
    80003404:	04010793          	addi	a5,sp,64
    80003408:	0047c803          	lbu	a6,4(a5) # ffffffff80000004 <_end+0xfffffffeffff1004>
    8000340c:	0057c503          	lbu	a0,5(a5)
    80003410:	0067c603          	lbu	a2,6(a5)
    80003414:	0077c683          	lbu	a3,7(a5)
    80003418:	01070223          	sb	a6,4(a4)
    8000341c:	00a702a3          	sb	a0,5(a4)
    80003420:	00c70323          	sb	a2,6(a4)
    80003424:	00d703a3          	sb	a3,7(a4)
    80003428:	00478793          	addi	a5,a5,4
    8000342c:	00470713          	addi	a4,a4,4
    80003430:	fd579ce3          	bne	a5,s5,80003408 <bench_15pz_run+0x3bc>
    80003434:	002b9693          	slli	a3,s7,0x2
    80003438:	09068793          	addi	a5,a3,144
    8000343c:	02010713          	addi	a4,sp,32
    80003440:	00e786b3          	add	a3,a5,a4
    80003444:	001b0813          	addi	a6,s6,1
    80003448:	010687b3          	add	a5,a3,a6
    8000344c:	f9478603          	lb	a2,-108(a5)
    80003450:	001b089b          	addiw	a7,s6,1
    80003454:	01668533          	add	a0,a3,s6
    80003458:	fff6079b          	addiw	a5,a2,-1
    8000345c:	41f7d71b          	sraiw	a4,a5,0x1f
    80003460:	01e7571b          	srliw	a4,a4,0x1e
    80003464:	00e787bb          	addw	a5,a5,a4
    80003468:	0037f793          	andi	a5,a5,3
    8000346c:	40e787bb          	subw	a5,a5,a4
    80003470:	4167873b          	subw	a4,a5,s6
    80003474:	411787bb          	subw	a5,a5,a7
    80003478:	41f75e1b          	sraiw	t3,a4,0x1f
    8000347c:	41f7d31b          	sraiw	t1,a5,0x1f
    80003480:	00ee48b3          	xor	a7,t3,a4
    80003484:	00f347b3          	xor	a5,t1,a5
    80003488:	406787bb          	subw	a5,a5,t1
    8000348c:	41c888bb          	subw	a7,a7,t3
    80003490:	40f888bb          	subw	a7,a7,a5
    80003494:	01013783          	ld	a5,16(sp)
    80003498:	0ff87813          	zext.b	a6,a6
    8000349c:	010686b3          	add	a3,a3,a6
    800034a0:	00f888bb          	addw	a7,a7,a5
    800034a4:	fcc50223          	sb	a2,-60(a0)
    800034a8:	001b031b          	addiw	t1,s6,1
    800034ac:	00448813          	addi	a6,s1,4
    800034b0:	0188989b          	slliw	a7,a7,0x18
    800034b4:	fc068223          	sb	zero,-60(a3)
    800034b8:	000b8d1b          	sext.w	s10,s7
    800034bc:	000b0c9b          	sext.w	s9,s6
    800034c0:	4188d89b          	sraiw	a7,a7,0x18
    800034c4:	0ff37313          	zext.b	t1,t1
    800034c8:	00080693          	mv	a3,a6
    800034cc:	00000713          	li	a4,0
    800034d0:	7b500513          	li	a0,1973
    800034d4:	ffc68793          	addi	a5,a3,-4
    800034d8:	02e5073b          	mulw	a4,a0,a4
    800034dc:	00478603          	lb	a2,4(a5)
    800034e0:	00178793          	addi	a5,a5,1
    800034e4:	00c7073b          	addw	a4,a4,a2
    800034e8:	fef698e3          	bne	a3,a5,800034d8 <bench_15pz_run+0x48c>
    800034ec:	00468693          	addi	a3,a3,4
    800034f0:	ffb692e3          	bne	a3,s11,800034d4 <bench_15pz_run+0x488>
    800034f4:	05810c23          	sb	s8,88(sp)
    800034f8:	05710ca3          	sb	s7,89(sp)
    800034fc:	04610d23          	sb	t1,90(sp)
    80003500:	05110da3          	sb	a7,91(sp)
    80003504:	06e12623          	sw	a4,108(sp)
    80003508:	05810793          	addi	a5,sp,88
    8000350c:	0075c703          	lbu	a4,7(a1)
    80003510:	0045c503          	lbu	a0,4(a1)
    80003514:	0055c603          	lbu	a2,5(a1)
    80003518:	0065c683          	lbu	a3,6(a1)
    8000351c:	00e783a3          	sb	a4,7(a5)
    80003520:	00013703          	ld	a4,0(sp)
    80003524:	00a78223          	sb	a0,4(a5)
    80003528:	00c782a3          	sb	a2,5(a5)
    8000352c:	00d78323          	sb	a3,6(a5)
    80003530:	00080593          	mv	a1,a6
    80003534:	00478793          	addi	a5,a5,4
    80003538:	05070463          	beq	a4,a6,80003580 <bench_15pz_run+0x534>
    8000353c:	00480813          	addi	a6,a6,4
    80003540:	fcdff06f          	j	8000350c <bench_15pz_run+0x4c0>
    80003544:	00843583          	ld	a1,8(s0)
    80003548:	00042503          	lw	a0,0(s0)
    8000354c:	04010613          	addi	a2,sp,64
    80003550:	b28ff0ef          	jal	ra,80002878 <_ZNK14Updatable_heapI8N_puzzleILi4EEE7pointerERKS1_.isra.0>
    80003554:	4c050063          	beqz	a0,80003a14 <bench_15pz_run+0x9c8>
    80003558:	02452603          	lw	a2,36(a0)
    8000355c:	0016061b          	addiw	a2,a2,1
    80003560:	05810593          	addi	a1,sp,88
    80003564:	00040513          	mv	a0,s0
    80003568:	fe4ff0ef          	jal	ra,80002d4c <_ZN14Updatable_heapI8N_puzzleILi4EEE4pushERKS1_i>
    8000356c:	01842603          	lw	a2,24(s0)
    80003570:	e40600e3          	beqz	a2,800033b0 <bench_15pz_run+0x364>
    80003574:	00813783          	ld	a5,8(sp)
    80003578:	cd4790e3          	bne	a5,s4,80003238 <bench_15pz_run+0x1ec>
    8000357c:	e35ff06f          	j	800033b0 <bench_15pz_run+0x364>
    80003580:	00843583          	ld	a1,8(s0)
    80003584:	00042503          	lw	a0,0(s0)
    80003588:	04010613          	addi	a2,sp,64
    8000358c:	aecff0ef          	jal	ra,80002878 <_ZNK14Updatable_heapI8N_puzzleILi4EEE7pointerERKS1_.isra.0>
    80003590:	46050a63          	beqz	a0,80003a04 <bench_15pz_run+0x9b8>
    80003594:	02452603          	lw	a2,36(a0)
    80003598:	0016061b          	addiw	a2,a2,1
    8000359c:	05810593          	addi	a1,sp,88
    800035a0:	00040513          	mv	a0,s0
    800035a4:	fa8ff0ef          	jal	ra,80002d4c <_ZN14Updatable_heapI8N_puzzleILi4EEE4pushERKS1_i>
    800035a8:	2e0b1863          	bnez	s6,80003898 <bench_15pz_run+0x84c>
    800035ac:	00300793          	li	a5,3
    800035b0:	18fb8663          	beq	s7,a5,8000373c <bench_15pz_run+0x6f0>
    800035b4:	00048593          	mv	a1,s1
    800035b8:	00048713          	mv	a4,s1
    800035bc:	04010793          	addi	a5,sp,64
    800035c0:	0047c803          	lbu	a6,4(a5)
    800035c4:	0057c503          	lbu	a0,5(a5)
    800035c8:	0067c603          	lbu	a2,6(a5)
    800035cc:	0077c683          	lbu	a3,7(a5)
    800035d0:	01070223          	sb	a6,4(a4)
    800035d4:	00a702a3          	sb	a0,5(a4)
    800035d8:	00c70323          	sb	a2,6(a4)
    800035dc:	00d703a3          	sb	a3,7(a4)
    800035e0:	00478793          	addi	a5,a5,4
    800035e4:	00470713          	addi	a4,a4,4
    800035e8:	fcfa9ce3          	bne	s5,a5,800035c0 <bench_15pz_run+0x574>
    800035ec:	001d071b          	addiw	a4,s10,1
    800035f0:	00271793          	slli	a5,a4,0x2
    800035f4:	02010693          	addi	a3,sp,32
    800035f8:	09078793          	addi	a5,a5,144
    800035fc:	00d787b3          	add	a5,a5,a3
    80003600:	019787b3          	add	a5,a5,s9
    80003604:	f9478683          	lb	a3,-108(a5)
    80003608:	00070813          	mv	a6,a4
    8000360c:	0ff77613          	zext.b	a2,a4
    80003610:	fff6871b          	addiw	a4,a3,-1
    80003614:	41f7579b          	sraiw	a5,a4,0x1f
    80003618:	01e7d79b          	srliw	a5,a5,0x1e
    8000361c:	00e787bb          	addw	a5,a5,a4
    80003620:	4027d79b          	sraiw	a5,a5,0x2
    80003624:	41a7873b          	subw	a4,a5,s10
    80003628:	410787bb          	subw	a5,a5,a6
    8000362c:	41f7531b          	sraiw	t1,a4,0x1f
    80003630:	41f7d81b          	sraiw	a6,a5,0x1f
    80003634:	002d1513          	slli	a0,s10,0x2
    80003638:	00e348b3          	xor	a7,t1,a4
    8000363c:	00f847b3          	xor	a5,a6,a5
    80003640:	09050713          	addi	a4,a0,144
    80003644:	02010513          	addi	a0,sp,32
    80003648:	410787bb          	subw	a5,a5,a6
    8000364c:	00a70533          	add	a0,a4,a0
    80003650:	406888bb          	subw	a7,a7,t1
    80003654:	00261713          	slli	a4,a2,0x2
    80003658:	40f888bb          	subw	a7,a7,a5
    8000365c:	09070793          	addi	a5,a4,144
    80003660:	02010713          	addi	a4,sp,32
    80003664:	00e787b3          	add	a5,a5,a4
    80003668:	01013703          	ld	a4,16(sp)
    8000366c:	01950633          	add	a2,a0,s9
    80003670:	fcd60223          	sb	a3,-60(a2)
    80003674:	00e888bb          	addw	a7,a7,a4
    80003678:	001b831b          	addiw	t1,s7,1
    8000367c:	019787b3          	add	a5,a5,s9
    80003680:	00448813          	addi	a6,s1,4
    80003684:	0188989b          	slliw	a7,a7,0x18
    80003688:	4188d89b          	sraiw	a7,a7,0x18
    8000368c:	0ff37313          	zext.b	t1,t1
    80003690:	fc078223          	sb	zero,-60(a5)
    80003694:	00080613          	mv	a2,a6
    80003698:	00000713          	li	a4,0
    8000369c:	7b500513          	li	a0,1973
    800036a0:	ffc60793          	addi	a5,a2,-4
    800036a4:	02e5073b          	mulw	a4,a0,a4
    800036a8:	00478683          	lb	a3,4(a5)
    800036ac:	00178793          	addi	a5,a5,1
    800036b0:	00d7073b          	addw	a4,a4,a3
    800036b4:	fec798e3          	bne	a5,a2,800036a4 <bench_15pz_run+0x658>
    800036b8:	00478613          	addi	a2,a5,4
    800036bc:	fecd92e3          	bne	s11,a2,800036a0 <bench_15pz_run+0x654>
    800036c0:	05810c23          	sb	s8,88(sp)
    800036c4:	04610ca3          	sb	t1,89(sp)
    800036c8:	05610d23          	sb	s6,90(sp)
    800036cc:	05110da3          	sb	a7,91(sp)
    800036d0:	06e12623          	sw	a4,108(sp)
    800036d4:	05810793          	addi	a5,sp,88
    800036d8:	0075c703          	lbu	a4,7(a1)
    800036dc:	0045c503          	lbu	a0,4(a1)
    800036e0:	0055c603          	lbu	a2,5(a1)
    800036e4:	0065c683          	lbu	a3,6(a1)
    800036e8:	00e783a3          	sb	a4,7(a5)
    800036ec:	00013703          	ld	a4,0(sp)
    800036f0:	00a78223          	sb	a0,4(a5)
    800036f4:	00c782a3          	sb	a2,5(a5)
    800036f8:	00d78323          	sb	a3,6(a5)
    800036fc:	00080593          	mv	a1,a6
    80003700:	00478793          	addi	a5,a5,4
    80003704:	00e80663          	beq	a6,a4,80003710 <bench_15pz_run+0x6c4>
    80003708:	00480813          	addi	a6,a6,4
    8000370c:	fcdff06f          	j	800036d8 <bench_15pz_run+0x68c>
    80003710:	00843583          	ld	a1,8(s0)
    80003714:	00042503          	lw	a0,0(s0)
    80003718:	04010613          	addi	a2,sp,64
    8000371c:	95cff0ef          	jal	ra,80002878 <_ZNK14Updatable_heapI8N_puzzleILi4EEE7pointerERKS1_.isra.0>
    80003720:	2e050663          	beqz	a0,80003a0c <bench_15pz_run+0x9c0>
    80003724:	02452603          	lw	a2,36(a0)
    80003728:	0016061b          	addiw	a2,a2,1
    8000372c:	05810593          	addi	a1,sp,88
    80003730:	00040513          	mv	a0,s0
    80003734:	e18ff0ef          	jal	ra,80002d4c <_ZN14Updatable_heapI8N_puzzleILi4EEE4pushERKS1_i>
    80003738:	e20b8ae3          	beqz	s7,8000356c <bench_15pz_run+0x520>
    8000373c:	00048593          	mv	a1,s1
    80003740:	00048793          	mv	a5,s1
    80003744:	0049c503          	lbu	a0,4(s3)
    80003748:	0059c603          	lbu	a2,5(s3)
    8000374c:	0069c683          	lbu	a3,6(s3)
    80003750:	0079c703          	lbu	a4,7(s3)
    80003754:	00a78223          	sb	a0,4(a5)
    80003758:	00c782a3          	sb	a2,5(a5)
    8000375c:	00d78323          	sb	a3,6(a5)
    80003760:	00e783a3          	sb	a4,7(a5)
    80003764:	00498993          	addi	s3,s3,4
    80003768:	00478793          	addi	a5,a5,4
    8000376c:	fd599ce3          	bne	s3,s5,80003744 <bench_15pz_run+0x6f8>
    80003770:	fffd079b          	addiw	a5,s10,-1
    80003774:	00078513          	mv	a0,a5
    80003778:	00279793          	slli	a5,a5,0x2
    8000377c:	02010713          	addi	a4,sp,32
    80003780:	09078793          	addi	a5,a5,144
    80003784:	00e787b3          	add	a5,a5,a4
    80003788:	019787b3          	add	a5,a5,s9
    8000378c:	f9478683          	lb	a3,-108(a5)
    80003790:	fffb8b9b          	addiw	s7,s7,-1
    80003794:	002d1613          	slli	a2,s10,0x2
    80003798:	fff6871b          	addiw	a4,a3,-1
    8000379c:	41f7579b          	sraiw	a5,a4,0x1f
    800037a0:	01e7d79b          	srliw	a5,a5,0x1e
    800037a4:	00e787bb          	addw	a5,a5,a4
    800037a8:	4027d79b          	sraiw	a5,a5,0x2
    800037ac:	41a7873b          	subw	a4,a5,s10
    800037b0:	40a787bb          	subw	a5,a5,a0
    800037b4:	41f7581b          	sraiw	a6,a4,0x1f
    800037b8:	41f7d51b          	sraiw	a0,a5,0x1f
    800037bc:	00e848b3          	xor	a7,a6,a4
    800037c0:	00f547b3          	xor	a5,a0,a5
    800037c4:	0ffbf713          	zext.b	a4,s7
    800037c8:	40a787bb          	subw	a5,a5,a0
    800037cc:	410888bb          	subw	a7,a7,a6
    800037d0:	00271713          	slli	a4,a4,0x2
    800037d4:	40f888bb          	subw	a7,a7,a5
    800037d8:	09070793          	addi	a5,a4,144
    800037dc:	01013703          	ld	a4,16(sp)
    800037e0:	02010513          	addi	a0,sp,32
    800037e4:	09060613          	addi	a2,a2,144
    800037e8:	00a60633          	add	a2,a2,a0
    800037ec:	01960633          	add	a2,a2,s9
    800037f0:	00a787b3          	add	a5,a5,a0
    800037f4:	00e888bb          	addw	a7,a7,a4
    800037f8:	fcd60223          	sb	a3,-60(a2)
    800037fc:	019787b3          	add	a5,a5,s9
    80003800:	00448813          	addi	a6,s1,4
    80003804:	0188989b          	slliw	a7,a7,0x18
    80003808:	4188d89b          	sraiw	a7,a7,0x18
    8000380c:	0ffbfb93          	zext.b	s7,s7
    80003810:	fc078223          	sb	zero,-60(a5)
    80003814:	00080613          	mv	a2,a6
    80003818:	00000713          	li	a4,0
    8000381c:	7b500513          	li	a0,1973
    80003820:	ffc60793          	addi	a5,a2,-4
    80003824:	02e5073b          	mulw	a4,a0,a4
    80003828:	00478683          	lb	a3,4(a5)
    8000382c:	00178793          	addi	a5,a5,1
    80003830:	00d7073b          	addw	a4,a4,a3
    80003834:	fec798e3          	bne	a5,a2,80003824 <bench_15pz_run+0x7d8>
    80003838:	00478613          	addi	a2,a5,4
    8000383c:	ffb612e3          	bne	a2,s11,80003820 <bench_15pz_run+0x7d4>
    80003840:	05810c23          	sb	s8,88(sp)
    80003844:	05710ca3          	sb	s7,89(sp)
    80003848:	05610d23          	sb	s6,90(sp)
    8000384c:	05110da3          	sb	a7,91(sp)
    80003850:	06e12623          	sw	a4,108(sp)
    80003854:	05810793          	addi	a5,sp,88
    80003858:	0075c703          	lbu	a4,7(a1)
    8000385c:	0045c503          	lbu	a0,4(a1)
    80003860:	0055c603          	lbu	a2,5(a1)
    80003864:	0065c683          	lbu	a3,6(a1)
    80003868:	00e783a3          	sb	a4,7(a5)
    8000386c:	00013703          	ld	a4,0(sp)
    80003870:	00a78223          	sb	a0,4(a5)
    80003874:	00c782a3          	sb	a2,5(a5)
    80003878:	00d78323          	sb	a3,6(a5)
    8000387c:	00080593          	mv	a1,a6
    80003880:	00478793          	addi	a5,a5,4
    80003884:	cce800e3          	beq	a6,a4,80003544 <bench_15pz_run+0x4f8>
    80003888:	00480813          	addi	a6,a6,4
    8000388c:	fcdff06f          	j	80003858 <bench_15pz_run+0x80c>
    80003890:	00042c23          	sw	zero,24(s0)
    80003894:	a35ff06f          	j	800032c8 <bench_15pz_run+0x27c>
    80003898:	00048593          	mv	a1,s1
    8000389c:	00048713          	mv	a4,s1
    800038a0:	04010793          	addi	a5,sp,64
    800038a4:	0047c803          	lbu	a6,4(a5)
    800038a8:	0057c503          	lbu	a0,5(a5)
    800038ac:	0067c603          	lbu	a2,6(a5)
    800038b0:	0077c683          	lbu	a3,7(a5)
    800038b4:	01070223          	sb	a6,4(a4)
    800038b8:	00a702a3          	sb	a0,5(a4)
    800038bc:	00c70323          	sb	a2,6(a4)
    800038c0:	00d703a3          	sb	a3,7(a4)
    800038c4:	00478793          	addi	a5,a5,4
    800038c8:	00470713          	addi	a4,a4,4
    800038cc:	fd579ce3          	bne	a5,s5,800038a4 <bench_15pz_run+0x858>
    800038d0:	002d1693          	slli	a3,s10,0x2
    800038d4:	fffc889b          	addiw	a7,s9,-1
    800038d8:	09068793          	addi	a5,a3,144
    800038dc:	02010713          	addi	a4,sp,32
    800038e0:	00e786b3          	add	a3,a5,a4
    800038e4:	0008879b          	sext.w	a5,a7
    800038e8:	00f687b3          	add	a5,a3,a5
    800038ec:	f9478603          	lb	a2,-108(a5)
    800038f0:	fffb081b          	addiw	a6,s6,-1
    800038f4:	01968533          	add	a0,a3,s9
    800038f8:	fff6079b          	addiw	a5,a2,-1
    800038fc:	41f7d71b          	sraiw	a4,a5,0x1f
    80003900:	01e7571b          	srliw	a4,a4,0x1e
    80003904:	00e787bb          	addw	a5,a5,a4
    80003908:	0037f793          	andi	a5,a5,3
    8000390c:	40e787bb          	subw	a5,a5,a4
    80003910:	4197873b          	subw	a4,a5,s9
    80003914:	411787bb          	subw	a5,a5,a7
    80003918:	41f75e1b          	sraiw	t3,a4,0x1f
    8000391c:	41f7d31b          	sraiw	t1,a5,0x1f
    80003920:	00ee48b3          	xor	a7,t3,a4
    80003924:	00f347b3          	xor	a5,t1,a5
    80003928:	0ff87713          	zext.b	a4,a6
    8000392c:	01013803          	ld	a6,16(sp)
    80003930:	406787bb          	subw	a5,a5,t1
    80003934:	41c888bb          	subw	a7,a7,t3
    80003938:	40f888bb          	subw	a7,a7,a5
    8000393c:	010888bb          	addw	a7,a7,a6
    80003940:	00e686b3          	add	a3,a3,a4
    80003944:	fcc50223          	sb	a2,-60(a0)
    80003948:	00448813          	addi	a6,s1,4
    8000394c:	0188989b          	slliw	a7,a7,0x18
    80003950:	00070313          	mv	t1,a4
    80003954:	fc068223          	sb	zero,-60(a3)
    80003958:	4188d89b          	sraiw	a7,a7,0x18
    8000395c:	00080693          	mv	a3,a6
    80003960:	00000713          	li	a4,0
    80003964:	7b500513          	li	a0,1973
    80003968:	ffc68793          	addi	a5,a3,-4
    8000396c:	02e5073b          	mulw	a4,a0,a4
    80003970:	00478603          	lb	a2,4(a5)
    80003974:	00178793          	addi	a5,a5,1
    80003978:	00c7073b          	addw	a4,a4,a2
    8000397c:	fef698e3          	bne	a3,a5,8000396c <bench_15pz_run+0x920>
    80003980:	00468693          	addi	a3,a3,4
    80003984:	ffb692e3          	bne	a3,s11,80003968 <bench_15pz_run+0x91c>
    80003988:	05810c23          	sb	s8,88(sp)
    8000398c:	05710ca3          	sb	s7,89(sp)
    80003990:	04610d23          	sb	t1,90(sp)
    80003994:	05110da3          	sb	a7,91(sp)
    80003998:	06e12623          	sw	a4,108(sp)
    8000399c:	05810793          	addi	a5,sp,88
    800039a0:	0075c703          	lbu	a4,7(a1)
    800039a4:	0045c503          	lbu	a0,4(a1)
    800039a8:	0055c603          	lbu	a2,5(a1)
    800039ac:	0065c683          	lbu	a3,6(a1)
    800039b0:	00e783a3          	sb	a4,7(a5)
    800039b4:	00013703          	ld	a4,0(sp)
    800039b8:	00a78223          	sb	a0,4(a5)
    800039bc:	00c782a3          	sb	a2,5(a5)
    800039c0:	00d78323          	sb	a3,6(a5)
    800039c4:	00080593          	mv	a1,a6
    800039c8:	00478793          	addi	a5,a5,4
    800039cc:	01070663          	beq	a4,a6,800039d8 <bench_15pz_run+0x98c>
    800039d0:	00480813          	addi	a6,a6,4
    800039d4:	fcdff06f          	j	800039a0 <bench_15pz_run+0x954>
    800039d8:	00843583          	ld	a1,8(s0)
    800039dc:	00042503          	lw	a0,0(s0)
    800039e0:	04010613          	addi	a2,sp,64
    800039e4:	e95fe0ef          	jal	ra,80002878 <_ZNK14Updatable_heapI8N_puzzleILi4EEE7pointerERKS1_.isra.0>
    800039e8:	02050a63          	beqz	a0,80003a1c <bench_15pz_run+0x9d0>
    800039ec:	02452603          	lw	a2,36(a0)
    800039f0:	0016061b          	addiw	a2,a2,1
    800039f4:	05810593          	addi	a1,sp,88
    800039f8:	00040513          	mv	a0,s0
    800039fc:	b50ff0ef          	jal	ra,80002d4c <_ZN14Updatable_heapI8N_puzzleILi4EEE4pushERKS1_i>
    80003a00:	badff06f          	j	800035ac <bench_15pz_run+0x560>
    80003a04:	80000637          	lui	a2,0x80000
    80003a08:	b95ff06f          	j	8000359c <bench_15pz_run+0x550>
    80003a0c:	80000637          	lui	a2,0x80000
    80003a10:	d1dff06f          	j	8000372c <bench_15pz_run+0x6e0>
    80003a14:	80000637          	lui	a2,0x80000
    80003a18:	b49ff06f          	j	80003560 <bench_15pz_run+0x514>
    80003a1c:	80000637          	lui	a2,0x80000
    80003a20:	fd5ff06f          	j	800039f4 <bench_15pz_run+0x9a8>
    80003a24:	07010493          	addi	s1,sp,112
    80003a28:	00003597          	auipc	a1,0x3
    80003a2c:	93058593          	addi	a1,a1,-1744 # 80006358 <_ZL8PUZZLE_S>
    80003a30:	00048513          	mv	a0,s1
    80003a34:	888ff0ef          	jal	ra,80002abc <_ZN8N_puzzleILi4EEC1EPi>
    80003a38:	08412703          	lw	a4,132(sp)
    80003a3c:	07012683          	lw	a3,112(sp)
    80003a40:	00048793          	mv	a5,s1
    80003a44:	02e12e23          	sw	a4,60(sp)
    80003a48:	02d12423          	sw	a3,40(sp)
    80003a4c:	02810713          	addi	a4,sp,40
    80003a50:	08010913          	addi	s2,sp,128
    80003a54:	0047c503          	lbu	a0,4(a5)
    80003a58:	0057c583          	lbu	a1,5(a5)
    80003a5c:	0067c603          	lbu	a2,6(a5)
    80003a60:	0077c683          	lbu	a3,7(a5)
    80003a64:	00a70223          	sb	a0,4(a4)
    80003a68:	00b702a3          	sb	a1,5(a4)
    80003a6c:	00c70323          	sb	a2,6(a4)
    80003a70:	00d703a3          	sb	a3,7(a4)
    80003a74:	00478793          	addi	a5,a5,4
    80003a78:	00470713          	addi	a4,a4,4
    80003a7c:	fcf91ce3          	bne	s2,a5,80003a54 <bench_15pz_run+0xa08>
    80003a80:	00a00793          	li	a5,10
    80003a84:	00f13423          	sd	a5,8(sp)
    80003a88:	f00ff06f          	j	80003188 <bench_15pz_run+0x13c>
    80003a8c:	07010493          	addi	s1,sp,112
    80003a90:	00003597          	auipc	a1,0x3
    80003a94:	84858593          	addi	a1,a1,-1976 # 800062d8 <_ZL8PUZZLE_L>
    80003a98:	00048513          	mv	a0,s1
    80003a9c:	820ff0ef          	jal	ra,80002abc <_ZN8N_puzzleILi4EEC1EPi>
    80003aa0:	08412703          	lw	a4,132(sp)
    80003aa4:	07012683          	lw	a3,112(sp)
    80003aa8:	00048793          	mv	a5,s1
    80003aac:	02e12e23          	sw	a4,60(sp)
    80003ab0:	02d12423          	sw	a3,40(sp)
    80003ab4:	02810713          	addi	a4,sp,40
    80003ab8:	08010913          	addi	s2,sp,128
    80003abc:	0047c503          	lbu	a0,4(a5)
    80003ac0:	0057c583          	lbu	a1,5(a5)
    80003ac4:	0067c603          	lbu	a2,6(a5)
    80003ac8:	0077c683          	lbu	a3,7(a5)
    80003acc:	00a70223          	sb	a0,4(a4)
    80003ad0:	00b702a3          	sb	a1,5(a4)
    80003ad4:	00c70323          	sb	a2,6(a4)
    80003ad8:	00d703a3          	sb	a3,7(a4)
    80003adc:	00478793          	addi	a5,a5,4
    80003ae0:	00470713          	addi	a4,a4,4
    80003ae4:	fcf91ce3          	bne	s2,a5,80003abc <bench_15pz_run+0xa70>
    80003ae8:	000047b7          	lui	a5,0x4
    80003aec:	00f13423          	sd	a5,8(sp)
    80003af0:	e98ff06f          	j	80003188 <bench_15pz_run+0x13c>
    80003af4:	03600613          	li	a2,54
    80003af8:	00002597          	auipc	a1,0x2
    80003afc:	fe858593          	addi	a1,a1,-24 # 80005ae0 <r+0x1e0>
    80003b00:	00002517          	auipc	a0,0x2
    80003b04:	f6050513          	addi	a0,a0,-160 # 80005a60 <r+0x160>
    80003b08:	3e9010ef          	jal	ra,800056f0 <printf>
    80003b0c:	00100513          	li	a0,1
    80003b10:	2ec010ef          	jal	ra,80004dfc <halt>
    80003b14:	05600613          	li	a2,86
    80003b18:	00002597          	auipc	a1,0x2
    80003b1c:	f6858593          	addi	a1,a1,-152 # 80005a80 <r+0x180>
    80003b20:	00002517          	auipc	a0,0x2
    80003b24:	f4050513          	addi	a0,a0,-192 # 80005a60 <r+0x160>
    80003b28:	3c9010ef          	jal	ra,800056f0 <printf>
    80003b2c:	00100513          	li	a0,1
    80003b30:	2cc010ef          	jal	ra,80004dfc <halt>
    80003b34:	03400613          	li	a2,52
    80003b38:	fc1ff06f          	j	80003af8 <bench_15pz_run+0xaac>

0000000080003b3c <format_time>:
    80003b3c:	3e800613          	li	a2,1000
    80003b40:	02c55633          	divu	a2,a0,a2
    80003b44:	3e800793          	li	a5,1000
    80003b48:	fe010113          	addi	sp,sp,-32
    80003b4c:	00813823          	sd	s0,16(sp)
    80003b50:	00113c23          	sd	ra,24(sp)
    80003b54:	00913423          	sd	s1,8(sp)
    80003b58:	3e700713          	li	a4,999
    80003b5c:	02c787bb          	mulw	a5,a5,a2
    80003b60:	02079793          	slli	a5,a5,0x20
    80003b64:	0207d793          	srli	a5,a5,0x20
    80003b68:	40f50433          	sub	s0,a0,a5
    80003b6c:	06876663          	bltu	a4,s0,80003bd8 <format_time+0x9c>
    80003b70:	00003497          	auipc	s1,0x3
    80003b74:	2d048493          	addi	s1,s1,720 # 80006e40 <buf.0>
    80003b78:	0006061b          	sext.w	a2,a2
    80003b7c:	00002597          	auipc	a1,0x2
    80003b80:	01c58593          	addi	a1,a1,28 # 80005b98 <r+0x298>
    80003b84:	00048513          	mv	a0,s1
    80003b88:	41d010ef          	jal	ra,800057a4 <sprintf>
    80003b8c:	fff5051b          	addiw	a0,a0,-1
    80003b90:	00a48533          	add	a0,s1,a0
    80003b94:	02040463          	beqz	s0,80003bbc <format_time+0x80>
    80003b98:	00a00713          	li	a4,10
    80003b9c:	00900613          	li	a2,9
    80003ba0:	02e477b3          	remu	a5,s0,a4
    80003ba4:	fff50513          	addi	a0,a0,-1
    80003ba8:	00040693          	mv	a3,s0
    80003bac:	0307879b          	addiw	a5,a5,48 # 4030 <_entry_offset+0x4030>
    80003bb0:	00f500a3          	sb	a5,1(a0)
    80003bb4:	02e45433          	divu	s0,s0,a4
    80003bb8:	fed664e3          	bltu	a2,a3,80003ba0 <format_time+0x64>
    80003bbc:	01813083          	ld	ra,24(sp)
    80003bc0:	01013403          	ld	s0,16(sp)
    80003bc4:	00813483          	ld	s1,8(sp)
    80003bc8:	00003517          	auipc	a0,0x3
    80003bcc:	27850513          	addi	a0,a0,632 # 80006e40 <buf.0>
    80003bd0:	02010113          	addi	sp,sp,32
    80003bd4:	00008067          	ret
    80003bd8:	01100613          	li	a2,17
    80003bdc:	00002597          	auipc	a1,0x2
    80003be0:	f6458593          	addi	a1,a1,-156 # 80005b40 <r+0x240>
    80003be4:	00002517          	auipc	a0,0x2
    80003be8:	e7c50513          	addi	a0,a0,-388 # 80005a60 <r+0x160>
    80003bec:	305010ef          	jal	ra,800056f0 <printf>
    80003bf0:	00100513          	li	a0,1
    80003bf4:	208010ef          	jal	ra,80004dfc <halt>

0000000080003bf8 <main>:
    80003bf8:	f4010113          	addi	sp,sp,-192
    80003bfc:	0a113c23          	sd	ra,184(sp)
    80003c00:	0a813823          	sd	s0,176(sp)
    80003c04:	0a913423          	sd	s1,168(sp)
    80003c08:	0b213023          	sd	s2,160(sp)
    80003c0c:	09313c23          	sd	s3,152(sp)
    80003c10:	09413823          	sd	s4,144(sp)
    80003c14:	09513423          	sd	s5,136(sp)
    80003c18:	09613023          	sd	s6,128(sp)
    80003c1c:	07713c23          	sd	s7,120(sp)
    80003c20:	07813823          	sd	s8,112(sp)
    80003c24:	07913423          	sd	s9,104(sp)
    80003c28:	07a13023          	sd	s10,96(sp)
    80003c2c:	05b13c23          	sd	s11,88(sp)
    80003c30:	32050e63          	beqz	a0,80003f6c <main+0x374>
    80003c34:	00002597          	auipc	a1,0x2
    80003c38:	03458593          	addi	a1,a1,52 # 80005c68 <r+0x368>
    80003c3c:	00050413          	mv	s0,a0
    80003c40:	570010ef          	jal	ra,800051b0 <strcmp>
    80003c44:	32050463          	beqz	a0,80003f6c <main+0x374>
    80003c48:	00002597          	auipc	a1,0x2
    80003c4c:	f9858593          	addi	a1,a1,-104 # 80005be0 <r+0x2e0>
    80003c50:	00040513          	mv	a0,s0
    80003c54:	55c010ef          	jal	ra,800051b0 <strcmp>
    80003c58:	00a13823          	sd	a0,16(sp)
    80003c5c:	02050063          	beqz	a0,80003c7c <main+0x84>
    80003c60:	00002597          	auipc	a1,0x2
    80003c64:	f8858593          	addi	a1,a1,-120 # 80005be8 <r+0x2e8>
    80003c68:	00040513          	mv	a0,s0
    80003c6c:	544010ef          	jal	ra,800051b0 <strcmp>
    80003c70:	00100793          	li	a5,1
    80003c74:	00f13823          	sd	a5,16(sp)
    80003c78:	34051c63          	bnez	a0,80003fd0 <main+0x3d8>
    80003c7c:	240010ef          	jal	ra,80004ebc <ioe_init>
    80003c80:	00040593          	mv	a1,s0
    80003c84:	00002517          	auipc	a0,0x2
    80003c88:	fb450513          	addi	a0,a0,-76 # 80005c38 <r+0x338>
    80003c8c:	265010ef          	jal	ra,800056f0 <printf>
    80003c90:	04810593          	addi	a1,sp,72
    80003c94:	00600513          	li	a0,6
    80003c98:	280010ef          	jal	ra,80004f18 <ioe_read>
    80003c9c:	01013783          	ld	a5,16(sp)
    80003ca0:	00018737          	lui	a4,0x18
    80003ca4:	00002d17          	auipc	s10,0x2
    80003ca8:	6f4d0d13          	addi	s10,s10,1780 # 80006398 <benchmarks>
    80003cac:	0017891b          	addiw	s2,a5,1
    80003cb0:	04813783          	ld	a5,72(sp)
    80003cb4:	00591913          	slli	s2,s2,0x5
    80003cb8:	fe090a93          	addi	s5,s2,-32
    80003cbc:	02f13823          	sd	a5,48(sp)
    80003cc0:	00100793          	li	a5,1
    80003cc4:	02f13023          	sd	a5,32(sp)
    80003cc8:	6a070793          	addi	a5,a4,1696 # 186a0 <_entry_offset+0x186a0>
    80003ccc:	00003b17          	auipc	s6,0x3
    80003cd0:	d5cb0b13          	addi	s6,s6,-676 # 80006a28 <seed>
    80003cd4:	00013423          	sd	zero,8(sp)
    80003cd8:	02013423          	sd	zero,40(sp)
    80003cdc:	00003417          	auipc	s0,0x3
    80003ce0:	1fc40413          	addi	s0,s0,508 # 80006ed8 <current>
    80003ce4:	00003a17          	auipc	s4,0x3
    80003ce8:	204a0a13          	addi	s4,s4,516 # 80006ee8 <setting>
    80003cec:	00890913          	addi	s2,s2,8
    80003cf0:	00003b97          	auipc	s7,0x3
    80003cf4:	d40b8b93          	addi	s7,s7,-704 # 80006a30 <heap>
    80003cf8:	00002997          	auipc	s3,0x2
    80003cfc:	f7898993          	addi	s3,s3,-136 # 80005c70 <r+0x370>
    80003d00:	00002c97          	auipc	s9,0x2
    80003d04:	f90c8c93          	addi	s9,s9,-112 # 80005c90 <r+0x390>
    80003d08:	00002c17          	auipc	s8,0x2
    80003d0c:	fa0c0c13          	addi	s8,s8,-96 # 80005ca8 <r+0x3a8>
    80003d10:	00002d97          	auipc	s11,0x2
    80003d14:	f70d8d93          	addi	s11,s11,-144 # 80005c80 <r+0x380>
    80003d18:	02f13c23          	sd	a5,56(sp)
    80003d1c:	0200006f          	j	80003d3c <main+0x144>
    80003d20:	00098513          	mv	a0,s3
    80003d24:	1cd010ef          	jal	ra,800056f0 <printf>
    80003d28:	000c8593          	mv	a1,s9
    80003d2c:	000c0513          	mv	a0,s8
    80003d30:	1c1010ef          	jal	ra,800056f0 <printf>
    80003d34:	0a8d0d13          	addi	s10,s10,168
    80003d38:	15ab0263          	beq	s6,s10,80003e7c <main+0x284>
    80003d3c:	000bb603          	ld	a2,0(s7)
    80003d40:	015d05b3          	add	a1,s10,s5
    80003d44:	008bb703          	ld	a4,8(s7)
    80003d48:	0305b503          	ld	a0,48(a1)
    80003d4c:	01a905b3          	add	a1,s2,s10
    80003d50:	00ba3023          	sd	a1,0(s4)
    80003d54:	40c70733          	sub	a4,a4,a2
    80003d58:	01a43023          	sd	s10,0(s0)
    80003d5c:	018d3583          	ld	a1,24(s10)
    80003d60:	020d3603          	ld	a2,32(s10)
    80003d64:	faa76ee3          	bltu	a4,a0,80003d20 <main+0x128>
    80003d68:	00098513          	mv	a0,s3
    80003d6c:	185010ef          	jal	ra,800056f0 <printf>
    80003d70:	00043603          	ld	a2,0(s0)
    80003d74:	000bb703          	ld	a4,0(s7)
    80003d78:	00003797          	auipc	a5,0x3
    80003d7c:	16878793          	addi	a5,a5,360 # 80006ee0 <hbrk>
    80003d80:	00063603          	ld	a2,0(a2) # ffffffff80000000 <_end+0xfffffffeffff1000>
    80003d84:	00770713          	addi	a4,a4,7
    80003d88:	ff877713          	andi	a4,a4,-8
    80003d8c:	00e7b023          	sd	a4,0(a5)
    80003d90:	000600e7          	jalr	a2
    80003d94:	04810593          	addi	a1,sp,72
    80003d98:	00600513          	li	a0,6
    80003d9c:	17c010ef          	jal	ra,80004f18 <ioe_read>
    80003da0:	00043703          	ld	a4,0(s0)
    80003da4:	04813483          	ld	s1,72(sp)
    80003da8:	00873703          	ld	a4,8(a4)
    80003dac:	000700e7          	jalr	a4
    80003db0:	04810593          	addi	a1,sp,72
    80003db4:	00600513          	li	a0,6
    80003db8:	160010ef          	jal	ra,80004f18 <ioe_read>
    80003dbc:	04813703          	ld	a4,72(sp)
    80003dc0:	000d8513          	mv	a0,s11
    80003dc4:	409704b3          	sub	s1,a4,s1
    80003dc8:	00048593          	mv	a1,s1
    80003dcc:	125010ef          	jal	ra,800056f0 <printf>
    80003dd0:	00043703          	ld	a4,0(s0)
    80003dd4:	01073703          	ld	a4,16(a4)
    80003dd8:	000700e7          	jalr	a4
    80003ddc:	1a050463          	beqz	a0,80003f84 <main+0x38c>
    80003de0:	00a13c23          	sd	a0,24(sp)
    80003de4:	00002517          	auipc	a0,0x2
    80003de8:	ed450513          	addi	a0,a0,-300 # 80005cb8 <r+0x3b8>
    80003dec:	105010ef          	jal	ra,800056f0 <printf>
    80003df0:	00813783          	ld	a5,8(sp)
    80003df4:	01813703          	ld	a4,24(sp)
    80003df8:	009787b3          	add	a5,a5,s1
    80003dfc:	00177713          	andi	a4,a4,1
    80003e00:	00f13423          	sd	a5,8(sp)
    80003e04:	18070c63          	beqz	a4,80003f9c <main+0x3a4>
    80003e08:	00002517          	auipc	a0,0x2
    80003e0c:	eb850513          	addi	a0,a0,-328 # 80005cc0 <r+0x3c0>
    80003e10:	0e1010ef          	jal	ra,800056f0 <printf>
    80003e14:	00013c23          	sd	zero,24(sp)
    80003e18:	02048663          	beqz	s1,80003e44 <main+0x24c>
    80003e1c:	000a3703          	ld	a4,0(s4)
    80003e20:	03813783          	ld	a5,56(sp)
    80003e24:	01073703          	ld	a4,16(a4)
    80003e28:	02f70733          	mul	a4,a4,a5
    80003e2c:	02975733          	divu	a4,a4,s1
    80003e30:	0007079b          	sext.w	a5,a4
    80003e34:	00f13c23          	sd	a5,24(sp)
    80003e38:	02813783          	ld	a5,40(sp)
    80003e3c:	00f707bb          	addw	a5,a4,a5
    80003e40:	02f13423          	sd	a5,40(sp)
    80003e44:	00002517          	auipc	a0,0x2
    80003e48:	33c50513          	addi	a0,a0,828 # 80006180 <r+0x880>
    80003e4c:	0a5010ef          	jal	ra,800056f0 <printf>
    80003e50:	01013783          	ld	a5,16(sp)
    80003e54:	ee0780e3          	beqz	a5,80003d34 <main+0x13c>
    80003e58:	00048513          	mv	a0,s1
    80003e5c:	ce1ff0ef          	jal	ra,80003b3c <format_time>
    80003e60:	01813603          	ld	a2,24(sp)
    80003e64:	00050593          	mv	a1,a0
    80003e68:	0a8d0d13          	addi	s10,s10,168
    80003e6c:	00002517          	auipc	a0,0x2
    80003e70:	e7450513          	addi	a0,a0,-396 # 80005ce0 <r+0x3e0>
    80003e74:	07d010ef          	jal	ra,800056f0 <printf>
    80003e78:	edab12e3          	bne	s6,s10,80003d3c <main+0x144>
    80003e7c:	04810593          	addi	a1,sp,72
    80003e80:	00600513          	li	a0,6
    80003e84:	094010ef          	jal	ra,80004f18 <ioe_read>
    80003e88:	03013783          	ld	a5,48(sp)
    80003e8c:	04813403          	ld	s0,72(sp)
    80003e90:	00002517          	auipc	a0,0x2
    80003e94:	e6850513          	addi	a0,a0,-408 # 80005cf8 <r+0x3f8>
    80003e98:	40f40433          	sub	s0,s0,a5
    80003e9c:	055010ef          	jal	ra,800056f0 <printf>
    80003ea0:	02013783          	ld	a5,32(sp)
    80003ea4:	00002597          	auipc	a1,0x2
    80003ea8:	d0458593          	addi	a1,a1,-764 # 80005ba8 <r+0x2a8>
    80003eac:	10078463          	beqz	a5,80003fb4 <main+0x3bc>
    80003eb0:	00002517          	auipc	a0,0x2
    80003eb4:	e8050513          	addi	a0,a0,-384 # 80005d30 <r+0x430>
    80003eb8:	039010ef          	jal	ra,800056f0 <printf>
    80003ebc:	01013703          	ld	a4,16(sp)
    80003ec0:	00100793          	li	a5,1
    80003ec4:	0ee7de63          	bge	a5,a4,80003fc0 <main+0x3c8>
    80003ec8:	02813783          	ld	a5,40(sp)
    80003ecc:	00a00593          	li	a1,10
    80003ed0:	00002517          	auipc	a0,0x2
    80003ed4:	e7050513          	addi	a0,a0,-400 # 80005d40 <r+0x440>
    80003ed8:	02b7d5bb          	divuw	a1,a5,a1
    80003edc:	015010ef          	jal	ra,800056f0 <printf>
    80003ee0:	000185b7          	lui	a1,0x18
    80003ee4:	00002617          	auipc	a2,0x2
    80003ee8:	e7460613          	addi	a2,a2,-396 # 80005d58 <r+0x458>
    80003eec:	6a058593          	addi	a1,a1,1696 # 186a0 <_entry_offset+0x186a0>
    80003ef0:	00002517          	auipc	a0,0x2
    80003ef4:	e8050513          	addi	a0,a0,-384 # 80005d70 <r+0x470>
    80003ef8:	7f8010ef          	jal	ra,800056f0 <printf>
    80003efc:	00813503          	ld	a0,8(sp)
    80003f00:	c3dff0ef          	jal	ra,80003b3c <format_time>
    80003f04:	00050593          	mv	a1,a0
    80003f08:	00002517          	auipc	a0,0x2
    80003f0c:	e9050513          	addi	a0,a0,-368 # 80005d98 <r+0x498>
    80003f10:	7e0010ef          	jal	ra,800056f0 <printf>
    80003f14:	00040513          	mv	a0,s0
    80003f18:	c25ff0ef          	jal	ra,80003b3c <format_time>
    80003f1c:	00050593          	mv	a1,a0
    80003f20:	00002517          	auipc	a0,0x2
    80003f24:	e9050513          	addi	a0,a0,-368 # 80005db0 <r+0x4b0>
    80003f28:	7c8010ef          	jal	ra,800056f0 <printf>
    80003f2c:	0b813083          	ld	ra,184(sp)
    80003f30:	0b013403          	ld	s0,176(sp)
    80003f34:	0a813483          	ld	s1,168(sp)
    80003f38:	0a013903          	ld	s2,160(sp)
    80003f3c:	09813983          	ld	s3,152(sp)
    80003f40:	09013a03          	ld	s4,144(sp)
    80003f44:	08813a83          	ld	s5,136(sp)
    80003f48:	08013b03          	ld	s6,128(sp)
    80003f4c:	07813b83          	ld	s7,120(sp)
    80003f50:	07013c03          	ld	s8,112(sp)
    80003f54:	06813c83          	ld	s9,104(sp)
    80003f58:	06013d03          	ld	s10,96(sp)
    80003f5c:	05813d83          	ld	s11,88(sp)
    80003f60:	00000513          	li	a0,0
    80003f64:	0c010113          	addi	sp,sp,192
    80003f68:	00008067          	ret
    80003f6c:	00002517          	auipc	a0,0x2
    80003f70:	c4c50513          	addi	a0,a0,-948 # 80005bb8 <r+0x2b8>
    80003f74:	77c010ef          	jal	ra,800056f0 <printf>
    80003f78:	00002417          	auipc	s0,0x2
    80003f7c:	c2840413          	addi	s0,s0,-984 # 80005ba0 <r+0x2a0>
    80003f80:	cc9ff06f          	j	80003c48 <main+0x50>
    80003f84:	00002517          	auipc	a0,0x2
    80003f88:	e4450513          	addi	a0,a0,-444 # 80005dc8 <r+0x4c8>
    80003f8c:	764010ef          	jal	ra,800056f0 <printf>
    80003f90:	00813783          	ld	a5,8(sp)
    80003f94:	009787b3          	add	a5,a5,s1
    80003f98:	00f13423          	sd	a5,8(sp)
    80003f9c:	00002517          	auipc	a0,0x2
    80003fa0:	d3450513          	addi	a0,a0,-716 # 80005cd0 <r+0x3d0>
    80003fa4:	74c010ef          	jal	ra,800056f0 <printf>
    80003fa8:	02013023          	sd	zero,32(sp)
    80003fac:	00013c23          	sd	zero,24(sp)
    80003fb0:	e95ff06f          	j	80003e44 <main+0x24c>
    80003fb4:	00002597          	auipc	a1,0x2
    80003fb8:	bfc58593          	addi	a1,a1,-1028 # 80005bb0 <r+0x2b0>
    80003fbc:	ef5ff06f          	j	80003eb0 <main+0x2b8>
    80003fc0:	00002517          	auipc	a0,0x2
    80003fc4:	1c050513          	addi	a0,a0,448 # 80006180 <r+0x880>
    80003fc8:	728010ef          	jal	ra,800056f0 <printf>
    80003fcc:	f31ff06f          	j	80003efc <main+0x304>
    80003fd0:	00002597          	auipc	a1,0x2
    80003fd4:	bd058593          	addi	a1,a1,-1072 # 80005ba0 <r+0x2a0>
    80003fd8:	00040513          	mv	a0,s0
    80003fdc:	1d4010ef          	jal	ra,800051b0 <strcmp>
    80003fe0:	00200793          	li	a5,2
    80003fe4:	00f13823          	sd	a5,16(sp)
    80003fe8:	c8050ae3          	beqz	a0,80003c7c <main+0x84>
    80003fec:	00002597          	auipc	a1,0x2
    80003ff0:	c0458593          	addi	a1,a1,-1020 # 80005bf0 <r+0x2f0>
    80003ff4:	00040513          	mv	a0,s0
    80003ff8:	1b8010ef          	jal	ra,800051b0 <strcmp>
    80003ffc:	00300793          	li	a5,3
    80004000:	00f13823          	sd	a5,16(sp)
    80004004:	c6050ce3          	beqz	a0,80003c7c <main+0x84>
    80004008:	00040593          	mv	a1,s0
    8000400c:	00002517          	auipc	a0,0x2
    80004010:	bec50513          	addi	a0,a0,-1044 # 80005bf8 <r+0x2f8>
    80004014:	6dc010ef          	jal	ra,800056f0 <printf>
    80004018:	00100513          	li	a0,1
    8000401c:	5e1000ef          	jal	ra,80004dfc <halt>

0000000080004020 <bench_alloc>:
    80004020:	00003797          	auipc	a5,0x3
    80004024:	ec078793          	addi	a5,a5,-320 # 80006ee0 <hbrk>
    80004028:	0007b683          	ld	a3,0(a5)
    8000402c:	00750713          	addi	a4,a0,7
    80004030:	ff877713          	andi	a4,a4,-8
    80004034:	00e68733          	add	a4,a3,a4
    80004038:	00e7b023          	sd	a4,0(a5)
    8000403c:	00d70a63          	beq	a4,a3,80004050 <bench_alloc+0x30>
    80004040:	00068793          	mv	a5,a3
    80004044:	0007b023          	sd	zero,0(a5)
    80004048:	00878793          	addi	a5,a5,8
    8000404c:	fef71ce3          	bne	a4,a5,80004044 <bench_alloc+0x24>
    80004050:	00068513          	mv	a0,a3
    80004054:	00008067          	ret

0000000080004058 <bench_srand>:
    80004058:	03151513          	slli	a0,a0,0x31
    8000405c:	03155513          	srli	a0,a0,0x31
    80004060:	00003797          	auipc	a5,0x3
    80004064:	9ca7a423          	sw	a0,-1592(a5) # 80006a28 <seed>
    80004068:	00008067          	ret

000000008000406c <bench_rand>:
    8000406c:	00003697          	auipc	a3,0x3
    80004070:	9bc68693          	addi	a3,a3,-1604 # 80006a28 <seed>
    80004074:	0006a703          	lw	a4,0(a3)
    80004078:	000347b7          	lui	a5,0x34
    8000407c:	3fd7879b          	addiw	a5,a5,1021 # 343fd <_entry_offset+0x343fd>
    80004080:	02e787bb          	mulw	a5,a5,a4
    80004084:	0026a737          	lui	a4,0x26a
    80004088:	ec37071b          	addiw	a4,a4,-317 # 269ec3 <_entry_offset+0x269ec3>
    8000408c:	00e787bb          	addw	a5,a5,a4
    80004090:	02179513          	slli	a0,a5,0x21
    80004094:	00f6a023          	sw	a5,0(a3)
    80004098:	03155513          	srli	a0,a0,0x31
    8000409c:	00008067          	ret

00000000800040a0 <checksum>:
    800040a0:	00450613          	addi	a2,a0,4
    800040a4:	06b67463          	bgeu	a2,a1,8000410c <checksum+0x6c>
    800040a8:	811ca6b7          	lui	a3,0x811ca
    800040ac:	01000837          	lui	a6,0x1000
    800040b0:	dc568693          	addi	a3,a3,-571 # ffffffff811c9dc5 <_end+0xffffffff011badc5>
    800040b4:	1938081b          	addiw	a6,a6,403 # 1000193 <_entry_offset+0x1000193>
    800040b8:	00050793          	mv	a5,a0
    800040bc:	0007c703          	lbu	a4,0(a5)
    800040c0:	00178793          	addi	a5,a5,1
    800040c4:	00e6c733          	xor	a4,a3,a4
    800040c8:	02e806bb          	mulw	a3,a6,a4
    800040cc:	fef618e3          	bne	a2,a5,800040bc <checksum+0x1c>
    800040d0:	00460613          	addi	a2,a2,4
    800040d4:	00450513          	addi	a0,a0,4
    800040d8:	feb660e3          	bltu	a2,a1,800040b8 <checksum+0x18>
    800040dc:	013267b7          	lui	a5,0x1326
    800040e0:	1937879b          	addiw	a5,a5,403 # 1326193 <_entry_offset+0x1326193>
    800040e4:	02f707bb          	mulw	a5,a4,a5
    800040e8:	4077d71b          	sraiw	a4,a5,0x7
    800040ec:	00e7c733          	xor	a4,a5,a4
    800040f0:	0037179b          	slliw	a5,a4,0x3
    800040f4:	00e7873b          	addw	a4,a5,a4
    800040f8:	4117579b          	sraiw	a5,a4,0x11
    800040fc:	00f747b3          	xor	a5,a4,a5
    80004100:	0057951b          	slliw	a0,a5,0x5
    80004104:	00f5053b          	addw	a0,a0,a5
    80004108:	00008067          	ret
    8000410c:	a6f00537          	lui	a0,0xa6f00
    80004110:	79e50513          	addi	a0,a0,1950 # ffffffffa6f0079e <_end+0xffffffff26ef179e>
    80004114:	00008067          	ret

0000000080004118 <bench_sieve_prepare>:
    80004118:	00003797          	auipc	a5,0x3
    8000411c:	dd07b783          	ld	a5,-560(a5) # 80006ee8 <setting>
    80004120:	0007a783          	lw	a5,0(a5)
    80004124:	ff010113          	addi	sp,sp,-16
    80004128:	00813023          	sd	s0,0(sp)
    8000412c:	41f7d51b          	sraiw	a0,a5,0x1f
    80004130:	01d5551b          	srliw	a0,a0,0x1d
    80004134:	00f5053b          	addw	a0,a0,a5
    80004138:	4035551b          	sraiw	a0,a0,0x3
    8000413c:	00003417          	auipc	s0,0x3
    80004140:	db440413          	addi	s0,s0,-588 # 80006ef0 <N>
    80004144:	0805051b          	addiw	a0,a0,128
    80004148:	00f42023          	sw	a5,0(s0)
    8000414c:	00113423          	sd	ra,8(sp)
    80004150:	ed1ff0ef          	jal	ra,80004020 <bench_alloc>
    80004154:	00042783          	lw	a5,0(s0)
    80004158:	00003717          	auipc	a4,0x3
    8000415c:	daa73023          	sd	a0,-608(a4) # 80006ef8 <primes>
    80004160:	fe100693          	li	a3,-31
    80004164:	41f7d71b          	sraiw	a4,a5,0x1f
    80004168:	01b7571b          	srliw	a4,a4,0x1b
    8000416c:	00f7073b          	addw	a4,a4,a5
    80004170:	02d7c063          	blt	a5,a3,80004190 <bench_sieve_prepare+0x78>
    80004174:	4057571b          	sraiw	a4,a4,0x5
    80004178:	00000793          	li	a5,0
    8000417c:	fff00693          	li	a3,-1
    80004180:	00d52023          	sw	a3,0(a0)
    80004184:	0017879b          	addiw	a5,a5,1
    80004188:	00450513          	addi	a0,a0,4
    8000418c:	fef75ae3          	bge	a4,a5,80004180 <bench_sieve_prepare+0x68>
    80004190:	00813083          	ld	ra,8(sp)
    80004194:	00013403          	ld	s0,0(sp)
    80004198:	01010113          	addi	sp,sp,16
    8000419c:	00008067          	ret

00000000800041a0 <bench_sieve_run>:
    800041a0:	00003597          	auipc	a1,0x3
    800041a4:	d505a583          	lw	a1,-688(a1) # 80006ef0 <N>
    800041a8:	12b05263          	blez	a1,800042cc <bench_sieve_run+0x12c>
    800041ac:	00003617          	auipc	a2,0x3
    800041b0:	d4c60613          	addi	a2,a2,-692 # 80006ef8 <primes>
    800041b4:	00063683          	ld	a3,0(a2)
    800041b8:	0006a783          	lw	a5,0(a3)
    800041bc:	0017d79b          	srliw	a5,a5,0x1
    800041c0:	0017f793          	andi	a5,a5,1
    800041c4:	00079c63          	bnez	a5,800041dc <bench_sieve_run+0x3c>
    800041c8:	1180006f          	j	800042e0 <bench_sieve_run+0x140>
    800041cc:	00072703          	lw	a4,0(a4)
    800041d0:	00f7573b          	srlw	a4,a4,a5
    800041d4:	00177713          	andi	a4,a4,1
    800041d8:	10070263          	beqz	a4,800042dc <bench_sieve_run+0x13c>
    800041dc:	0017879b          	addiw	a5,a5,1
    800041e0:	4057d71b          	sraiw	a4,a5,0x5
    800041e4:	00271713          	slli	a4,a4,0x2
    800041e8:	00e68733          	add	a4,a3,a4
    800041ec:	fef5d0e3          	bge	a1,a5,800041cc <bench_sieve_run+0x2c>
    800041f0:	00300793          	li	a5,3
    800041f4:	0cb7dc63          	bge	a5,a1,800042cc <bench_sieve_run+0x12c>
    800041f8:	00063803          	ld	a6,0(a2)
    800041fc:	00400893          	li	a7,4
    80004200:	00200613          	li	a2,2
    80004204:	00100313          	li	t1,1
    80004208:	0140006f          	j	8000421c <bench_sieve_run+0x7c>
    8000420c:	0016061b          	addiw	a2,a2,1
    80004210:	02c607bb          	mulw	a5,a2,a2
    80004214:	0028889b          	addiw	a7,a7,2
    80004218:	06f5c263          	blt	a1,a5,8000427c <bench_sieve_run+0xdc>
    8000421c:	40565793          	srai	a5,a2,0x5
    80004220:	00279793          	slli	a5,a5,0x2
    80004224:	00f807b3          	add	a5,a6,a5
    80004228:	0007a783          	lw	a5,0(a5)
    8000422c:	00c7d7bb          	srlw	a5,a5,a2
    80004230:	0017f793          	andi	a5,a5,1
    80004234:	fc078ce3          	beqz	a5,8000420c <bench_sieve_run+0x6c>
    80004238:	0008869b          	sext.w	a3,a7
    8000423c:	fd15c8e3          	blt	a1,a7,8000420c <bench_sieve_run+0x6c>
    80004240:	4056d713          	srai	a4,a3,0x5
    80004244:	00271713          	slli	a4,a4,0x2
    80004248:	00e80733          	add	a4,a6,a4
    8000424c:	00072503          	lw	a0,0(a4)
    80004250:	01f6f793          	andi	a5,a3,31
    80004254:	00f317b3          	sll	a5,t1,a5
    80004258:	fff7c793          	not	a5,a5
    8000425c:	00a7f7b3          	and	a5,a5,a0
    80004260:	00f72023          	sw	a5,0(a4)
    80004264:	00d606bb          	addw	a3,a2,a3
    80004268:	fcd5dce3          	bge	a1,a3,80004240 <bench_sieve_run+0xa0>
    8000426c:	0016061b          	addiw	a2,a2,1
    80004270:	02c607bb          	mulw	a5,a2,a2
    80004274:	0028889b          	addiw	a7,a7,2
    80004278:	faf5d2e3          	bge	a1,a5,8000421c <bench_sieve_run+0x7c>
    8000427c:	00003797          	auipc	a5,0x3
    80004280:	c607ac23          	sw	zero,-904(a5) # 80006ef4 <ans>
    80004284:	00000613          	li	a2,0
    80004288:	00000693          	li	a3,0
    8000428c:	00200713          	li	a4,2
    80004290:	40575793          	srai	a5,a4,0x5
    80004294:	00279793          	slli	a5,a5,0x2
    80004298:	00f807b3          	add	a5,a6,a5
    8000429c:	0007a783          	lw	a5,0(a5)
    800042a0:	00e7d7bb          	srlw	a5,a5,a4
    800042a4:	0017f793          	andi	a5,a5,1
    800042a8:	0017071b          	addiw	a4,a4,1
    800042ac:	00078663          	beqz	a5,800042b8 <bench_sieve_run+0x118>
    800042b0:	0016869b          	addiw	a3,a3,1
    800042b4:	00100613          	li	a2,1
    800042b8:	fce5dce3          	bge	a1,a4,80004290 <bench_sieve_run+0xf0>
    800042bc:	02060063          	beqz	a2,800042dc <bench_sieve_run+0x13c>
    800042c0:	00003797          	auipc	a5,0x3
    800042c4:	c2d7aa23          	sw	a3,-972(a5) # 80006ef4 <ans>
    800042c8:	00008067          	ret
    800042cc:	00003797          	auipc	a5,0x3
    800042d0:	c207a423          	sw	zero,-984(a5) # 80006ef4 <ans>
    800042d4:	00100793          	li	a5,1
    800042d8:	00b7c663          	blt	a5,a1,800042e4 <bench_sieve_run+0x144>
    800042dc:	00008067          	ret
    800042e0:	00008067          	ret
    800042e4:	00003817          	auipc	a6,0x3
    800042e8:	c1483803          	ld	a6,-1004(a6) # 80006ef8 <primes>
    800042ec:	f99ff06f          	j	80004284 <bench_sieve_run+0xe4>

00000000800042f0 <bench_sieve_validate>:
    800042f0:	00003797          	auipc	a5,0x3
    800042f4:	bf87b783          	ld	a5,-1032(a5) # 80006ee8 <setting>
    800042f8:	0187a503          	lw	a0,24(a5)
    800042fc:	00003797          	auipc	a5,0x3
    80004300:	bf87a783          	lw	a5,-1032(a5) # 80006ef4 <ans>
    80004304:	40f50533          	sub	a0,a0,a5
    80004308:	00153513          	seqz	a0,a0
    8000430c:	00008067          	ret

0000000080004310 <bench_bf_prepare>:
    80004310:	00003797          	auipc	a5,0x3
    80004314:	bd87b783          	ld	a5,-1064(a5) # 80006ee8 <setting>
    80004318:	0007a783          	lw	a5,0(a5)
    8000431c:	fd010113          	addi	sp,sp,-48
    80004320:	00913c23          	sd	s1,24(sp)
    80004324:	00004537          	lui	a0,0x4
    80004328:	00003497          	auipc	s1,0x3
    8000432c:	bd848493          	addi	s1,s1,-1064 # 80006f00 <ARR_SIZE>
    80004330:	02113423          	sd	ra,40(sp)
    80004334:	00f4a023          	sw	a5,0(s1)
    80004338:	01413023          	sd	s4,0(sp)
    8000433c:	00003797          	auipc	a5,0x3
    80004340:	bc07aa23          	sw	zero,-1068(a5) # 80006f10 <SP>
    80004344:	02813023          	sd	s0,32(sp)
    80004348:	01213823          	sd	s2,16(sp)
    8000434c:	01313423          	sd	s3,8(sp)
    80004350:	cd1ff0ef          	jal	ra,80004020 <bench_alloc>
    80004354:	00050793          	mv	a5,a0
    80004358:	40000513          	li	a0,1024
    8000435c:	00003717          	auipc	a4,0x3
    80004360:	baf73623          	sd	a5,-1108(a4) # 80006f08 <PROGRAM>
    80004364:	cbdff0ef          	jal	ra,80004020 <bench_alloc>
    80004368:	00050793          	mv	a5,a0
    8000436c:	00002537          	lui	a0,0x2
    80004370:	00003717          	auipc	a4,0x3
    80004374:	baf73423          	sd	a5,-1112(a4) # 80006f18 <STACK>
    80004378:	ca9ff0ef          	jal	ra,80004020 <bench_alloc>
    8000437c:	0004a783          	lw	a5,0(s1)
    80004380:	00003717          	auipc	a4,0x3
    80004384:	baa73423          	sd	a0,-1112(a4) # 80006f28 <data>
    80004388:	00003a17          	auipc	s4,0x3
    8000438c:	ba8a0a13          	addi	s4,s4,-1112 # 80006f30 <input>
    80004390:	0017851b          	addiw	a0,a5,1
    80004394:	00002797          	auipc	a5,0x2
    80004398:	b6478793          	addi	a5,a5,-1180 # 80005ef8 <r+0x5f8>
    8000439c:	00003717          	auipc	a4,0x3
    800043a0:	b8f73223          	sd	a5,-1148(a4) # 80006f20 <code>
    800043a4:	c7dff0ef          	jal	ra,80004020 <bench_alloc>
    800043a8:	00050793          	mv	a5,a0
    800043ac:	00001537          	lui	a0,0x1
    800043b0:	00fa3023          	sd	a5,0(s4)
    800043b4:	c6dff0ef          	jal	ra,80004020 <bench_alloc>
    800043b8:	00050793          	mv	a5,a0
    800043bc:	00100513          	li	a0,1
    800043c0:	00003717          	auipc	a4,0x3
    800043c4:	b8f73023          	sd	a5,-1152(a4) # 80006f40 <output>
    800043c8:	00003797          	auipc	a5,0x3
    800043cc:	b607a823          	sw	zero,-1168(a5) # 80006f38 <noutput>
    800043d0:	c89ff0ef          	jal	ra,80004058 <bench_srand>
    800043d4:	0004a783          	lw	a5,0(s1)
    800043d8:	04f05463          	blez	a5,80004420 <bench_bf_prepare+0x110>
    800043dc:	00000413          	li	s0,0
    800043e0:	00002997          	auipc	s3,0x2
    800043e4:	bd098993          	addi	s3,s3,-1072 # 80005fb0 <r+0x6b0>
    800043e8:	03e00913          	li	s2,62
    800043ec:	c81ff0ef          	jal	ra,8000406c <bench_rand>
    800043f0:	0325753b          	remuw	a0,a0,s2
    800043f4:	000a3783          	ld	a5,0(s4)
    800043f8:	0004a683          	lw	a3,0(s1)
    800043fc:	008787b3          	add	a5,a5,s0
    80004400:	00140413          	addi	s0,s0,1
    80004404:	0004071b          	sext.w	a4,s0
    80004408:	02051513          	slli	a0,a0,0x20
    8000440c:	02055513          	srli	a0,a0,0x20
    80004410:	00a98533          	add	a0,s3,a0
    80004414:	00054603          	lbu	a2,0(a0) # 1000 <_entry_offset+0x1000>
    80004418:	00c78023          	sb	a2,0(a5)
    8000441c:	fcd748e3          	blt	a4,a3,800043ec <bench_bf_prepare+0xdc>
    80004420:	02813083          	ld	ra,40(sp)
    80004424:	02013403          	ld	s0,32(sp)
    80004428:	01813483          	ld	s1,24(sp)
    8000442c:	01013903          	ld	s2,16(sp)
    80004430:	00813983          	ld	s3,8(sp)
    80004434:	00013a03          	ld	s4,0(sp)
    80004438:	03010113          	addi	sp,sp,48
    8000443c:	00008067          	ret

0000000080004440 <bench_bf_run>:
    80004440:	00003f97          	auipc	t6,0x3
    80004444:	ae0f8f93          	addi	t6,t6,-1312 # 80006f20 <code>
    80004448:	000fb683          	ld	a3,0(t6)
    8000444c:	fb010113          	addi	sp,sp,-80
    80004450:	01613c23          	sd	s6,24(sp)
    80004454:	01813423          	sd	s8,8(sp)
    80004458:	04813423          	sd	s0,72(sp)
    8000445c:	04913023          	sd	s1,64(sp)
    80004460:	03213c23          	sd	s2,56(sp)
    80004464:	03313823          	sd	s3,48(sp)
    80004468:	03413423          	sd	s4,40(sp)
    8000446c:	03513023          	sd	s5,32(sp)
    80004470:	01713823          	sd	s7,16(sp)
    80004474:	0006c783          	lbu	a5,0(a3)
    80004478:	00003c17          	auipc	s8,0x3
    8000447c:	a98c0c13          	addi	s8,s8,-1384 # 80006f10 <SP>
    80004480:	000c2b03          	lw	s6,0(s8)
    80004484:	00003617          	auipc	a2,0x3
    80004488:	a8463603          	ld	a2,-1404(a2) # 80006f08 <PROGRAM>
    8000448c:	3a078263          	beqz	a5,80004830 <bench_bf_run+0x3f0>
    80004490:	00003f17          	auipc	t5,0x3
    80004494:	a88f3f03          	ld	t5,-1400(t5) # 80006f18 <STACK>
    80004498:	00168693          	addi	a3,a3,1
    8000449c:	000b0513          	mv	a0,s6
    800044a0:	00000893          	li	a7,0
    800044a4:	00000e93          	li	t4,0
    800044a8:	00000713          	li	a4,0
    800044ac:	03200813          	li	a6,50
    800044b0:	00002597          	auipc	a1,0x2
    800044b4:	b4058593          	addi	a1,a1,-1216 # 80005ff0 <r+0x6f0>
    800044b8:	00001e37          	lui	t3,0x1
    800044bc:	00800b93          	li	s7,8
    800044c0:	00100a93          	li	s5,1
    800044c4:	00700a13          	li	s4,7
    800044c8:	20000993          	li	s3,512
    800044cc:	00600913          	li	s2,6
    800044d0:	00500493          	li	s1,5
    800044d4:	00400413          	li	s0,4
    800044d8:	00300393          	li	t2,3
    800044dc:	00200293          	li	t0,2
    800044e0:	fd57879b          	addiw	a5,a5,-43
    800044e4:	0ff7f793          	zext.b	a5,a5
    800044e8:	00f86c63          	bltu	a6,a5,80004500 <bench_bf_run+0xc0>
    800044ec:	00279793          	slli	a5,a5,0x2
    800044f0:	00b787b3          	add	a5,a5,a1
    800044f4:	0007a783          	lw	a5,0(a5)
    800044f8:	00b787b3          	add	a5,a5,a1
    800044fc:	00078067          	jr	a5
    80004500:	0006c783          	lbu	a5,0(a3)
    80004504:	00068313          	mv	t1,a3
    80004508:	10078e63          	beqz	a5,80004624 <bench_bf_run+0x1e4>
    8000450c:	00168693          	addi	a3,a3,1
    80004510:	00100893          	li	a7,1
    80004514:	fcdff06f          	j	800044e0 <bench_bf_run+0xa0>
    80004518:	2e050463          	beqz	a0,80004800 <bench_bf_run+0x3c0>
    8000451c:	fff5051b          	addiw	a0,a0,-1
    80004520:	02051893          	slli	a7,a0,0x20
    80004524:	01f8d793          	srli	a5,a7,0x1f
    80004528:	00ff07b3          	add	a5,t5,a5
    8000452c:	0007d303          	lhu	t1,0(a5)
    80004530:	00271793          	slli	a5,a4,0x2
    80004534:	00f607b3          	add	a5,a2,a5
    80004538:	00231893          	slli	a7,t1,0x2
    8000453c:	00679123          	sh	t1,2(a5)
    80004540:	01779023          	sh	s7,0(a5)
    80004544:	011607b3          	add	a5,a2,a7
    80004548:	00e79123          	sh	a4,2(a5)
    8000454c:	00100e93          	li	t4,1
    80004550:	0006c783          	lbu	a5,0(a3)
    80004554:	0017071b          	addiw	a4,a4,1
    80004558:	03071713          	slli	a4,a4,0x30
    8000455c:	03075713          	srli	a4,a4,0x30
    80004560:	00068313          	mv	t1,a3
    80004564:	0c078063          	beqz	a5,80004624 <bench_bf_run+0x1e4>
    80004568:	fbc712e3          	bne	a4,t3,8000450c <bench_bf_run+0xcc>
    8000456c:	00dfb023          	sd	a3,0(t6)
    80004570:	000e8463          	beqz	t4,80004578 <bench_bf_run+0x138>
    80004574:	00ac2023          	sw	a0,0(s8)
    80004578:	00065783          	lhu	a5,0(a2)
    8000457c:	16078e63          	beqz	a5,800046f8 <bench_bf_run+0x2b8>
    80004580:	00003f17          	auipc	t5,0x3
    80004584:	9b0f0f13          	addi	t5,t5,-1616 # 80006f30 <input>
    80004588:	00003f97          	auipc	t6,0x3
    8000458c:	9b0f8f93          	addi	t6,t6,-1616 # 80006f38 <noutput>
    80004590:	000f3303          	ld	t1,0(t5)
    80004594:	000fae03          	lw	t3,0(t6)
    80004598:	00003897          	auipc	a7,0x3
    8000459c:	9908b883          	ld	a7,-1648(a7) # 80006f28 <data>
    800045a0:	00003417          	auipc	s0,0x3
    800045a4:	9a043403          	ld	s0,-1632(s0) # 80006f40 <output>
    800045a8:	00060693          	mv	a3,a2
    800045ac:	00000e93          	li	t4,0
    800045b0:	00000293          	li	t0,0
    800045b4:	00000713          	li	a4,0
    800045b8:	00000513          	li	a0,0
    800045bc:	00800813          	li	a6,8
    800045c0:	00002597          	auipc	a1,0x2
    800045c4:	afc58593          	addi	a1,a1,-1284 # 800060bc <r+0x7bc>
    800045c8:	000013b7          	lui	t2,0x1
    800045cc:	10f86e63          	bltu	a6,a5,800046e8 <bench_bf_run+0x2a8>
    800045d0:	00279793          	slli	a5,a5,0x2
    800045d4:	00b787b3          	add	a5,a5,a1
    800045d8:	0007a783          	lw	a5,0(a5)
    800045dc:	00b787b3          	add	a5,a5,a1
    800045e0:	00078067          	jr	a5
    800045e4:	00271793          	slli	a5,a4,0x2
    800045e8:	00f607b3          	add	a5,a2,a5
    800045ec:	01479023          	sh	s4,0(a5)
    800045f0:	23350463          	beq	a0,s3,80004818 <bench_bf_run+0x3d8>
    800045f4:	02051893          	slli	a7,a0,0x20
    800045f8:	01f8d793          	srli	a5,a7,0x1f
    800045fc:	00ff07b3          	add	a5,t5,a5
    80004600:	00e79023          	sh	a4,0(a5)
    80004604:	0006c783          	lbu	a5,0(a3)
    80004608:	0017071b          	addiw	a4,a4,1
    8000460c:	03071713          	slli	a4,a4,0x30
    80004610:	0015051b          	addiw	a0,a0,1
    80004614:	00100e93          	li	t4,1
    80004618:	03075713          	srli	a4,a4,0x30
    8000461c:	00068313          	mv	t1,a3
    80004620:	f40794e3          	bnez	a5,80004568 <bench_bf_run+0x128>
    80004624:	00dfb023          	sd	a3,0(t6)
    80004628:	000e8663          	beqz	t4,80004634 <bench_bf_run+0x1f4>
    8000462c:	00ac2023          	sw	a0,0(s8)
    80004630:	00050b13          	mv	s6,a0
    80004634:	f40b12e3          	bnez	s6,80004578 <bench_bf_run+0x138>
    80004638:	000017b7          	lui	a5,0x1
    8000463c:	f2f70ee3          	beq	a4,a5,80004578 <bench_bf_run+0x138>
    80004640:	00271713          	slli	a4,a4,0x2
    80004644:	00e60733          	add	a4,a2,a4
    80004648:	00071023          	sh	zero,0(a4)
    8000464c:	00065783          	lhu	a5,0(a2)
    80004650:	f20798e3          	bnez	a5,80004580 <bench_bf_run+0x140>
    80004654:	0a40006f          	j	800046f8 <bench_bf_run+0x2b8>
    80004658:	00271793          	slli	a5,a4,0x2
    8000465c:	00f607b3          	add	a5,a2,a5
    80004660:	01579023          	sh	s5,0(a5) # 1000 <_entry_offset+0x1000>
    80004664:	eedff06f          	j	80004550 <bench_bf_run+0x110>
    80004668:	00271793          	slli	a5,a4,0x2
    8000466c:	00f607b3          	add	a5,a2,a5
    80004670:	00579023          	sh	t0,0(a5)
    80004674:	eddff06f          	j	80004550 <bench_bf_run+0x110>
    80004678:	00271793          	slli	a5,a4,0x2
    8000467c:	00f607b3          	add	a5,a2,a5
    80004680:	00979023          	sh	s1,0(a5)
    80004684:	ecdff06f          	j	80004550 <bench_bf_run+0x110>
    80004688:	00271793          	slli	a5,a4,0x2
    8000468c:	00f607b3          	add	a5,a2,a5
    80004690:	00879023          	sh	s0,0(a5)
    80004694:	ebdff06f          	j	80004550 <bench_bf_run+0x110>
    80004698:	00271793          	slli	a5,a4,0x2
    8000469c:	00f607b3          	add	a5,a2,a5
    800046a0:	01279023          	sh	s2,0(a5)
    800046a4:	eadff06f          	j	80004550 <bench_bf_run+0x110>
    800046a8:	00271793          	slli	a5,a4,0x2
    800046ac:	00f607b3          	add	a5,a2,a5
    800046b0:	00779023          	sh	t2,0(a5)
    800046b4:	e9dff06f          	j	80004550 <bench_bf_run+0x110>
    800046b8:	02051493          	slli	s1,a0,0x20
    800046bc:	01f4d793          	srli	a5,s1,0x1f
    800046c0:	00f887b3          	add	a5,a7,a5
    800046c4:	0007d783          	lhu	a5,0(a5)
    800046c8:	08078a63          	beqz	a5,8000475c <bench_bf_run+0x31c>
    800046cc:	0026d703          	lhu	a4,2(a3)
    800046d0:	0017071b          	addiw	a4,a4,1
    800046d4:	02071793          	slli	a5,a4,0x20
    800046d8:	01e7d693          	srli	a3,a5,0x1e
    800046dc:	00d606b3          	add	a3,a2,a3
    800046e0:	0006d783          	lhu	a5,0(a3)
    800046e4:	ee0794e3          	bnez	a5,800045cc <bench_bf_run+0x18c>
    800046e8:	000e8463          	beqz	t4,800046f0 <bench_bf_run+0x2b0>
    800046ec:	006f3023          	sd	t1,0(t5)
    800046f0:	00028463          	beqz	t0,800046f8 <bench_bf_run+0x2b8>
    800046f4:	01cfa023          	sw	t3,0(t6)
    800046f8:	04813403          	ld	s0,72(sp)
    800046fc:	04013483          	ld	s1,64(sp)
    80004700:	03813903          	ld	s2,56(sp)
    80004704:	03013983          	ld	s3,48(sp)
    80004708:	02813a03          	ld	s4,40(sp)
    8000470c:	02013a83          	ld	s5,32(sp)
    80004710:	01813b03          	ld	s6,24(sp)
    80004714:	01013b83          	ld	s7,16(sp)
    80004718:	00813c03          	ld	s8,8(sp)
    8000471c:	05010113          	addi	sp,sp,80
    80004720:	00008067          	ret
    80004724:	02051493          	slli	s1,a0,0x20
    80004728:	01f4d793          	srli	a5,s1,0x1f
    8000472c:	00f887b3          	add	a5,a7,a5
    80004730:	0007d783          	lhu	a5,0(a5)
    80004734:	02079463          	bnez	a5,8000475c <bench_bf_run+0x31c>
    80004738:	0026d703          	lhu	a4,2(a3)
    8000473c:	f95ff06f          	j	800046d0 <bench_bf_run+0x290>
    80004740:	00034683          	lbu	a3,0(t1)
    80004744:	02051e93          	slli	t4,a0,0x20
    80004748:	01fed793          	srli	a5,t4,0x1f
    8000474c:	00f887b3          	add	a5,a7,a5
    80004750:	00d79023          	sh	a3,0(a5)
    80004754:	00130313          	addi	t1,t1,1
    80004758:	00100e93          	li	t4,1
    8000475c:	0017071b          	addiw	a4,a4,1
    80004760:	02071793          	slli	a5,a4,0x20
    80004764:	01e7d693          	srli	a3,a5,0x1e
    80004768:	00d606b3          	add	a3,a2,a3
    8000476c:	0006d783          	lhu	a5,0(a3)
    80004770:	e4079ee3          	bnez	a5,800045cc <bench_bf_run+0x18c>
    80004774:	f75ff06f          	j	800046e8 <bench_bf_run+0x2a8>
    80004778:	02051693          	slli	a3,a0,0x20
    8000477c:	01f6d793          	srli	a5,a3,0x1f
    80004780:	00f887b3          	add	a5,a7,a5
    80004784:	0007d683          	lhu	a3,0(a5)
    80004788:	fff6869b          	addiw	a3,a3,-1
    8000478c:	00d79023          	sh	a3,0(a5)
    80004790:	fcdff06f          	j	8000475c <bench_bf_run+0x31c>
    80004794:	02051693          	slli	a3,a0,0x20
    80004798:	01f6d793          	srli	a5,a3,0x1f
    8000479c:	00f887b3          	add	a5,a7,a5
    800047a0:	0007d683          	lhu	a3,0(a5)
    800047a4:	01c407b3          	add	a5,s0,t3
    800047a8:	00100293          	li	t0,1
    800047ac:	00d78023          	sb	a3,0(a5)
    800047b0:	001e0e1b          	addiw	t3,t3,1 # 1001 <_entry_offset+0x1001>
    800047b4:	fa9ff06f          	j	8000475c <bench_bf_run+0x31c>
    800047b8:	02051693          	slli	a3,a0,0x20
    800047bc:	01f6d793          	srli	a5,a3,0x1f
    800047c0:	00f887b3          	add	a5,a7,a5
    800047c4:	0007d683          	lhu	a3,0(a5)
    800047c8:	0016869b          	addiw	a3,a3,1
    800047cc:	00d79023          	sh	a3,0(a5)
    800047d0:	f8dff06f          	j	8000475c <bench_bf_run+0x31c>
    800047d4:	fff5051b          	addiw	a0,a0,-1
    800047d8:	0017071b          	addiw	a4,a4,1
    800047dc:	02071793          	slli	a5,a4,0x20
    800047e0:	01e7d693          	srli	a3,a5,0x1e
    800047e4:	00d606b3          	add	a3,a2,a3
    800047e8:	0006d783          	lhu	a5,0(a3)
    800047ec:	ee078ee3          	beqz	a5,800046e8 <bench_bf_run+0x2a8>
    800047f0:	dc756ee3          	bltu	a0,t2,800045cc <bench_bf_run+0x18c>
    800047f4:	ef5ff06f          	j	800046e8 <bench_bf_run+0x2a8>
    800047f8:	0015051b          	addiw	a0,a0,1
    800047fc:	fddff06f          	j	800047d8 <bench_bf_run+0x398>
    80004800:	00088463          	beqz	a7,80004808 <bench_bf_run+0x3c8>
    80004804:	006fb023          	sd	t1,0(t6)
    80004808:	d60e88e3          	beqz	t4,80004578 <bench_bf_run+0x138>
    8000480c:	00002797          	auipc	a5,0x2
    80004810:	7007a223          	sw	zero,1796(a5) # 80006f10 <SP>
    80004814:	d65ff06f          	j	80004578 <bench_bf_run+0x138>
    80004818:	00088463          	beqz	a7,80004820 <bench_bf_run+0x3e0>
    8000481c:	006fb023          	sd	t1,0(t6)
    80004820:	d40e8ce3          	beqz	t4,80004578 <bench_bf_run+0x138>
    80004824:	20000793          	li	a5,512
    80004828:	00fc2023          	sw	a5,0(s8)
    8000482c:	d4dff06f          	j	80004578 <bench_bf_run+0x138>
    80004830:	00060713          	mv	a4,a2
    80004834:	e00b0ae3          	beqz	s6,80004648 <bench_bf_run+0x208>
    80004838:	d41ff06f          	j	80004578 <bench_bf_run+0x138>

000000008000483c <bench_bf_validate>:
    8000483c:	ff010113          	addi	sp,sp,-16
    80004840:	00813023          	sd	s0,0(sp)
    80004844:	00002417          	auipc	s0,0x2
    80004848:	6f440413          	addi	s0,s0,1780 # 80006f38 <noutput>
    8000484c:	00042583          	lw	a1,0(s0)
    80004850:	00002517          	auipc	a0,0x2
    80004854:	6f053503          	ld	a0,1776(a0) # 80006f40 <output>
    80004858:	00113423          	sd	ra,8(sp)
    8000485c:	00b505b3          	add	a1,a0,a1
    80004860:	841ff0ef          	jal	ra,800040a0 <checksum>
    80004864:	00042683          	lw	a3,0(s0)
    80004868:	00002717          	auipc	a4,0x2
    8000486c:	69872703          	lw	a4,1688(a4) # 80006f00 <ARR_SIZE>
    80004870:	00e68c63          	beq	a3,a4,80004888 <bench_bf_validate+0x4c>
    80004874:	00813083          	ld	ra,8(sp)
    80004878:	00013403          	ld	s0,0(sp)
    8000487c:	00000513          	li	a0,0
    80004880:	01010113          	addi	sp,sp,16
    80004884:	00008067          	ret
    80004888:	00002717          	auipc	a4,0x2
    8000488c:	66073703          	ld	a4,1632(a4) # 80006ee8 <setting>
    80004890:	0005079b          	sext.w	a5,a0
    80004894:	01872503          	lw	a0,24(a4)
    80004898:	00813083          	ld	ra,8(sp)
    8000489c:	00013403          	ld	s0,0(sp)
    800048a0:	40f50533          	sub	a0,a0,a5
    800048a4:	00153513          	seqz	a0,a0
    800048a8:	01010113          	addi	sp,sp,16
    800048ac:	00008067          	ret

00000000800048b0 <bench_fib_prepare>:
    800048b0:	00002797          	auipc	a5,0x2
    800048b4:	6387b783          	ld	a5,1592(a5) # 80006ee8 <setting>
    800048b8:	0007a783          	lw	a5,0(a5)
    800048bc:	ff010113          	addi	sp,sp,-16
    800048c0:	00813023          	sd	s0,0(sp)
    800048c4:	02f7843b          	mulw	s0,a5,a5
    800048c8:	00113423          	sd	ra,8(sp)
    800048cc:	00002717          	auipc	a4,0x2
    800048d0:	68f72223          	sw	a5,1668(a4) # 80006f50 <M>
    800048d4:	0024141b          	slliw	s0,s0,0x2
    800048d8:	00040513          	mv	a0,s0
    800048dc:	f44ff0ef          	jal	ra,80004020 <bench_alloc>
    800048e0:	00050793          	mv	a5,a0
    800048e4:	00040513          	mv	a0,s0
    800048e8:	00002717          	auipc	a4,0x2
    800048ec:	66f73023          	sd	a5,1632(a4) # 80006f48 <A>
    800048f0:	f30ff0ef          	jal	ra,80004020 <bench_alloc>
    800048f4:	00050793          	mv	a5,a0
    800048f8:	00040513          	mv	a0,s0
    800048fc:	00002717          	auipc	a4,0x2
    80004900:	64f73e23          	sd	a5,1628(a4) # 80006f58 <T>
    80004904:	f1cff0ef          	jal	ra,80004020 <bench_alloc>
    80004908:	00050793          	mv	a5,a0
    8000490c:	00040513          	mv	a0,s0
    80004910:	00002717          	auipc	a4,0x2
    80004914:	64f73823          	sd	a5,1616(a4) # 80006f60 <ans>
    80004918:	f08ff0ef          	jal	ra,80004020 <bench_alloc>
    8000491c:	00813083          	ld	ra,8(sp)
    80004920:	00013403          	ld	s0,0(sp)
    80004924:	00002797          	auipc	a5,0x2
    80004928:	64a7b223          	sd	a0,1604(a5) # 80006f68 <tmp>
    8000492c:	01010113          	addi	sp,sp,16
    80004930:	00008067          	ret

0000000080004934 <bench_fib_run>:
    80004934:	fc010113          	addi	sp,sp,-64
    80004938:	02813c23          	sd	s0,56(sp)
    8000493c:	02913823          	sd	s1,48(sp)
    80004940:	03213423          	sd	s2,40(sp)
    80004944:	03313023          	sd	s3,32(sp)
    80004948:	01413c23          	sd	s4,24(sp)
    8000494c:	01513823          	sd	s5,16(sp)
    80004950:	01613423          	sd	s6,8(sp)
    80004954:	00002317          	auipc	t1,0x2
    80004958:	5fc32303          	lw	t1,1532(t1) # 80006f50 <M>
    8000495c:	00002e17          	auipc	t3,0x2
    80004960:	5fce3e03          	ld	t3,1532(t3) # 80006f58 <T>
    80004964:	00002e97          	auipc	t4,0x2
    80004968:	5fcebe83          	ld	t4,1532(t4) # 80006f60 <ans>
    8000496c:	24605663          	blez	t1,80004bb8 <bench_fib_run+0x284>
    80004970:	fff3059b          	addiw	a1,t1,-1
    80004974:	00002997          	auipc	s3,0x2
    80004978:	5d49b983          	ld	s3,1492(s3) # 80006f48 <A>
    8000497c:	0005891b          	sext.w	s2,a1
    80004980:	00231813          	slli	a6,t1,0x2
    80004984:	00000493          	li	s1,0
    80004988:	00000413          	li	s0,0
    8000498c:	00000513          	li	a0,0
    80004990:	0015051b          	addiw	a0,a0,1
    80004994:	00048713          	mv	a4,s1
    80004998:	00000793          	li	a5,0
    8000499c:	0004089b          	sext.w	a7,s0
    800049a0:	411786b3          	sub	a3,a5,a7
    800049a4:	40a783b3          	sub	t2,a5,a0
    800049a8:	00e982b3          	add	t0,s3,a4
    800049ac:	00ee0fb3          	add	t6,t3,a4
    800049b0:	00ee8f33          	add	t5,t4,a4
    800049b4:	0016b693          	seqz	a3,a3
    800049b8:	0017879b          	addiw	a5,a5,1
    800049bc:	00100613          	li	a2,1
    800049c0:	01190463          	beq	s2,a7,800049c8 <bench_fib_run+0x94>
    800049c4:	0013b613          	seqz	a2,t2
    800049c8:	00c2a023          	sw	a2,0(t0) # 40000000 <_entry_offset+0x40000000>
    800049cc:	00cfa023          	sw	a2,0(t6)
    800049d0:	00df2023          	sw	a3,0(t5)
    800049d4:	00470713          	addi	a4,a4,4
    800049d8:	fc6794e3          	bne	a5,t1,800049a0 <bench_fib_run+0x6c>
    800049dc:	0014041b          	addiw	s0,s0,1
    800049e0:	010484b3          	add	s1,s1,a6
    800049e4:	faa316e3          	bne	t1,a0,80004990 <bench_fib_run+0x5c>
    800049e8:	00002297          	auipc	t0,0x2
    800049ec:	5802b283          	ld	t0,1408(t0) # 80006f68 <tmp>
    800049f0:	02059793          	slli	a5,a1,0x20
    800049f4:	01e7d593          	srli	a1,a5,0x1e
    800049f8:	004e8f93          	addi	t6,t4,4
    800049fc:	00428413          	addi	s0,t0,4
    80004a00:	80000f37          	lui	t5,0x80000
    80004a04:	00bf8fb3          	add	t6,t6,a1
    80004a08:	00b40433          	add	s0,s0,a1
    80004a0c:	01f00393          	li	t2,31
    80004a10:	fd3f4f13          	xori	t5,t5,-45
    80004a14:	001f7793          	andi	a5,t5,1
    80004a18:	0e079463          	bnez	a5,80004b00 <bench_fib_run+0x1cc>
    80004a1c:	0a605a63          	blez	t1,80004ad0 <bench_fib_run+0x19c>
    80004a20:	000e0a13          	mv	s4,t3
    80004a24:	00028b13          	mv	s6,t0
    80004a28:	000e0993          	mv	s3,t3
    80004a2c:	00000a93          	li	s5,0
    80004a30:	000e0913          	mv	s2,t3
    80004a34:	000b0893          	mv	a7,s6
    80004a38:	00000493          	li	s1,0
    80004a3c:	0008a023          	sw	zero,0(a7)
    80004a40:	00090593          	mv	a1,s2
    80004a44:	00098613          	mv	a2,s3
    80004a48:	00000793          	li	a5,0
    80004a4c:	00000693          	li	a3,0
    80004a50:	00062503          	lw	a0,0(a2)
    80004a54:	0005a703          	lw	a4,0(a1)
    80004a58:	0016869b          	addiw	a3,a3,1
    80004a5c:	00460613          	addi	a2,a2,4
    80004a60:	02a7073b          	mulw	a4,a4,a0
    80004a64:	010585b3          	add	a1,a1,a6
    80004a68:	00f707bb          	addw	a5,a4,a5
    80004a6c:	00f8a023          	sw	a5,0(a7)
    80004a70:	fe66c0e3          	blt	a3,t1,80004a50 <bench_fib_run+0x11c>
    80004a74:	0014849b          	addiw	s1,s1,1
    80004a78:	00488893          	addi	a7,a7,4
    80004a7c:	00490913          	addi	s2,s2,4
    80004a80:	fa64cee3          	blt	s1,t1,80004a3c <bench_fib_run+0x108>
    80004a84:	001a8a9b          	addiw	s5,s5,1
    80004a88:	010989b3          	add	s3,s3,a6
    80004a8c:	010b0b33          	add	s6,s6,a6
    80004a90:	fa6ac0e3          	blt	s5,t1,80004a30 <bench_fib_run+0xfc>
    80004a94:	00028513          	mv	a0,t0
    80004a98:	00000593          	li	a1,0
    80004a9c:	000a0693          	mv	a3,s4
    80004aa0:	00050713          	mv	a4,a0
    80004aa4:	00000793          	li	a5,0
    80004aa8:	00072603          	lw	a2,0(a4)
    80004aac:	0017879b          	addiw	a5,a5,1
    80004ab0:	00470713          	addi	a4,a4,4
    80004ab4:	00c6a023          	sw	a2,0(a3)
    80004ab8:	00468693          	addi	a3,a3,4
    80004abc:	fe67c6e3          	blt	a5,t1,80004aa8 <bench_fib_run+0x174>
    80004ac0:	0015859b          	addiw	a1,a1,1
    80004ac4:	01050533          	add	a0,a0,a6
    80004ac8:	010a0a33          	add	s4,s4,a6
    80004acc:	fc65c8e3          	blt	a1,t1,80004a9c <bench_fib_run+0x168>
    80004ad0:	fff3839b          	addiw	t2,t2,-1 # fff <_entry_offset+0xfff>
    80004ad4:	401f5f13          	srai	t5,t5,0x1
    80004ad8:	f2039ee3          	bnez	t2,80004a14 <bench_fib_run+0xe0>
    80004adc:	03813403          	ld	s0,56(sp)
    80004ae0:	03013483          	ld	s1,48(sp)
    80004ae4:	02813903          	ld	s2,40(sp)
    80004ae8:	02013983          	ld	s3,32(sp)
    80004aec:	01813a03          	ld	s4,24(sp)
    80004af0:	01013a83          	ld	s5,16(sp)
    80004af4:	00813b03          	ld	s6,8(sp)
    80004af8:	04010113          	addi	sp,sp,64
    80004afc:	00008067          	ret
    80004b00:	fc6058e3          	blez	t1,80004ad0 <bench_fib_run+0x19c>
    80004b04:	00028a93          	mv	s5,t0
    80004b08:	000f8893          	mv	a7,t6
    80004b0c:	000e8993          	mv	s3,t4
    80004b10:	00000a13          	li	s4,0
    80004b14:	000e0913          	mv	s2,t3
    80004b18:	000a8513          	mv	a0,s5
    80004b1c:	00000493          	li	s1,0
    80004b20:	00052023          	sw	zero,0(a0)
    80004b24:	00090613          	mv	a2,s2
    80004b28:	00098713          	mv	a4,s3
    80004b2c:	00000793          	li	a5,0
    80004b30:	00072583          	lw	a1,0(a4)
    80004b34:	00062683          	lw	a3,0(a2)
    80004b38:	00470713          	addi	a4,a4,4
    80004b3c:	01060633          	add	a2,a2,a6
    80004b40:	02b686bb          	mulw	a3,a3,a1
    80004b44:	00f687bb          	addw	a5,a3,a5
    80004b48:	00f52023          	sw	a5,0(a0)
    80004b4c:	ff1712e3          	bne	a4,a7,80004b30 <bench_fib_run+0x1fc>
    80004b50:	0014849b          	addiw	s1,s1,1
    80004b54:	00450513          	addi	a0,a0,4
    80004b58:	00490913          	addi	s2,s2,4
    80004b5c:	fc6492e3          	bne	s1,t1,80004b20 <bench_fib_run+0x1ec>
    80004b60:	001a0a1b          	addiw	s4,s4,1
    80004b64:	010989b3          	add	s3,s3,a6
    80004b68:	010708b3          	add	a7,a4,a6
    80004b6c:	010a8ab3          	add	s5,s5,a6
    80004b70:	fa6a12e3          	bne	s4,t1,80004b14 <bench_fib_run+0x1e0>
    80004b74:	00040613          	mv	a2,s0
    80004b78:	000e8893          	mv	a7,t4
    80004b7c:	00028513          	mv	a0,t0
    80004b80:	00000593          	li	a1,0
    80004b84:	00088713          	mv	a4,a7
    80004b88:	00050793          	mv	a5,a0
    80004b8c:	0007a683          	lw	a3,0(a5)
    80004b90:	00478793          	addi	a5,a5,4
    80004b94:	00470713          	addi	a4,a4,4
    80004b98:	fed72e23          	sw	a3,-4(a4)
    80004b9c:	fef618e3          	bne	a2,a5,80004b8c <bench_fib_run+0x258>
    80004ba0:	0015859b          	addiw	a1,a1,1
    80004ba4:	01050533          	add	a0,a0,a6
    80004ba8:	010888b3          	add	a7,a7,a6
    80004bac:	01060633          	add	a2,a2,a6
    80004bb0:	fc659ae3          	bne	a1,t1,80004b84 <bench_fib_run+0x250>
    80004bb4:	e6dff06f          	j	80004a20 <bench_fib_run+0xec>
    80004bb8:	00231813          	slli	a6,t1,0x2
    80004bbc:	fff3059b          	addiw	a1,t1,-1
    80004bc0:	e29ff06f          	j	800049e8 <bench_fib_run+0xb4>

0000000080004bc4 <bench_fib_validate>:
    80004bc4:	00002797          	auipc	a5,0x2
    80004bc8:	38c7a783          	lw	a5,908(a5) # 80006f50 <M>
    80004bcc:	02f787bb          	mulw	a5,a5,a5
    80004bd0:	00002717          	auipc	a4,0x2
    80004bd4:	31873703          	ld	a4,792(a4) # 80006ee8 <setting>
    80004bd8:	01872683          	lw	a3,24(a4)
    80004bdc:	00002717          	auipc	a4,0x2
    80004be0:	38473703          	ld	a4,900(a4) # 80006f60 <ans>
    80004be4:	fff7879b          	addiw	a5,a5,-1
    80004be8:	00279793          	slli	a5,a5,0x2
    80004bec:	00f707b3          	add	a5,a4,a5
    80004bf0:	0007a503          	lw	a0,0(a5)
    80004bf4:	40d50533          	sub	a0,a0,a3
    80004bf8:	00153513          	seqz	a0,a0
    80004bfc:	00008067          	ret

0000000080004c00 <myqsort>:
    80004c00:	fd010113          	addi	sp,sp,-48
    80004c04:	00913c23          	sd	s1,24(sp)
    80004c08:	01313423          	sd	s3,8(sp)
    80004c0c:	01413023          	sd	s4,0(sp)
    80004c10:	02113423          	sd	ra,40(sp)
    80004c14:	02813023          	sd	s0,32(sp)
    80004c18:	01213823          	sd	s2,16(sp)
    80004c1c:	00050993          	mv	s3,a0
    80004c20:	00060a13          	mv	s4,a2
    80004c24:	00850493          	addi	s1,a0,8
    80004c28:	0945da63          	bge	a1,s4,80004cbc <myqsort+0xbc>
    80004c2c:	ffea041b          	addiw	s0,s4,-2
    80004c30:	00259793          	slli	a5,a1,0x2
    80004c34:	00f98333          	add	t1,s3,a5
    80004c38:	0015871b          	addiw	a4,a1,1
    80004c3c:	00032883          	lw	a7,0(t1)
    80004c40:	09475e63          	bge	a4,s4,80004cdc <myqsort+0xdc>
    80004c44:	40b4083b          	subw	a6,s0,a1
    80004c48:	02081813          	slli	a6,a6,0x20
    80004c4c:	02085813          	srli	a6,a6,0x20
    80004c50:	00b80833          	add	a6,a6,a1
    80004c54:	00478793          	addi	a5,a5,4
    80004c58:	00281813          	slli	a6,a6,0x2
    80004c5c:	00f987b3          	add	a5,s3,a5
    80004c60:	00980833          	add	a6,a6,s1
    80004c64:	00058913          	mv	s2,a1
    80004c68:	0007a683          	lw	a3,0(a5)
    80004c6c:	0116de63          	bge	a3,a7,80004c88 <myqsort+0x88>
    80004c70:	0019091b          	addiw	s2,s2,1
    80004c74:	00291713          	slli	a4,s2,0x2
    80004c78:	00e98733          	add	a4,s3,a4
    80004c7c:	00072503          	lw	a0,0(a4)
    80004c80:	00d72023          	sw	a3,0(a4)
    80004c84:	00a7a023          	sw	a0,0(a5)
    80004c88:	00478793          	addi	a5,a5,4
    80004c8c:	fcf81ee3          	bne	a6,a5,80004c68 <myqsort+0x68>
    80004c90:	00291793          	slli	a5,s2,0x2
    80004c94:	00032683          	lw	a3,0(t1)
    80004c98:	00f987b3          	add	a5,s3,a5
    80004c9c:	0007a703          	lw	a4,0(a5)
    80004ca0:	00d7a023          	sw	a3,0(a5)
    80004ca4:	00090613          	mv	a2,s2
    80004ca8:	00e32023          	sw	a4,0(t1)
    80004cac:	00098513          	mv	a0,s3
    80004cb0:	f51ff0ef          	jal	ra,80004c00 <myqsort>
    80004cb4:	0019059b          	addiw	a1,s2,1
    80004cb8:	f745cce3          	blt	a1,s4,80004c30 <myqsort+0x30>
    80004cbc:	02813083          	ld	ra,40(sp)
    80004cc0:	02013403          	ld	s0,32(sp)
    80004cc4:	01813483          	ld	s1,24(sp)
    80004cc8:	01013903          	ld	s2,16(sp)
    80004ccc:	00813983          	ld	s3,8(sp)
    80004cd0:	00013a03          	ld	s4,0(sp)
    80004cd4:	03010113          	addi	sp,sp,48
    80004cd8:	00008067          	ret
    80004cdc:	00058a13          	mv	s4,a1
    80004ce0:	f49ff06f          	j	80004c28 <myqsort+0x28>

0000000080004ce4 <bench_qsort_prepare>:
    80004ce4:	fd010113          	addi	sp,sp,-48
    80004ce8:	00100513          	li	a0,1
    80004cec:	02113423          	sd	ra,40(sp)
    80004cf0:	01213823          	sd	s2,16(sp)
    80004cf4:	01313423          	sd	s3,8(sp)
    80004cf8:	02813023          	sd	s0,32(sp)
    80004cfc:	00913c23          	sd	s1,24(sp)
    80004d00:	b58ff0ef          	jal	ra,80004058 <bench_srand>
    80004d04:	00002797          	auipc	a5,0x2
    80004d08:	1e47b783          	ld	a5,484(a5) # 80006ee8 <setting>
    80004d0c:	0007a783          	lw	a5,0(a5)
    80004d10:	00002917          	auipc	s2,0x2
    80004d14:	26090913          	addi	s2,s2,608 # 80006f70 <N>
    80004d18:	00002997          	auipc	s3,0x2
    80004d1c:	26098993          	addi	s3,s3,608 # 80006f78 <data>
    80004d20:	00279513          	slli	a0,a5,0x2
    80004d24:	00f92023          	sw	a5,0(s2)
    80004d28:	af8ff0ef          	jal	ra,80004020 <bench_alloc>
    80004d2c:	00092783          	lw	a5,0(s2)
    80004d30:	00a9b023          	sd	a0,0(s3)
    80004d34:	02f05e63          	blez	a5,80004d70 <bench_qsort_prepare+0x8c>
    80004d38:	00000493          	li	s1,0
    80004d3c:	b30ff0ef          	jal	ra,8000406c <bench_rand>
    80004d40:	0005041b          	sext.w	s0,a0
    80004d44:	b28ff0ef          	jal	ra,8000406c <bench_rand>
    80004d48:	0009b783          	ld	a5,0(s3)
    80004d4c:	00249693          	slli	a3,s1,0x2
    80004d50:	0104141b          	slliw	s0,s0,0x10
    80004d54:	00092703          	lw	a4,0(s2)
    80004d58:	00d787b3          	add	a5,a5,a3
    80004d5c:	00856533          	or	a0,a0,s0
    80004d60:	00148493          	addi	s1,s1,1
    80004d64:	00a7a023          	sw	a0,0(a5)
    80004d68:	0004879b          	sext.w	a5,s1
    80004d6c:	fce7c8e3          	blt	a5,a4,80004d3c <bench_qsort_prepare+0x58>
    80004d70:	02813083          	ld	ra,40(sp)
    80004d74:	02013403          	ld	s0,32(sp)
    80004d78:	01813483          	ld	s1,24(sp)
    80004d7c:	01013903          	ld	s2,16(sp)
    80004d80:	00813983          	ld	s3,8(sp)
    80004d84:	03010113          	addi	sp,sp,48
    80004d88:	00008067          	ret

0000000080004d8c <bench_qsort_run>:
    80004d8c:	00002617          	auipc	a2,0x2
    80004d90:	1e462603          	lw	a2,484(a2) # 80006f70 <N>
    80004d94:	00000593          	li	a1,0
    80004d98:	00002517          	auipc	a0,0x2
    80004d9c:	1e053503          	ld	a0,480(a0) # 80006f78 <data>
    80004da0:	e61ff06f          	j	80004c00 <myqsort>

0000000080004da4 <bench_qsort_validate>:
    80004da4:	00002597          	auipc	a1,0x2
    80004da8:	1cc5a583          	lw	a1,460(a1) # 80006f70 <N>
    80004dac:	00002517          	auipc	a0,0x2
    80004db0:	1cc53503          	ld	a0,460(a0) # 80006f78 <data>
    80004db4:	00259593          	slli	a1,a1,0x2
    80004db8:	ff010113          	addi	sp,sp,-16
    80004dbc:	00b505b3          	add	a1,a0,a1
    80004dc0:	00113423          	sd	ra,8(sp)
    80004dc4:	adcff0ef          	jal	ra,800040a0 <checksum>
    80004dc8:	00002797          	auipc	a5,0x2
    80004dcc:	1207b783          	ld	a5,288(a5) # 80006ee8 <setting>
    80004dd0:	0187a783          	lw	a5,24(a5)
    80004dd4:	00813083          	ld	ra,8(sp)
    80004dd8:	0005051b          	sext.w	a0,a0
    80004ddc:	40a78533          	sub	a0,a5,a0
    80004de0:	00153513          	seqz	a0,a0
    80004de4:	01010113          	addi	sp,sp,16
    80004de8:	00008067          	ret

0000000080004dec <putch>:
    80004dec:	00500793          	li	a5,5
    80004df0:	01d79793          	slli	a5,a5,0x1d
    80004df4:	3ea78c23          	sb	a0,1016(a5)
    80004df8:	00008067          	ret

0000000080004dfc <halt>:
    80004dfc:	00050513          	mv	a0,a0
    80004e00:	00100073          	ebreak
    80004e04:	0000006f          	j	80004e04 <halt+0x8>

0000000080004e08 <_trm_init>:
    80004e08:	ff010113          	addi	sp,sp,-16
    80004e0c:	00001517          	auipc	a0,0x1
    80004e10:	48450513          	addi	a0,a0,1156 # 80006290 <mainargs>
    80004e14:	00113423          	sd	ra,8(sp)
    80004e18:	de1fe0ef          	jal	ra,80003bf8 <main>
    80004e1c:	00050513          	mv	a0,a0
    80004e20:	00100073          	ebreak
    80004e24:	0000006f          	j	80004e24 <_trm_init+0x1c>

0000000080004e28 <__am_timer_config>:
    80004e28:	00100793          	li	a5,1
    80004e2c:	00f50023          	sb	a5,0(a0)
    80004e30:	00f500a3          	sb	a5,1(a0)
    80004e34:	00008067          	ret

0000000080004e38 <__am_input_config>:
    80004e38:	00100793          	li	a5,1
    80004e3c:	00f50023          	sb	a5,0(a0)
    80004e40:	00008067          	ret

0000000080004e44 <__am_uart_config>:
    80004e44:	00050023          	sb	zero,0(a0)
    80004e48:	00008067          	ret

0000000080004e4c <__am_net_config>:
    80004e4c:	00050023          	sb	zero,0(a0)
    80004e50:	00008067          	ret

0000000080004e54 <fail>:
    80004e54:	ff010113          	addi	sp,sp,-16
    80004e58:	00813023          	sd	s0,0(sp)
    80004e5c:	00113423          	sd	ra,8(sp)
    80004e60:	00001417          	auipc	s0,0x1
    80004e64:	28040413          	addi	s0,s0,640 # 800060e0 <r+0x7e0>
    80004e68:	04100513          	li	a0,65
    80004e6c:	00140413          	addi	s0,s0,1
    80004e70:	f7dff0ef          	jal	ra,80004dec <putch>
    80004e74:	00044503          	lbu	a0,0(s0)
    80004e78:	fe051ae3          	bnez	a0,80004e6c <fail+0x18>
    80004e7c:	00001417          	auipc	s0,0x1
    80004e80:	27440413          	addi	s0,s0,628 # 800060f0 <r+0x7f0>
    80004e84:	06100513          	li	a0,97
    80004e88:	00140413          	addi	s0,s0,1
    80004e8c:	f61ff0ef          	jal	ra,80004dec <putch>
    80004e90:	00044503          	lbu	a0,0(s0)
    80004e94:	fe051ae3          	bnez	a0,80004e88 <fail+0x34>
    80004e98:	00001417          	auipc	s0,0x1
    80004e9c:	27840413          	addi	s0,s0,632 # 80006110 <r+0x810>
    80004ea0:	02000513          	li	a0,32
    80004ea4:	00140413          	addi	s0,s0,1
    80004ea8:	f45ff0ef          	jal	ra,80004dec <putch>
    80004eac:	00044503          	lbu	a0,0(s0)
    80004eb0:	fe051ae3          	bnez	a0,80004ea4 <fail+0x50>
    80004eb4:	00100513          	li	a0,1
    80004eb8:	f45ff0ef          	jal	ra,80004dfc <halt>

0000000080004ebc <ioe_init>:
    80004ebc:	ff010113          	addi	sp,sp,-16
    80004ec0:	00113423          	sd	ra,8(sp)
    80004ec4:	00002797          	auipc	a5,0x2
    80004ec8:	b7c78793          	addi	a5,a5,-1156 # 80006a40 <lut>
    80004ecc:	00002697          	auipc	a3,0x2
    80004ed0:	f7468693          	addi	a3,a3,-140 # 80006e40 <buf.0>
    80004ed4:	00000617          	auipc	a2,0x0
    80004ed8:	f8060613          	addi	a2,a2,-128 # 80004e54 <fail>
    80004edc:	00c0006f          	j	80004ee8 <ioe_init+0x2c>
    80004ee0:	00878793          	addi	a5,a5,8
    80004ee4:	00d78c63          	beq	a5,a3,80004efc <ioe_init+0x40>
    80004ee8:	0007b703          	ld	a4,0(a5)
    80004eec:	fe071ae3          	bnez	a4,80004ee0 <ioe_init+0x24>
    80004ef0:	00c7b023          	sd	a2,0(a5)
    80004ef4:	00878793          	addi	a5,a5,8
    80004ef8:	fed798e3          	bne	a5,a3,80004ee8 <ioe_init+0x2c>
    80004efc:	0cc000ef          	jal	ra,80004fc8 <__am_gpu_init>
    80004f00:	034000ef          	jal	ra,80004f34 <__am_timer_init>
    80004f04:	1e0000ef          	jal	ra,800050e4 <__am_audio_init>
    80004f08:	00813083          	ld	ra,8(sp)
    80004f0c:	00100513          	li	a0,1
    80004f10:	01010113          	addi	sp,sp,16
    80004f14:	00008067          	ret

0000000080004f18 <ioe_read>:
    80004f18:	00351513          	slli	a0,a0,0x3
    80004f1c:	00002797          	auipc	a5,0x2
    80004f20:	b2478793          	addi	a5,a5,-1244 # 80006a40 <lut>
    80004f24:	00a787b3          	add	a5,a5,a0
    80004f28:	0007b783          	ld	a5,0(a5)
    80004f2c:	00058513          	mv	a0,a1
    80004f30:	00078067          	jr	a5

0000000080004f34 <__am_timer_init>:
    80004f34:	00500793          	li	a5,5
    80004f38:	01d79793          	slli	a5,a5,0x1d
    80004f3c:	0487a703          	lw	a4,72(a5)
    80004f40:	04c7a783          	lw	a5,76(a5)
    80004f44:	00008067          	ret

0000000080004f48 <__am_timer_uptime>:
    80004f48:	00500793          	li	a5,5
    80004f4c:	01d79793          	slli	a5,a5,0x1d
    80004f50:	0487a703          	lw	a4,72(a5)
    80004f54:	04c7a583          	lw	a1,76(a5)
    80004f58:	02071713          	slli	a4,a4,0x20
    80004f5c:	02075713          	srli	a4,a4,0x20
    80004f60:	02059593          	slli	a1,a1,0x20
    80004f64:	00e5e5b3          	or	a1,a1,a4
    80004f68:	00b53023          	sd	a1,0(a0)
    80004f6c:	00001517          	auipc	a0,0x1
    80004f70:	20c50513          	addi	a0,a0,524 # 80006178 <r+0x878>
    80004f74:	77c0006f          	j	800056f0 <printf>

0000000080004f78 <__am_timer_rtc>:
    80004f78:	76c00793          	li	a5,1900
    80004f7c:	00052a23          	sw	zero,20(a0)
    80004f80:	00052823          	sw	zero,16(a0)
    80004f84:	00052623          	sw	zero,12(a0)
    80004f88:	00052423          	sw	zero,8(a0)
    80004f8c:	00052223          	sw	zero,4(a0)
    80004f90:	00f52023          	sw	a5,0(a0)
    80004f94:	00008067          	ret

0000000080004f98 <__am_input_keybrd>:
    80004f98:	00500793          	li	a5,5
    80004f9c:	01d79793          	slli	a5,a5,0x1d
    80004fa0:	0607a783          	lw	a5,96(a5)
    80004fa4:	ffff86b7          	lui	a3,0xffff8
    80004fa8:	fff68693          	addi	a3,a3,-1 # ffffffffffff7fff <_end+0xffffffff7ffe8fff>
    80004fac:	0007879b          	sext.w	a5,a5
    80004fb0:	40f7d71b          	sraiw	a4,a5,0xf
    80004fb4:	00177713          	andi	a4,a4,1
    80004fb8:	00d7f7b3          	and	a5,a5,a3
    80004fbc:	00e50023          	sb	a4,0(a0)
    80004fc0:	00f52223          	sw	a5,4(a0)
    80004fc4:	00008067          	ret

0000000080004fc8 <__am_gpu_init>:
    80004fc8:	00008067          	ret

0000000080004fcc <__am_gpu_config>:
    80004fcc:	00001797          	auipc	a5,0x1
    80004fd0:	1bc78793          	addi	a5,a5,444 # 80006188 <r+0x888>
    80004fd4:	0007a603          	lw	a2,0(a5)
    80004fd8:	0047a683          	lw	a3,4(a5)
    80004fdc:	0087a703          	lw	a4,8(a5)
    80004fe0:	00c7a783          	lw	a5,12(a5)
    80004fe4:	00c52023          	sw	a2,0(a0)
    80004fe8:	00d52223          	sw	a3,4(a0)
    80004fec:	00e52423          	sw	a4,8(a0)
    80004ff0:	00f52623          	sw	a5,12(a0)
    80004ff4:	00008067          	ret

0000000080004ff8 <__am_gpu_fbdraw>:
    80004ff8:	01452283          	lw	t0,20(a0)
    80004ffc:	00052783          	lw	a5,0(a0)
    80005000:	00452703          	lw	a4,4(a0)
    80005004:	01052f83          	lw	t6,16(a0)
    80005008:	00853e83          	ld	t4,8(a0)
    8000500c:	0a505663          	blez	t0,800050b8 <__am_gpu_fbdraw+0xc0>
    80005010:	19000313          	li	t1,400
    80005014:	02e3033b          	mulw	t1,t1,a4
    80005018:	ffff8f1b          	addiw	t5,t6,-1
    8000501c:	ff010113          	addi	sp,sp,-16
    80005020:	020f1f13          	slli	t5,t5,0x20
    80005024:	0a100813          	li	a6,161
    80005028:	00813423          	sd	s0,8(sp)
    8000502c:	000f839b          	sext.w	t2,t6
    80005030:	00000893          	li	a7,0
    80005034:	00000e13          	li	t3,0
    80005038:	020f5f13          	srli	t5,t5,0x20
    8000503c:	004e8413          	addi	s0,t4,4
    80005040:	01881813          	slli	a6,a6,0x18
    80005044:	00f3033b          	addw	t1,t1,a5
    80005048:	03f05e63          	blez	t6,80005084 <__am_gpu_fbdraw+0x8c>
    8000504c:	011f05b3          	add	a1,t5,a7
    80005050:	00231613          	slli	a2,t1,0x2
    80005054:	00289713          	slli	a4,a7,0x2
    80005058:	00259593          	slli	a1,a1,0x2
    8000505c:	41d60633          	sub	a2,a2,t4
    80005060:	00ee87b3          	add	a5,t4,a4
    80005064:	008585b3          	add	a1,a1,s0
    80005068:	40e60633          	sub	a2,a2,a4
    8000506c:	0007a683          	lw	a3,0(a5)
    80005070:	00f60733          	add	a4,a2,a5
    80005074:	00e80733          	add	a4,a6,a4
    80005078:	00d72023          	sw	a3,0(a4)
    8000507c:	00478793          	addi	a5,a5,4
    80005080:	feb796e3          	bne	a5,a1,8000506c <__am_gpu_fbdraw+0x74>
    80005084:	001e0e1b          	addiw	t3,t3,1
    80005088:	007888bb          	addw	a7,a7,t2
    8000508c:	1903031b          	addiw	t1,t1,400
    80005090:	fbc29ce3          	bne	t0,t3,80005048 <__am_gpu_fbdraw+0x50>
    80005094:	01854783          	lbu	a5,24(a0)
    80005098:	00078a63          	beqz	a5,800050ac <__am_gpu_fbdraw+0xb4>
    8000509c:	00500793          	li	a5,5
    800050a0:	01d79793          	slli	a5,a5,0x1d
    800050a4:	00100713          	li	a4,1
    800050a8:	10e7a223          	sw	a4,260(a5)
    800050ac:	00813403          	ld	s0,8(sp)
    800050b0:	01010113          	addi	sp,sp,16
    800050b4:	00008067          	ret
    800050b8:	01854783          	lbu	a5,24(a0)
    800050bc:	00078c63          	beqz	a5,800050d4 <__am_gpu_fbdraw+0xdc>
    800050c0:	00500793          	li	a5,5
    800050c4:	01d79793          	slli	a5,a5,0x1d
    800050c8:	00100713          	li	a4,1
    800050cc:	10e7a223          	sw	a4,260(a5)
    800050d0:	00008067          	ret
    800050d4:	00008067          	ret

00000000800050d8 <__am_gpu_status>:
    800050d8:	00100793          	li	a5,1
    800050dc:	00f50023          	sb	a5,0(a0)
    800050e0:	00008067          	ret

00000000800050e4 <__am_audio_init>:
    800050e4:	00008067          	ret

00000000800050e8 <__am_audio_config>:
    800050e8:	00050023          	sb	zero,0(a0)
    800050ec:	00008067          	ret

00000000800050f0 <__am_audio_ctrl>:
    800050f0:	00008067          	ret

00000000800050f4 <__am_audio_status>:
    800050f4:	00052023          	sw	zero,0(a0)
    800050f8:	00008067          	ret

00000000800050fc <__am_audio_play>:
    800050fc:	00008067          	ret

0000000080005100 <__am_disk_config>:
    80005100:	00050023          	sb	zero,0(a0)
    80005104:	00008067          	ret

0000000080005108 <__am_disk_status>:
    80005108:	00008067          	ret

000000008000510c <__am_disk_blkio>:
    8000510c:	00008067          	ret

0000000080005110 <strlen>:
    80005110:	02050663          	beqz	a0,8000513c <strlen+0x2c>
    80005114:	00054783          	lbu	a5,0(a0)
    80005118:	00050713          	mv	a4,a0
    8000511c:	00000513          	li	a0,0
    80005120:	00078c63          	beqz	a5,80005138 <strlen+0x28>
    80005124:	00150513          	addi	a0,a0,1
    80005128:	00a707b3          	add	a5,a4,a0
    8000512c:	0007c783          	lbu	a5,0(a5)
    80005130:	fe079ae3          	bnez	a5,80005124 <strlen+0x14>
    80005134:	00008067          	ret
    80005138:	00008067          	ret
    8000513c:	ff010113          	addi	sp,sp,-16
    80005140:	00800613          	li	a2,8
    80005144:	00001597          	auipc	a1,0x1
    80005148:	05458593          	addi	a1,a1,84 # 80006198 <r+0x898>
    8000514c:	00001517          	auipc	a0,0x1
    80005150:	91450513          	addi	a0,a0,-1772 # 80005a60 <r+0x160>
    80005154:	00113423          	sd	ra,8(sp)
    80005158:	598000ef          	jal	ra,800056f0 <printf>
    8000515c:	00100513          	li	a0,1
    80005160:	c9dff0ef          	jal	ra,80004dfc <halt>

0000000080005164 <strcat>:
    80005164:	00054783          	lbu	a5,0(a0)
    80005168:	02078663          	beqz	a5,80005194 <strcat+0x30>
    8000516c:	00050793          	mv	a5,a0
    80005170:	0017c703          	lbu	a4,1(a5)
    80005174:	00178793          	addi	a5,a5,1
    80005178:	fe071ce3          	bnez	a4,80005170 <strcat+0xc>
    8000517c:	0005c703          	lbu	a4,0(a1)
    80005180:	00178793          	addi	a5,a5,1
    80005184:	00158593          	addi	a1,a1,1
    80005188:	fee78fa3          	sb	a4,-1(a5)
    8000518c:	fe0718e3          	bnez	a4,8000517c <strcat+0x18>
    80005190:	00008067          	ret
    80005194:	0005c703          	lbu	a4,0(a1)
    80005198:	00050793          	mv	a5,a0
    8000519c:	00178793          	addi	a5,a5,1
    800051a0:	fee78fa3          	sb	a4,-1(a5)
    800051a4:	00158593          	addi	a1,a1,1
    800051a8:	fc071ae3          	bnez	a4,8000517c <strcat+0x18>
    800051ac:	fe5ff06f          	j	80005190 <strcat+0x2c>

00000000800051b0 <strcmp>:
    800051b0:	00054783          	lbu	a5,0(a0)
    800051b4:	00079c63          	bnez	a5,800051cc <strcmp+0x1c>
    800051b8:	0400006f          	j	800051f8 <strcmp+0x48>
    800051bc:	02f71063          	bne	a4,a5,800051dc <strcmp+0x2c>
    800051c0:	00054783          	lbu	a5,0(a0)
    800051c4:	02078263          	beqz	a5,800051e8 <strcmp+0x38>
    800051c8:	00068593          	mv	a1,a3
    800051cc:	0005c703          	lbu	a4,0(a1)
    800051d0:	00150513          	addi	a0,a0,1
    800051d4:	00158693          	addi	a3,a1,1
    800051d8:	fe0712e3          	bnez	a4,800051bc <strcmp+0xc>
    800051dc:	0007851b          	sext.w	a0,a5
    800051e0:	40e5053b          	subw	a0,a0,a4
    800051e4:	00008067          	ret
    800051e8:	0015c703          	lbu	a4,1(a1)
    800051ec:	00000513          	li	a0,0
    800051f0:	40e5053b          	subw	a0,a0,a4
    800051f4:	00008067          	ret
    800051f8:	0005c703          	lbu	a4,0(a1)
    800051fc:	00000513          	li	a0,0
    80005200:	fe1ff06f          	j	800051e0 <strcmp+0x30>

0000000080005204 <number_to_str>:
    80005204:	fe010113          	addi	sp,sp,-32
    80005208:	00813823          	sd	s0,16(sp)
    8000520c:	00113c23          	sd	ra,24(sp)
    80005210:	00913423          	sd	s1,8(sp)
    80005214:	00058413          	mv	s0,a1
    80005218:	04c5f463          	bgeu	a1,a2,80005260 <number_to_str+0x5c>
    8000521c:	00900693          	li	a3,9
    80005220:	00050793          	mv	a5,a0
    80005224:	0ff5f713          	zext.b	a4,a1
    80005228:	00150513          	addi	a0,a0,1
    8000522c:	02b6f463          	bgeu	a3,a1,80005254 <number_to_str+0x50>
    80005230:	0377071b          	addiw	a4,a4,55
    80005234:	0ff77713          	zext.b	a4,a4
    80005238:	00e78023          	sb	a4,0(a5)
    8000523c:	000780a3          	sb	zero,1(a5)
    80005240:	01813083          	ld	ra,24(sp)
    80005244:	01013403          	ld	s0,16(sp)
    80005248:	00813483          	ld	s1,8(sp)
    8000524c:	02010113          	addi	sp,sp,32
    80005250:	00008067          	ret
    80005254:	0307071b          	addiw	a4,a4,48
    80005258:	0ff77713          	zext.b	a4,a4
    8000525c:	fddff06f          	j	80005238 <number_to_str+0x34>
    80005260:	02c5d5b3          	divu	a1,a1,a2
    80005264:	00060493          	mv	s1,a2
    80005268:	f9dff0ef          	jal	ra,80005204 <number_to_str>
    8000526c:	02947433          	remu	s0,s0,s1
    80005270:	00900713          	li	a4,9
    80005274:	00050793          	mv	a5,a0
    80005278:	0004069b          	sext.w	a3,s0
    8000527c:	02d75663          	bge	a4,a3,800052a8 <number_to_str+0xa4>
    80005280:	0374041b          	addiw	s0,s0,55
    80005284:	00150513          	addi	a0,a0,1
    80005288:	0ff47413          	zext.b	s0,s0
    8000528c:	00878023          	sb	s0,0(a5)
    80005290:	00050023          	sb	zero,0(a0)
    80005294:	01813083          	ld	ra,24(sp)
    80005298:	01013403          	ld	s0,16(sp)
    8000529c:	00813483          	ld	s1,8(sp)
    800052a0:	02010113          	addi	sp,sp,32
    800052a4:	00008067          	ret
    800052a8:	0304041b          	addiw	s0,s0,48
    800052ac:	00150513          	addi	a0,a0,1
    800052b0:	0ff47413          	zext.b	s0,s0
    800052b4:	fd9ff06f          	j	8000528c <number_to_str+0x88>

00000000800052b8 <vsprintf>:
    800052b8:	b9010113          	addi	sp,sp,-1136
    800052bc:	46113423          	sd	ra,1128(sp)
    800052c0:	46813023          	sd	s0,1120(sp)
    800052c4:	44913c23          	sd	s1,1112(sp)
    800052c8:	45213823          	sd	s2,1104(sp)
    800052cc:	45313423          	sd	s3,1096(sp)
    800052d0:	45413023          	sd	s4,1088(sp)
    800052d4:	43513c23          	sd	s5,1080(sp)
    800052d8:	43613823          	sd	s6,1072(sp)
    800052dc:	43713423          	sd	s7,1064(sp)
    800052e0:	43813023          	sd	s8,1056(sp)
    800052e4:	41913c23          	sd	s9,1048(sp)
    800052e8:	41a13823          	sd	s10,1040(sp)
    800052ec:	41b13423          	sd	s11,1032(sp)
    800052f0:	3e058063          	beqz	a1,800056d0 <vsprintf+0x418>
    800052f4:	0005c783          	lbu	a5,0(a1)
    800052f8:	00058413          	mv	s0,a1
    800052fc:	00050913          	mv	s2,a0
    80005300:	00050c93          	mv	s9,a0
    80005304:	00000b93          	li	s7,0
    80005308:	00000a13          	li	s4,0
    8000530c:	02078e63          	beqz	a5,80005348 <vsprintf+0x90>
    80005310:	00801b37          	lui	s6,0x801
    80005314:	028019b7          	lui	s3,0x2801
    80005318:	00060c13          	mv	s8,a2
    8000531c:	02500d93          	li	s11,37
    80005320:	00001a97          	auipc	s5,0x1
    80005324:	f18a8a93          	addi	s5,s5,-232 # 80006238 <r+0x938>
    80005328:	014b1b13          	slli	s6,s6,0x14
    8000532c:	01499993          	slli	s3,s3,0x14
    80005330:	07b78063          	beq	a5,s11,80005390 <vsprintf+0xd8>
    80005334:	00fc8023          	sb	a5,0(s9)
    80005338:	00144783          	lbu	a5,1(s0)
    8000533c:	001c8c93          	addi	s9,s9,1
    80005340:	00140413          	addi	s0,s0,1
    80005344:	fe0796e3          	bnez	a5,80005330 <vsprintf+0x78>
    80005348:	000c8023          	sb	zero,0(s9)
    8000534c:	46813083          	ld	ra,1128(sp)
    80005350:	46013403          	ld	s0,1120(sp)
    80005354:	001c8513          	addi	a0,s9,1
    80005358:	45813483          	ld	s1,1112(sp)
    8000535c:	44813983          	ld	s3,1096(sp)
    80005360:	44013a03          	ld	s4,1088(sp)
    80005364:	43813a83          	ld	s5,1080(sp)
    80005368:	43013b03          	ld	s6,1072(sp)
    8000536c:	42813b83          	ld	s7,1064(sp)
    80005370:	42013c03          	ld	s8,1056(sp)
    80005374:	41813c83          	ld	s9,1048(sp)
    80005378:	41013d03          	ld	s10,1040(sp)
    8000537c:	40813d83          	ld	s11,1032(sp)
    80005380:	4125053b          	subw	a0,a0,s2
    80005384:	45013903          	ld	s2,1104(sp)
    80005388:	47010113          	addi	sp,sp,1136
    8000538c:	00008067          	ret
    80005390:	00144703          	lbu	a4,1(s0)
    80005394:	0af70e63          	beq	a4,a5,80005450 <vsprintf+0x198>
    80005398:	02d00793          	li	a5,45
    8000539c:	00e7e863          	bltu	a5,a4,800053ac <vsprintf+0xf4>
    800053a0:	00e9d7b3          	srl	a5,s3,a4
    800053a4:	0017f793          	andi	a5,a5,1
    800053a8:	08079c63          	bnez	a5,80005440 <vsprintf+0x188>
    800053ac:	00140413          	addi	s0,s0,1
    800053b0:	00070693          	mv	a3,a4
    800053b4:	03000793          	li	a5,48
    800053b8:	02000d13          	li	s10,32
    800053bc:	00f69863          	bne	a3,a5,800053cc <vsprintf+0x114>
    800053c0:	00144683          	lbu	a3,1(s0)
    800053c4:	03000d13          	li	s10,48
    800053c8:	00140413          	addi	s0,s0,1
    800053cc:	fd06871b          	addiw	a4,a3,-48
    800053d0:	0ff77613          	zext.b	a2,a4
    800053d4:	00900793          	li	a5,9
    800053d8:	00000493          	li	s1,0
    800053dc:	02c7e663          	bltu	a5,a2,80005408 <vsprintf+0x150>
    800053e0:	00900593          	li	a1,9
    800053e4:	00144683          	lbu	a3,1(s0)
    800053e8:	0024979b          	slliw	a5,s1,0x2
    800053ec:	009787bb          	addw	a5,a5,s1
    800053f0:	0017979b          	slliw	a5,a5,0x1
    800053f4:	00e784bb          	addw	s1,a5,a4
    800053f8:	fd06871b          	addiw	a4,a3,-48
    800053fc:	0ff77793          	zext.b	a5,a4
    80005400:	00140413          	addi	s0,s0,1
    80005404:	fef5f0e3          	bgeu	a1,a5,800053e4 <vsprintf+0x12c>
    80005408:	02e00793          	li	a5,46
    8000540c:	26f68263          	beq	a3,a5,80005670 <vsprintf+0x3b8>
    80005410:	00044703          	lbu	a4,0(s0)
    80005414:	07300793          	li	a5,115
    80005418:	22f70463          	beq	a4,a5,80005640 <vsprintf+0x388>
    8000541c:	f9d7079b          	addiw	a5,a4,-99
    80005420:	0ff7f793          	zext.b	a5,a5
    80005424:	01500693          	li	a3,21
    80005428:	04f6e063          	bltu	a3,a5,80005468 <vsprintf+0x1b0>
    8000542c:	00279793          	slli	a5,a5,0x2
    80005430:	015787b3          	add	a5,a5,s5
    80005434:	0007a783          	lw	a5,0(a5)
    80005438:	015787b3          	add	a5,a5,s5
    8000543c:	00078067          	jr	a5
    80005440:	00244683          	lbu	a3,2(s0)
    80005444:	00070b93          	mv	s7,a4
    80005448:	00240413          	addi	s0,s0,2
    8000544c:	f69ff06f          	j	800053b4 <vsprintf+0xfc>
    80005450:	00fc8023          	sb	a5,0(s9)
    80005454:	00244783          	lbu	a5,2(s0)
    80005458:	001c8c93          	addi	s9,s9,1
    8000545c:	00240413          	addi	s0,s0,2
    80005460:	ec0798e3          	bnez	a5,80005330 <vsprintf+0x78>
    80005464:	ee5ff06f          	j	80005348 <vsprintf+0x90>
    80005468:	06600793          	li	a5,102
    8000546c:	24f71463          	bne	a4,a5,800056b4 <vsprintf+0x3fc>
    80005470:	02e00793          	li	a5,46
    80005474:	00fa0023          	sb	a5,0(s4)
    80005478:	000a00a3          	sb	zero,1(s4)
    8000547c:	00144783          	lbu	a5,1(s0)
    80005480:	001a0a13          	addi	s4,s4,1
    80005484:	00140413          	addi	s0,s0,1
    80005488:	ebdff06f          	j	80005344 <vsprintf+0x8c>
    8000548c:	000c3583          	ld	a1,0(s8)
    80005490:	01000613          	li	a2,16
    80005494:	00010513          	mv	a0,sp
    80005498:	d6dff0ef          	jal	ra,80005204 <number_to_str>
    8000549c:	00010513          	mv	a0,sp
    800054a0:	c71ff0ef          	jal	ra,80005110 <strlen>
    800054a4:	40a487bb          	subw	a5,s1,a0
    800054a8:	0007871b          	sext.w	a4,a5
    800054ac:	008c0c13          	addi	s8,s8,8
    800054b0:	20e05863          	blez	a4,800056c0 <vsprintf+0x408>
    800054b4:	02079793          	slli	a5,a5,0x20
    800054b8:	0207d793          	srli	a5,a5,0x20
    800054bc:	00fc84b3          	add	s1,s9,a5
    800054c0:	001c8c93          	addi	s9,s9,1
    800054c4:	ffac8fa3          	sb	s10,-1(s9)
    800054c8:	ff949ce3          	bne	s1,s9,800054c0 <vsprintf+0x208>
    800054cc:	00010593          	mv	a1,sp
    800054d0:	00048023          	sb	zero,0(s1)
    800054d4:	00048513          	mv	a0,s1
    800054d8:	c8dff0ef          	jal	ra,80005164 <strcat>
    800054dc:	00010513          	mv	a0,sp
    800054e0:	c31ff0ef          	jal	ra,80005110 <strlen>
    800054e4:	00144783          	lbu	a5,1(s0)
    800054e8:	00a48cb3          	add	s9,s1,a0
    800054ec:	00140413          	addi	s0,s0,1
    800054f0:	e55ff06f          	j	80005344 <vsprintf+0x8c>
    800054f4:	000c6583          	lwu	a1,0(s8)
    800054f8:	00a00613          	li	a2,10
    800054fc:	00010513          	mv	a0,sp
    80005500:	d05ff0ef          	jal	ra,80005204 <number_to_str>
    80005504:	00010513          	mv	a0,sp
    80005508:	c09ff0ef          	jal	ra,80005110 <strlen>
    8000550c:	40a487bb          	subw	a5,s1,a0
    80005510:	0007871b          	sext.w	a4,a5
    80005514:	008c0c13          	addi	s8,s8,8
    80005518:	1ae05463          	blez	a4,800056c0 <vsprintf+0x408>
    8000551c:	02079793          	slli	a5,a5,0x20
    80005520:	0207d793          	srli	a5,a5,0x20
    80005524:	00fc84b3          	add	s1,s9,a5
    80005528:	001c8c93          	addi	s9,s9,1
    8000552c:	ffac8fa3          	sb	s10,-1(s9)
    80005530:	ff949ce3          	bne	s1,s9,80005528 <vsprintf+0x270>
    80005534:	f99ff06f          	j	800054cc <vsprintf+0x214>
    80005538:	00144783          	lbu	a5,1(s0)
    8000553c:	06400713          	li	a4,100
    80005540:	e0e790e3          	bne	a5,a4,80005340 <vsprintf+0x88>
    80005544:	000c3583          	ld	a1,0(s8)
    80005548:	00a00613          	li	a2,10
    8000554c:	00010513          	mv	a0,sp
    80005550:	cb5ff0ef          	jal	ra,80005204 <number_to_str>
    80005554:	00010513          	mv	a0,sp
    80005558:	bb9ff0ef          	jal	ra,80005110 <strlen>
    8000555c:	40a484bb          	subw	s1,s1,a0
    80005560:	0004879b          	sext.w	a5,s1
    80005564:	008c0c13          	addi	s8,s8,8
    80005568:	16f05063          	blez	a5,800056c8 <vsprintf+0x410>
    8000556c:	02049493          	slli	s1,s1,0x20
    80005570:	0204d493          	srli	s1,s1,0x20
    80005574:	009c84b3          	add	s1,s9,s1
    80005578:	001c8c93          	addi	s9,s9,1
    8000557c:	ffac8fa3          	sb	s10,-1(s9)
    80005580:	ff949ce3          	bne	s1,s9,80005578 <vsprintf+0x2c0>
    80005584:	00010593          	mv	a1,sp
    80005588:	00048023          	sb	zero,0(s1)
    8000558c:	00048513          	mv	a0,s1
    80005590:	bd5ff0ef          	jal	ra,80005164 <strcat>
    80005594:	00010513          	mv	a0,sp
    80005598:	b79ff0ef          	jal	ra,80005110 <strlen>
    8000559c:	00140713          	addi	a4,s0,1
    800055a0:	00244783          	lbu	a5,2(s0)
    800055a4:	00070413          	mv	s0,a4
    800055a8:	00a48cb3          	add	s9,s1,a0
    800055ac:	00140413          	addi	s0,s0,1
    800055b0:	d95ff06f          	j	80005344 <vsprintf+0x8c>
    800055b4:	000c2583          	lw	a1,0(s8)
    800055b8:	008c0c13          	addi	s8,s8,8
    800055bc:	0e05c263          	bltz	a1,800056a0 <vsprintf+0x3e8>
    800055c0:	017b57b3          	srl	a5,s6,s7
    800055c4:	0017f793          	andi	a5,a5,1
    800055c8:	00010a13          	mv	s4,sp
    800055cc:	00078663          	beqz	a5,800055d8 <vsprintf+0x320>
    800055d0:	01710023          	sb	s7,0(sp)
    800055d4:	00110a13          	addi	s4,sp,1
    800055d8:	0005859b          	sext.w	a1,a1
    800055dc:	00000b93          	li	s7,0
    800055e0:	02059593          	slli	a1,a1,0x20
    800055e4:	00a00613          	li	a2,10
    800055e8:	0205d593          	srli	a1,a1,0x20
    800055ec:	000a0513          	mv	a0,s4
    800055f0:	c15ff0ef          	jal	ra,80005204 <number_to_str>
    800055f4:	00010513          	mv	a0,sp
    800055f8:	b19ff0ef          	jal	ra,80005110 <strlen>
    800055fc:	40a487bb          	subw	a5,s1,a0
    80005600:	0007871b          	sext.w	a4,a5
    80005604:	0ae05e63          	blez	a4,800056c0 <vsprintf+0x408>
    80005608:	02079793          	slli	a5,a5,0x20
    8000560c:	0207d793          	srli	a5,a5,0x20
    80005610:	00fc84b3          	add	s1,s9,a5
    80005614:	001c8c93          	addi	s9,s9,1
    80005618:	ffac8fa3          	sb	s10,-1(s9)
    8000561c:	ff949ce3          	bne	s1,s9,80005614 <vsprintf+0x35c>
    80005620:	eadff06f          	j	800054cc <vsprintf+0x214>
    80005624:	000c2783          	lw	a5,0(s8)
    80005628:	001c8c93          	addi	s9,s9,1
    8000562c:	008c0c13          	addi	s8,s8,8
    80005630:	fefc8fa3          	sb	a5,-1(s9)
    80005634:	00144783          	lbu	a5,1(s0)
    80005638:	00140413          	addi	s0,s0,1
    8000563c:	d09ff06f          	j	80005344 <vsprintf+0x8c>
    80005640:	000c3a03          	ld	s4,0(s8)
    80005644:	000c8513          	mv	a0,s9
    80005648:	000c8023          	sb	zero,0(s9)
    8000564c:	000a0593          	mv	a1,s4
    80005650:	b15ff0ef          	jal	ra,80005164 <strcat>
    80005654:	000a0513          	mv	a0,s4
    80005658:	ab9ff0ef          	jal	ra,80005110 <strlen>
    8000565c:	00144783          	lbu	a5,1(s0)
    80005660:	008c0c13          	addi	s8,s8,8
    80005664:	00ac8cb3          	add	s9,s9,a0
    80005668:	00140413          	addi	s0,s0,1
    8000566c:	cd9ff06f          	j	80005344 <vsprintf+0x8c>
    80005670:	00144703          	lbu	a4,1(s0)
    80005674:	00900693          	li	a3,9
    80005678:	00140413          	addi	s0,s0,1
    8000567c:	fd07079b          	addiw	a5,a4,-48
    80005680:	0ff7f793          	zext.b	a5,a5
    80005684:	d8f6e8e3          	bltu	a3,a5,80005414 <vsprintf+0x15c>
    80005688:	00144703          	lbu	a4,1(s0)
    8000568c:	00140413          	addi	s0,s0,1
    80005690:	fd07079b          	addiw	a5,a4,-48
    80005694:	0ff7f793          	zext.b	a5,a5
    80005698:	fef6f8e3          	bgeu	a3,a5,80005688 <vsprintf+0x3d0>
    8000569c:	d79ff06f          	j	80005414 <vsprintf+0x15c>
    800056a0:	02d00793          	li	a5,45
    800056a4:	00f10023          	sb	a5,0(sp)
    800056a8:	40b005bb          	negw	a1,a1
    800056ac:	00110a13          	addi	s4,sp,1
    800056b0:	f31ff06f          	j	800055e0 <vsprintf+0x328>
    800056b4:	00144783          	lbu	a5,1(s0)
    800056b8:	00140413          	addi	s0,s0,1
    800056bc:	c89ff06f          	j	80005344 <vsprintf+0x8c>
    800056c0:	000c8493          	mv	s1,s9
    800056c4:	e09ff06f          	j	800054cc <vsprintf+0x214>
    800056c8:	000c8493          	mv	s1,s9
    800056cc:	eb9ff06f          	j	80005584 <vsprintf+0x2cc>
    800056d0:	08100613          	li	a2,129
    800056d4:	00001597          	auipc	a1,0x1
    800056d8:	b1458593          	addi	a1,a1,-1260 # 800061e8 <r+0x8e8>
    800056dc:	00000517          	auipc	a0,0x0
    800056e0:	38450513          	addi	a0,a0,900 # 80005a60 <r+0x160>
    800056e4:	00c000ef          	jal	ra,800056f0 <printf>
    800056e8:	00100513          	li	a0,1
    800056ec:	f10ff0ef          	jal	ra,80004dfc <halt>

00000000800056f0 <printf>:
    800056f0:	b9010113          	addi	sp,sp,-1136
    800056f4:	42113423          	sd	ra,1064(sp)
    800056f8:	42813023          	sd	s0,1056(sp)
    800056fc:	40913c23          	sd	s1,1048(sp)
    80005700:	41213823          	sd	s2,1040(sp)
    80005704:	42b13c23          	sd	a1,1080(sp)
    80005708:	44c13023          	sd	a2,1088(sp)
    8000570c:	44d13423          	sd	a3,1096(sp)
    80005710:	44e13823          	sd	a4,1104(sp)
    80005714:	44f13c23          	sd	a5,1112(sp)
    80005718:	47013023          	sd	a6,1120(sp)
    8000571c:	47113423          	sd	a7,1128(sp)
    80005720:	06050263          	beqz	a0,80005784 <printf+0x94>
    80005724:	43810613          	addi	a2,sp,1080
    80005728:	00050593          	mv	a1,a0
    8000572c:	01010513          	addi	a0,sp,16
    80005730:	00c13423          	sd	a2,8(sp)
    80005734:	b85ff0ef          	jal	ra,800052b8 <vsprintf>
    80005738:	00050913          	mv	s2,a0
    8000573c:	02a05663          	blez	a0,80005768 <printf+0x78>
    80005740:	fff5079b          	addiw	a5,a0,-1
    80005744:	02079793          	slli	a5,a5,0x20
    80005748:	0207d793          	srli	a5,a5,0x20
    8000574c:	01110713          	addi	a4,sp,17
    80005750:	01010413          	addi	s0,sp,16
    80005754:	00f704b3          	add	s1,a4,a5
    80005758:	00044503          	lbu	a0,0(s0)
    8000575c:	00140413          	addi	s0,s0,1
    80005760:	e8cff0ef          	jal	ra,80004dec <putch>
    80005764:	fe941ae3          	bne	s0,s1,80005758 <printf+0x68>
    80005768:	42813083          	ld	ra,1064(sp)
    8000576c:	42013403          	ld	s0,1056(sp)
    80005770:	41813483          	ld	s1,1048(sp)
    80005774:	00090513          	mv	a0,s2
    80005778:	41013903          	ld	s2,1040(sp)
    8000577c:	47010113          	addi	sp,sp,1136
    80005780:	00008067          	ret
    80005784:	07200613          	li	a2,114
    80005788:	00001597          	auipc	a1,0x1
    8000578c:	a6058593          	addi	a1,a1,-1440 # 800061e8 <r+0x8e8>
    80005790:	00000517          	auipc	a0,0x0
    80005794:	2d050513          	addi	a0,a0,720 # 80005a60 <r+0x160>
    80005798:	f59ff0ef          	jal	ra,800056f0 <printf>
    8000579c:	00100513          	li	a0,1
    800057a0:	e5cff0ef          	jal	ra,80004dfc <halt>

00000000800057a4 <sprintf>:
    800057a4:	fb010113          	addi	sp,sp,-80
    800057a8:	00113c23          	sd	ra,24(sp)
    800057ac:	02c13023          	sd	a2,32(sp)
    800057b0:	02d13423          	sd	a3,40(sp)
    800057b4:	02e13823          	sd	a4,48(sp)
    800057b8:	02f13c23          	sd	a5,56(sp)
    800057bc:	05013023          	sd	a6,64(sp)
    800057c0:	05113423          	sd	a7,72(sp)
    800057c4:	00058e63          	beqz	a1,800057e0 <sprintf+0x3c>
    800057c8:	02010613          	addi	a2,sp,32
    800057cc:	00c13423          	sd	a2,8(sp)
    800057d0:	ae9ff0ef          	jal	ra,800052b8 <vsprintf>
    800057d4:	01813083          	ld	ra,24(sp)
    800057d8:	05010113          	addi	sp,sp,80
    800057dc:	00008067          	ret
    800057e0:	0ff00613          	li	a2,255
    800057e4:	00001597          	auipc	a1,0x1
    800057e8:	a0458593          	addi	a1,a1,-1532 # 800061e8 <r+0x8e8>
    800057ec:	00000517          	auipc	a0,0x0
    800057f0:	27450513          	addi	a0,a0,628 # 80005a60 <r+0x160>
    800057f4:	efdff0ef          	jal	ra,800056f0 <printf>
    800057f8:	00100513          	li	a0,1
    800057fc:	e00ff0ef          	jal	ra,80004dfc <halt>
