
/home/jimple/Documents/ysyx/ysyx-workbench/am-kernels/kernels/yield-os/build/yield-os-riscv32-nemu.elf:     file format elf32-littleriscv


Disassembly of section .text:

80000000 <_start>:
80000000:	00000413          	li	s0,0
80000004:	00022117          	auipc	sp,0x22
80000008:	ffc10113          	addi	sp,sp,-4 # 80022000 <_end>
8000000c:	158000ef          	jal	ra,80000164 <_trm_init>

80000010 <schedule>:
80000010:	00001717          	auipc	a4,0x1
80000014:	26070713          	addi	a4,a4,608 # 80001270 <current>
80000018:	00072683          	lw	a3,0(a4)
8000001c:	00001617          	auipc	a2,0x1
80000020:	25860613          	addi	a2,a2,600 # 80001274 <pcb>
80000024:	00009797          	auipc	a5,0x9
80000028:	25078793          	addi	a5,a5,592 # 80009274 <pcb+0x8000>
8000002c:	00b6a023          	sw	a1,0(a3)
80000030:	00c68463          	beq	a3,a2,80000038 <schedule+0x28>
80000034:	00060793          	mv	a5,a2
80000038:	0007a503          	lw	a0,0(a5)
8000003c:	00f72023          	sw	a5,0(a4)
80000040:	00008067          	ret

80000044 <f>:
80000044:	ff810113          	addi	sp,sp,-8
80000048:	00112223          	sw	ra,4(sp)
8000004c:	00812023          	sw	s0,0(sp)
80000050:	00200793          	li	a5,2
80000054:	00050713          	mv	a4,a0
80000058:	00a7f463          	bgeu	a5,a0,80000060 <f+0x1c>
8000005c:	00000713          	li	a4,0
80000060:	00001797          	auipc	a5,0x1
80000064:	ffc78793          	addi	a5,a5,-4 # 8000105c <_etext>
80000068:	00e787b3          	add	a5,a5,a4
8000006c:	0007c403          	lbu	s0,0(a5)
80000070:	00040513          	mv	a0,s0
80000074:	0d8000ef          	jal	ra,8000014c <putch>
80000078:	298000ef          	jal	ra,80000310 <yield>
8000007c:	ff5ff06f          	j	80000070 <f+0x2c>

80000080 <main>:
80000080:	fe410113          	addi	sp,sp,-28
80000084:	00000517          	auipc	a0,0x0
80000088:	f8c50513          	addi	a0,a0,-116 # 80000010 <schedule>
8000008c:	00112c23          	sw	ra,24(sp)
80000090:	00812a23          	sw	s0,20(sp)
80000094:	00912823          	sw	s1,16(sp)
80000098:	00009417          	auipc	s0,0x9
8000009c:	1dc40413          	addi	s0,s0,476 # 80009274 <pcb+0x8000>
800000a0:	1b4000ef          	jal	ra,80000254 <cte_init>
800000a4:	00001497          	auipc	s1,0x1
800000a8:	1d048493          	addi	s1,s1,464 # 80001274 <pcb>
800000ac:	00040593          	mv	a1,s0
800000b0:	00100693          	li	a3,1
800000b4:	00000617          	auipc	a2,0x0
800000b8:	f9060613          	addi	a2,a2,-112 # 80000044 <f>
800000bc:	00048513          	mv	a0,s1
800000c0:	1b4000ef          	jal	ra,80000274 <kcontext>
800000c4:	00050793          	mv	a5,a0
800000c8:	00200693          	li	a3,2
800000cc:	00000617          	auipc	a2,0x0
800000d0:	f7860613          	addi	a2,a2,-136 # 80000044 <f>
800000d4:	00011597          	auipc	a1,0x11
800000d8:	1a058593          	addi	a1,a1,416 # 80011274 <pcb_boot>
800000dc:	00040513          	mv	a0,s0
800000e0:	00f4a023          	sw	a5,0(s1)
800000e4:	190000ef          	jal	ra,80000274 <kcontext>
800000e8:	00a42023          	sw	a0,0(s0)
800000ec:	224000ef          	jal	ra,80000310 <yield>
800000f0:	00001417          	auipc	s0,0x1
800000f4:	f7040413          	addi	s0,s0,-144 # 80001060 <_etext+0x4>
800000f8:	04100513          	li	a0,65
800000fc:	00140413          	addi	s0,s0,1
80000100:	04c000ef          	jal	ra,8000014c <putch>
80000104:	00044503          	lbu	a0,0(s0)
80000108:	fe051ae3          	bnez	a0,800000fc <main+0x7c>
8000010c:	00001417          	auipc	s0,0x1
80000110:	f6040413          	addi	s0,s0,-160 # 8000106c <_etext+0x10>
80000114:	05300513          	li	a0,83
80000118:	00140413          	addi	s0,s0,1
8000011c:	030000ef          	jal	ra,8000014c <putch>
80000120:	00044503          	lbu	a0,0(s0)
80000124:	fe051ae3          	bnez	a0,80000118 <main+0x98>
80000128:	00001417          	auipc	s0,0x1
8000012c:	f5c40413          	addi	s0,s0,-164 # 80001084 <_etext+0x28>
80000130:	02000513          	li	a0,32
80000134:	00140413          	addi	s0,s0,1
80000138:	014000ef          	jal	ra,8000014c <putch>
8000013c:	00044503          	lbu	a0,0(s0)
80000140:	fe051ae3          	bnez	a0,80000134 <main+0xb4>
80000144:	00100513          	li	a0,1
80000148:	010000ef          	jal	ra,80000158 <halt>

8000014c <putch>:
8000014c:	a00007b7          	lui	a5,0xa0000
80000150:	3ea78c23          	sb	a0,1016(a5) # a00003f8 <_end+0x1ffde3f8>
80000154:	00008067          	ret

80000158 <halt>:
80000158:	00050513          	mv	a0,a0
8000015c:	00100073          	ebreak
80000160:	0000006f          	j	80000160 <halt+0x8>

80000164 <_trm_init>:
80000164:	ffc10113          	addi	sp,sp,-4
80000168:	00001517          	auipc	a0,0x1
8000016c:	10450513          	addi	a0,a0,260 # 8000126c <mainargs>
80000170:	00112023          	sw	ra,0(sp)
80000174:	f0dff0ef          	jal	ra,80000080 <main>
80000178:	00050513          	mv	a0,a0
8000017c:	00100073          	ebreak
80000180:	0000006f          	j	80000180 <_trm_init+0x1c>

80000184 <__am_irq_handle>:
80000184:	fd410113          	addi	sp,sp,-44
80000188:	02912023          	sw	s1,32(sp)
8000018c:	00019497          	auipc	s1,0x19
80000190:	0e848493          	addi	s1,s1,232 # 80019274 <user_handler>
80000194:	0004a783          	lw	a5,0(s1)
80000198:	02812223          	sw	s0,36(sp)
8000019c:	02112423          	sw	ra,40(sp)
800001a0:	00050413          	mv	s0,a0
800001a4:	06078063          	beqz	a5,80000204 <__am_irq_handle+0x80>
800001a8:	08052583          	lw	a1,128(a0)
800001ac:	00012a23          	sw	zero,20(sp)
800001b0:	00012c23          	sw	zero,24(sp)
800001b4:	00012e23          	sw	zero,28(sp)
800001b8:	00b00713          	li	a4,11
800001bc:	04e59e63          	bne	a1,a4,80000218 <__am_irq_handle+0x94>
800001c0:	08852703          	lw	a4,136(a0)
800001c4:	00100693          	li	a3,1
800001c8:	00d12823          	sw	a3,16(sp)
800001cc:	00470713          	addi	a4,a4,4
800001d0:	08e52423          	sw	a4,136(a0)
800001d4:	01012703          	lw	a4,16(sp)
800001d8:	00040593          	mv	a1,s0
800001dc:	00010513          	mv	a0,sp
800001e0:	00e12023          	sw	a4,0(sp)
800001e4:	01412703          	lw	a4,20(sp)
800001e8:	00e12223          	sw	a4,4(sp)
800001ec:	01812703          	lw	a4,24(sp)
800001f0:	00e12423          	sw	a4,8(sp)
800001f4:	01c12703          	lw	a4,28(sp)
800001f8:	00e12623          	sw	a4,12(sp)
800001fc:	000780e7          	jalr	a5
80000200:	02050a63          	beqz	a0,80000234 <__am_irq_handle+0xb0>
80000204:	02812083          	lw	ra,40(sp)
80000208:	02412403          	lw	s0,36(sp)
8000020c:	02012483          	lw	s1,32(sp)
80000210:	02c10113          	addi	sp,sp,44
80000214:	00008067          	ret
80000218:	00400793          	li	a5,4
8000021c:	00001517          	auipc	a0,0x1
80000220:	ec450513          	addi	a0,a0,-316 # 800010e0 <_etext+0x84>
80000224:	00f12823          	sw	a5,16(sp)
80000228:	0d9000ef          	jal	ra,80000b00 <printf>
8000022c:	0004a783          	lw	a5,0(s1)
80000230:	fa5ff06f          	j	800001d4 <__am_irq_handle+0x50>
80000234:	01500613          	li	a2,21
80000238:	00001597          	auipc	a1,0x1
8000023c:	ebc58593          	addi	a1,a1,-324 # 800010f4 <_etext+0x98>
80000240:	00001517          	auipc	a0,0x1
80000244:	f0850513          	addi	a0,a0,-248 # 80001148 <_etext+0xec>
80000248:	0b9000ef          	jal	ra,80000b00 <printf>
8000024c:	00100513          	li	a0,1
80000250:	f09ff0ef          	jal	ra,80000158 <halt>

80000254 <cte_init>:
80000254:	00050793          	mv	a5,a0
80000258:	00000717          	auipc	a4,0x0
8000025c:	0c870713          	addi	a4,a4,200 # 80000320 <__am_asm_trap>
80000260:	30571073          	csrw	mtvec,a4
80000264:	00100513          	li	a0,1
80000268:	00019717          	auipc	a4,0x19
8000026c:	00f72623          	sw	a5,12(a4) # 80019274 <user_handler>
80000270:	00008067          	ret

80000274 <kcontext>:
80000274:	fe810113          	addi	sp,sp,-24
80000278:	00058793          	mv	a5,a1
8000027c:	00912623          	sw	s1,12(sp)
80000280:	00060713          	mv	a4,a2
80000284:	00050593          	mv	a1,a0
80000288:	00078613          	mv	a2,a5
8000028c:	00068493          	mv	s1,a3
80000290:	40a786b3          	sub	a3,a5,a0
80000294:	00001517          	auipc	a0,0x1
80000298:	ed050513          	addi	a0,a0,-304 # 80001164 <_etext+0x108>
8000029c:	00812823          	sw	s0,16(sp)
800002a0:	00112a23          	sw	ra,20(sp)
800002a4:	f7078413          	addi	s0,a5,-144
800002a8:	00e12023          	sw	a4,0(sp)
800002ac:	055000ef          	jal	ra,80000b00 <printf>
800002b0:	00040593          	mv	a1,s0
800002b4:	00001517          	auipc	a0,0x1
800002b8:	ebc50513          	addi	a0,a0,-324 # 80001170 <_etext+0x114>
800002bc:	045000ef          	jal	ra,80000b00 <printf>
800002c0:	09000593          	li	a1,144
800002c4:	00001517          	auipc	a0,0x1
800002c8:	eac50513          	addi	a0,a0,-340 # 80001170 <_etext+0x114>
800002cc:	035000ef          	jal	ra,80000b00 <printf>
800002d0:	00040513          	mv	a0,s0
800002d4:	09000613          	li	a2,144
800002d8:	00000593          	li	a1,0
800002dc:	218000ef          	jal	ra,800004f4 <memset>
800002e0:	00012703          	lw	a4,0(sp)
800002e4:	000027b7          	lui	a5,0x2
800002e8:	80078793          	addi	a5,a5,-2048 # 1800 <_entry_offset+0x1800>
800002ec:	02942423          	sw	s1,40(s0)
800002f0:	01412083          	lw	ra,20(sp)
800002f4:	08e42423          	sw	a4,136(s0)
800002f8:	08f42223          	sw	a5,132(s0)
800002fc:	00040513          	mv	a0,s0
80000300:	01012403          	lw	s0,16(sp)
80000304:	00c12483          	lw	s1,12(sp)
80000308:	01810113          	addi	sp,sp,24
8000030c:	00008067          	ret

80000310 <yield>:
80000310:	fff00893          	li	a7,-1
80000314:	00000073          	ecall
80000318:	00008067          	ret
8000031c:	0000                	.2byte	0x0
	...

80000320 <__am_asm_trap>:
80000320:	f7010113          	addi	sp,sp,-144
80000324:	00112223          	sw	ra,4(sp)
80000328:	00312623          	sw	gp,12(sp)
8000032c:	00412823          	sw	tp,16(sp)
80000330:	00512a23          	sw	t0,20(sp)
80000334:	00612c23          	sw	t1,24(sp)
80000338:	00712e23          	sw	t2,28(sp)
8000033c:	02812023          	sw	s0,32(sp)
80000340:	02912223          	sw	s1,36(sp)
80000344:	02a12423          	sw	a0,40(sp)
80000348:	02b12623          	sw	a1,44(sp)
8000034c:	02c12823          	sw	a2,48(sp)
80000350:	02d12a23          	sw	a3,52(sp)
80000354:	02e12c23          	sw	a4,56(sp)
80000358:	02f12e23          	sw	a5,60(sp)
8000035c:	05012023          	sw	a6,64(sp)
80000360:	05112223          	sw	a7,68(sp)
80000364:	05212423          	sw	s2,72(sp)
80000368:	05312623          	sw	s3,76(sp)
8000036c:	05412823          	sw	s4,80(sp)
80000370:	05512a23          	sw	s5,84(sp)
80000374:	05612c23          	sw	s6,88(sp)
80000378:	05712e23          	sw	s7,92(sp)
8000037c:	07812023          	sw	s8,96(sp)
80000380:	07912223          	sw	s9,100(sp)
80000384:	07a12423          	sw	s10,104(sp)
80000388:	07b12623          	sw	s11,108(sp)
8000038c:	07c12823          	sw	t3,112(sp)
80000390:	07d12a23          	sw	t4,116(sp)
80000394:	07e12c23          	sw	t5,120(sp)
80000398:	07f12e23          	sw	t6,124(sp)
8000039c:	342022f3          	csrr	t0,mcause
800003a0:	30002373          	csrr	t1,mstatus
800003a4:	341023f3          	csrr	t2,mepc
800003a8:	08512023          	sw	t0,128(sp)
800003ac:	08612223          	sw	t1,132(sp)
800003b0:	08712423          	sw	t2,136(sp)
800003b4:	00020537          	lui	a0,0x20
800003b8:	00a36333          	or	t1,t1,a0
800003bc:	30031073          	csrw	mstatus,t1
800003c0:	00010513          	mv	a0,sp
800003c4:	dc1ff0ef          	jal	ra,80000184 <__am_irq_handle>
800003c8:	00050113          	mv	sp,a0
800003cc:	08412303          	lw	t1,132(sp)
800003d0:	08812383          	lw	t2,136(sp)
800003d4:	30031073          	csrw	mstatus,t1
800003d8:	34139073          	csrw	mepc,t2
800003dc:	00412083          	lw	ra,4(sp)
800003e0:	00c12183          	lw	gp,12(sp)
800003e4:	01012203          	lw	tp,16(sp)
800003e8:	01412283          	lw	t0,20(sp)
800003ec:	01812303          	lw	t1,24(sp)
800003f0:	01c12383          	lw	t2,28(sp)
800003f4:	02012403          	lw	s0,32(sp)
800003f8:	02412483          	lw	s1,36(sp)
800003fc:	02812503          	lw	a0,40(sp)
80000400:	02c12583          	lw	a1,44(sp)
80000404:	03012603          	lw	a2,48(sp)
80000408:	03412683          	lw	a3,52(sp)
8000040c:	03812703          	lw	a4,56(sp)
80000410:	03c12783          	lw	a5,60(sp)
80000414:	04012803          	lw	a6,64(sp)
80000418:	04412883          	lw	a7,68(sp)
8000041c:	04812903          	lw	s2,72(sp)
80000420:	04c12983          	lw	s3,76(sp)
80000424:	05012a03          	lw	s4,80(sp)
80000428:	05412a83          	lw	s5,84(sp)
8000042c:	05812b03          	lw	s6,88(sp)
80000430:	05c12b83          	lw	s7,92(sp)
80000434:	06012c03          	lw	s8,96(sp)
80000438:	06412c83          	lw	s9,100(sp)
8000043c:	06812d03          	lw	s10,104(sp)
80000440:	06c12d83          	lw	s11,108(sp)
80000444:	07012e03          	lw	t3,112(sp)
80000448:	07412e83          	lw	t4,116(sp)
8000044c:	07812f03          	lw	t5,120(sp)
80000450:	07c12f83          	lw	t6,124(sp)
80000454:	09010113          	addi	sp,sp,144
80000458:	30200073          	mret

8000045c <strlen>:
8000045c:	02050663          	beqz	a0,80000488 <strlen+0x2c>
80000460:	00054783          	lbu	a5,0(a0) # 20000 <_entry_offset+0x20000>
80000464:	00050713          	mv	a4,a0
80000468:	00000513          	li	a0,0
8000046c:	00078c63          	beqz	a5,80000484 <strlen+0x28>
80000470:	00150513          	addi	a0,a0,1
80000474:	00a707b3          	add	a5,a4,a0
80000478:	0007c783          	lbu	a5,0(a5)
8000047c:	fe079ae3          	bnez	a5,80000470 <strlen+0x14>
80000480:	00008067          	ret
80000484:	00008067          	ret
80000488:	ffc10113          	addi	sp,sp,-4
8000048c:	00800613          	li	a2,8
80000490:	00001597          	auipc	a1,0x1
80000494:	ce458593          	addi	a1,a1,-796 # 80001174 <_etext+0x118>
80000498:	00001517          	auipc	a0,0x1
8000049c:	cb050513          	addi	a0,a0,-848 # 80001148 <_etext+0xec>
800004a0:	00112023          	sw	ra,0(sp)
800004a4:	65c000ef          	jal	ra,80000b00 <printf>
800004a8:	00100513          	li	a0,1
800004ac:	cadff0ef          	jal	ra,80000158 <halt>

800004b0 <strcat>:
800004b0:	00054783          	lbu	a5,0(a0)
800004b4:	02078c63          	beqz	a5,800004ec <strcat+0x3c>
800004b8:	00050793          	mv	a5,a0
800004bc:	0017c703          	lbu	a4,1(a5)
800004c0:	00178793          	addi	a5,a5,1
800004c4:	fe071ce3          	bnez	a4,800004bc <strcat+0xc>
800004c8:	0005c703          	lbu	a4,0(a1)
800004cc:	00070c63          	beqz	a4,800004e4 <strcat+0x34>
800004d0:	00e78023          	sb	a4,0(a5)
800004d4:	0015c703          	lbu	a4,1(a1)
800004d8:	00158593          	addi	a1,a1,1
800004dc:	00178793          	addi	a5,a5,1
800004e0:	fe0718e3          	bnez	a4,800004d0 <strcat+0x20>
800004e4:	00078023          	sb	zero,0(a5)
800004e8:	00008067          	ret
800004ec:	00050793          	mv	a5,a0
800004f0:	fd9ff06f          	j	800004c8 <strcat+0x18>

800004f4 <memset>:
800004f4:	02050463          	beqz	a0,8000051c <memset+0x28>
800004f8:	0ff5f593          	zext.b	a1,a1
800004fc:	00c50733          	add	a4,a0,a2
80000500:	00050793          	mv	a5,a0
80000504:	00060a63          	beqz	a2,80000518 <memset+0x24>
80000508:	00178793          	addi	a5,a5,1
8000050c:	feb78fa3          	sb	a1,-1(a5)
80000510:	fee79ce3          	bne	a5,a4,80000508 <memset+0x14>
80000514:	00008067          	ret
80000518:	00008067          	ret
8000051c:	ffc10113          	addi	sp,sp,-4
80000520:	04600613          	li	a2,70
80000524:	00001597          	auipc	a1,0x1
80000528:	c5058593          	addi	a1,a1,-944 # 80001174 <_etext+0x118>
8000052c:	00001517          	auipc	a0,0x1
80000530:	c1c50513          	addi	a0,a0,-996 # 80001148 <_etext+0xec>
80000534:	00112023          	sw	ra,0(sp)
80000538:	5c8000ef          	jal	ra,80000b00 <printf>
8000053c:	00100513          	li	a0,1
80000540:	c19ff0ef          	jal	ra,80000158 <halt>

80000544 <number_to_str>:
80000544:	fe810113          	addi	sp,sp,-24
80000548:	00812823          	sw	s0,16(sp)
8000054c:	00912623          	sw	s1,12(sp)
80000550:	00112a23          	sw	ra,20(sp)
80000554:	00060413          	mv	s0,a2
80000558:	00050493          	mv	s1,a0
8000055c:	00058793          	mv	a5,a1
80000560:	04e67463          	bgeu	a2,a4,800005a8 <number_to_str+0x64>
80000564:	0ff7f713          	zext.b	a4,a5
80000568:	00148513          	addi	a0,s1,1
8000056c:	02040463          	beqz	s0,80000594 <number_to_str+0x50>
80000570:	03770793          	addi	a5,a4,55
80000574:	0ff7f793          	zext.b	a5,a5
80000578:	00f48023          	sb	a5,0(s1)
8000057c:	000480a3          	sb	zero,1(s1)
80000580:	01412083          	lw	ra,20(sp)
80000584:	01012403          	lw	s0,16(sp)
80000588:	00c12483          	lw	s1,12(sp)
8000058c:	01810113          	addi	sp,sp,24
80000590:	00008067          	ret
80000594:	00900693          	li	a3,9
80000598:	fcf6ece3          	bltu	a3,a5,80000570 <number_to_str+0x2c>
8000059c:	03070793          	addi	a5,a4,48
800005a0:	0ff7f793          	zext.b	a5,a5
800005a4:	fd5ff06f          	j	80000578 <number_to_str+0x34>
800005a8:	00068813          	mv	a6,a3
800005ac:	00c71463          	bne	a4,a2,800005b4 <number_to_str+0x70>
800005b0:	fad5eae3          	bltu	a1,a3,80000564 <number_to_str+0x20>
800005b4:	00080613          	mv	a2,a6
800005b8:	00070693          	mv	a3,a4
800005bc:	00078513          	mv	a0,a5
800005c0:	00040593          	mv	a1,s0
800005c4:	00f12423          	sw	a5,8(sp)
800005c8:	01012223          	sw	a6,4(sp)
800005cc:	00e12023          	sw	a4,0(sp)
800005d0:	145000ef          	jal	ra,80000f14 <__udivdi3>
800005d4:	00412803          	lw	a6,4(sp)
800005d8:	00012703          	lw	a4,0(sp)
800005dc:	00058613          	mv	a2,a1
800005e0:	00080693          	mv	a3,a6
800005e4:	00050593          	mv	a1,a0
800005e8:	00048513          	mv	a0,s1
800005ec:	f59ff0ef          	jal	ra,80000544 <number_to_str>
800005f0:	00812783          	lw	a5,8(sp)
800005f4:	00412803          	lw	a6,4(sp)
800005f8:	00012703          	lw	a4,0(sp)
800005fc:	00050893          	mv	a7,a0
80000600:	00040593          	mv	a1,s0
80000604:	00078513          	mv	a0,a5
80000608:	00080613          	mv	a2,a6
8000060c:	00070693          	mv	a3,a4
80000610:	00088413          	mv	s0,a7
80000614:	109000ef          	jal	ra,80000f1c <__umoddi3>
80000618:	00900793          	li	a5,9
8000061c:	02a7d663          	bge	a5,a0,80000648 <number_to_str+0x104>
80000620:	03750793          	addi	a5,a0,55
80000624:	0ff7f793          	zext.b	a5,a5
80000628:	00140513          	addi	a0,s0,1
8000062c:	00f40023          	sb	a5,0(s0)
80000630:	00050023          	sb	zero,0(a0)
80000634:	01412083          	lw	ra,20(sp)
80000638:	01012403          	lw	s0,16(sp)
8000063c:	00c12483          	lw	s1,12(sp)
80000640:	01810113          	addi	sp,sp,24
80000644:	00008067          	ret
80000648:	03050793          	addi	a5,a0,48
8000064c:	0ff7f793          	zext.b	a5,a5
80000650:	00140513          	addi	a0,s0,1
80000654:	fd9ff06f          	j	8000062c <number_to_str+0xe8>

80000658 <vsprintf>:
80000658:	bd810113          	addi	sp,sp,-1064
8000065c:	42112223          	sw	ra,1060(sp)
80000660:	42812023          	sw	s0,1056(sp)
80000664:	40912e23          	sw	s1,1052(sp)
80000668:	00a12423          	sw	a0,8(sp)
8000066c:	46058a63          	beqz	a1,80000ae0 <vsprintf+0x488>
80000670:	0005c683          	lbu	a3,0(a1)
80000674:	00012223          	sw	zero,4(sp)
80000678:	00012023          	sw	zero,0(sp)
8000067c:	00058493          	mv	s1,a1
80000680:	00060313          	mv	t1,a2
80000684:	00050893          	mv	a7,a0
80000688:	02068063          	beqz	a3,800006a8 <vsprintf+0x50>
8000068c:	02500713          	li	a4,37
80000690:	02e68e63          	beq	a3,a4,800006cc <vsprintf+0x74>
80000694:	00d88023          	sb	a3,0(a7)
80000698:	0014c683          	lbu	a3,1(s1)
8000069c:	00188893          	addi	a7,a7,1
800006a0:	00148493          	addi	s1,s1,1
800006a4:	fe0694e3          	bnez	a3,8000068c <vsprintf+0x34>
800006a8:	00088023          	sb	zero,0(a7)
800006ac:	00812783          	lw	a5,8(sp)
800006b0:	42412083          	lw	ra,1060(sp)
800006b4:	42012403          	lw	s0,1056(sp)
800006b8:	00188513          	addi	a0,a7,1
800006bc:	41c12483          	lw	s1,1052(sp)
800006c0:	40f50533          	sub	a0,a0,a5
800006c4:	42810113          	addi	sp,sp,1064
800006c8:	00008067          	ret
800006cc:	0014c603          	lbu	a2,1(s1)
800006d0:	0cd60a63          	beq	a2,a3,800007a4 <vsprintf+0x14c>
800006d4:	fe060693          	addi	a3,a2,-32
800006d8:	0ff6f693          	zext.b	a3,a3
800006dc:	00d00713          	li	a4,13
800006e0:	00d76c63          	bltu	a4,a3,800006f8 <vsprintf+0xa0>
800006e4:	00003737          	lui	a4,0x3
800006e8:	80170713          	addi	a4,a4,-2047 # 2801 <_entry_offset+0x2801>
800006ec:	00d75733          	srl	a4,a4,a3
800006f0:	00177713          	andi	a4,a4,1
800006f4:	0a071063          	bnez	a4,80000794 <vsprintf+0x13c>
800006f8:	00148493          	addi	s1,s1,1
800006fc:	00060593          	mv	a1,a2
80000700:	03000713          	li	a4,48
80000704:	02000e13          	li	t3,32
80000708:	00e59863          	bne	a1,a4,80000718 <vsprintf+0xc0>
8000070c:	0014c583          	lbu	a1,1(s1)
80000710:	03000e13          	li	t3,48
80000714:	00148493          	addi	s1,s1,1
80000718:	fd058693          	addi	a3,a1,-48
8000071c:	0ff6f613          	zext.b	a2,a3
80000720:	00900713          	li	a4,9
80000724:	00000813          	li	a6,0
80000728:	02c76663          	bltu	a4,a2,80000754 <vsprintf+0xfc>
8000072c:	00900513          	li	a0,9
80000730:	0014c583          	lbu	a1,1(s1)
80000734:	00281713          	slli	a4,a6,0x2
80000738:	01070733          	add	a4,a4,a6
8000073c:	00171713          	slli	a4,a4,0x1
80000740:	00d70833          	add	a6,a4,a3
80000744:	fd058693          	addi	a3,a1,-48
80000748:	0ff6f713          	zext.b	a4,a3
8000074c:	00148493          	addi	s1,s1,1
80000750:	fee570e3          	bgeu	a0,a4,80000730 <vsprintf+0xd8>
80000754:	02e00713          	li	a4,46
80000758:	2ae58a63          	beq	a1,a4,80000a0c <vsprintf+0x3b4>
8000075c:	0004c683          	lbu	a3,0(s1)
80000760:	07300713          	li	a4,115
80000764:	26e68463          	beq	a3,a4,800009cc <vsprintf+0x374>
80000768:	f9d68713          	addi	a4,a3,-99
8000076c:	0ff77713          	zext.b	a4,a4
80000770:	01500613          	li	a2,21
80000774:	04e66463          	bltu	a2,a4,800007bc <vsprintf+0x164>
80000778:	00001797          	auipc	a5,0x1
8000077c:	a9c78793          	addi	a5,a5,-1380 # 80001214 <_etext+0x1b8>
80000780:	00271713          	slli	a4,a4,0x2
80000784:	00f70733          	add	a4,a4,a5
80000788:	00072703          	lw	a4,0(a4)
8000078c:	00f70733          	add	a4,a4,a5
80000790:	00070067          	jr	a4
80000794:	0024c583          	lbu	a1,2(s1)
80000798:	00c12223          	sw	a2,4(sp)
8000079c:	00248493          	addi	s1,s1,2
800007a0:	f61ff06f          	j	80000700 <vsprintf+0xa8>
800007a4:	00d88023          	sb	a3,0(a7)
800007a8:	0024c683          	lbu	a3,2(s1)
800007ac:	00188893          	addi	a7,a7,1
800007b0:	00248493          	addi	s1,s1,2
800007b4:	ec069ce3          	bnez	a3,8000068c <vsprintf+0x34>
800007b8:	ef1ff06f          	j	800006a8 <vsprintf+0x50>
800007bc:	06600713          	li	a4,102
800007c0:	2ee69463          	bne	a3,a4,80000aa8 <vsprintf+0x450>
800007c4:	00012783          	lw	a5,0(sp)
800007c8:	02e00713          	li	a4,46
800007cc:	00148493          	addi	s1,s1,1
800007d0:	00e78023          	sb	a4,0(a5)
800007d4:	000780a3          	sb	zero,1(a5)
800007d8:	00178793          	addi	a5,a5,1
800007dc:	0004c683          	lbu	a3,0(s1)
800007e0:	00f12023          	sw	a5,0(sp)
800007e4:	ec1ff06f          	j	800006a4 <vsprintf+0x4c>
800007e8:	00032583          	lw	a1,0(t1)
800007ec:	01c10413          	addi	s0,sp,28
800007f0:	00000713          	li	a4,0
800007f4:	00430793          	addi	a5,t1,4
800007f8:	01000693          	li	a3,16
800007fc:	00000613          	li	a2,0
80000800:	00040513          	mv	a0,s0
80000804:	01012a23          	sw	a6,20(sp)
80000808:	01112823          	sw	a7,16(sp)
8000080c:	01c12c23          	sw	t3,24(sp)
80000810:	00f12623          	sw	a5,12(sp)
80000814:	d31ff0ef          	jal	ra,80000544 <number_to_str>
80000818:	00040513          	mv	a0,s0
8000081c:	c41ff0ef          	jal	ra,8000045c <strlen>
80000820:	01412803          	lw	a6,20(sp)
80000824:	01012883          	lw	a7,16(sp)
80000828:	40a80733          	sub	a4,a6,a0
8000082c:	2ae05263          	blez	a4,80000ad0 <vsprintf+0x478>
80000830:	01812e03          	lw	t3,24(sp)
80000834:	00e88733          	add	a4,a7,a4
80000838:	00188893          	addi	a7,a7,1
8000083c:	ffc88fa3          	sb	t3,-1(a7)
80000840:	fee89ce3          	bne	a7,a4,80000838 <vsprintf+0x1e0>
80000844:	00070023          	sb	zero,0(a4)
80000848:	00070513          	mv	a0,a4
8000084c:	00040593          	mv	a1,s0
80000850:	00e12823          	sw	a4,16(sp)
80000854:	c5dff0ef          	jal	ra,800004b0 <strcat>
80000858:	00040513          	mv	a0,s0
8000085c:	c01ff0ef          	jal	ra,8000045c <strlen>
80000860:	01012703          	lw	a4,16(sp)
80000864:	0014c683          	lbu	a3,1(s1)
80000868:	00c12303          	lw	t1,12(sp)
8000086c:	00a708b3          	add	a7,a4,a0
80000870:	00148493          	addi	s1,s1,1
80000874:	e31ff06f          	j	800006a4 <vsprintf+0x4c>
80000878:	00032583          	lw	a1,0(t1)
8000087c:	01c10413          	addi	s0,sp,28
80000880:	00000713          	li	a4,0
80000884:	00430793          	addi	a5,t1,4
80000888:	00a00693          	li	a3,10
8000088c:	00000613          	li	a2,0
80000890:	00040513          	mv	a0,s0
80000894:	01012a23          	sw	a6,20(sp)
80000898:	01112823          	sw	a7,16(sp)
8000089c:	01c12c23          	sw	t3,24(sp)
800008a0:	00f12623          	sw	a5,12(sp)
800008a4:	ca1ff0ef          	jal	ra,80000544 <number_to_str>
800008a8:	00040513          	mv	a0,s0
800008ac:	bb1ff0ef          	jal	ra,8000045c <strlen>
800008b0:	01412803          	lw	a6,20(sp)
800008b4:	01012883          	lw	a7,16(sp)
800008b8:	40a80733          	sub	a4,a6,a0
800008bc:	20e05a63          	blez	a4,80000ad0 <vsprintf+0x478>
800008c0:	01812e03          	lw	t3,24(sp)
800008c4:	00e88733          	add	a4,a7,a4
800008c8:	00188893          	addi	a7,a7,1
800008cc:	ffc88fa3          	sb	t3,-1(a7)
800008d0:	fee89ce3          	bne	a7,a4,800008c8 <vsprintf+0x270>
800008d4:	f71ff06f          	j	80000844 <vsprintf+0x1ec>
800008d8:	0014c683          	lbu	a3,1(s1)
800008dc:	06400713          	li	a4,100
800008e0:	dce690e3          	bne	a3,a4,800006a0 <vsprintf+0x48>
800008e4:	00032583          	lw	a1,0(t1)
800008e8:	01c10413          	addi	s0,sp,28
800008ec:	00000713          	li	a4,0
800008f0:	00430793          	addi	a5,t1,4
800008f4:	00a00693          	li	a3,10
800008f8:	00000613          	li	a2,0
800008fc:	00040513          	mv	a0,s0
80000900:	01012c23          	sw	a6,24(sp)
80000904:	01112823          	sw	a7,16(sp)
80000908:	01c12a23          	sw	t3,20(sp)
8000090c:	00f12623          	sw	a5,12(sp)
80000910:	c35ff0ef          	jal	ra,80000544 <number_to_str>
80000914:	00040513          	mv	a0,s0
80000918:	b45ff0ef          	jal	ra,8000045c <strlen>
8000091c:	01812803          	lw	a6,24(sp)
80000920:	01012883          	lw	a7,16(sp)
80000924:	40a80733          	sub	a4,a6,a0
80000928:	1ae05863          	blez	a4,80000ad8 <vsprintf+0x480>
8000092c:	01412e03          	lw	t3,20(sp)
80000930:	00e88733          	add	a4,a7,a4
80000934:	00188893          	addi	a7,a7,1
80000938:	ffc88fa3          	sb	t3,-1(a7)
8000093c:	fee89ce3          	bne	a7,a4,80000934 <vsprintf+0x2dc>
80000940:	00070023          	sb	zero,0(a4)
80000944:	00070513          	mv	a0,a4
80000948:	00040593          	mv	a1,s0
8000094c:	00e12823          	sw	a4,16(sp)
80000950:	b61ff0ef          	jal	ra,800004b0 <strcat>
80000954:	00040513          	mv	a0,s0
80000958:	b05ff0ef          	jal	ra,8000045c <strlen>
8000095c:	01012703          	lw	a4,16(sp)
80000960:	00148613          	addi	a2,s1,1
80000964:	0024c683          	lbu	a3,2(s1)
80000968:	00060493          	mv	s1,a2
8000096c:	00c12303          	lw	t1,12(sp)
80000970:	00a708b3          	add	a7,a4,a0
80000974:	00148493          	addi	s1,s1,1
80000978:	d2dff06f          	j	800006a4 <vsprintf+0x4c>
8000097c:	00032583          	lw	a1,0(t1)
80000980:	00430793          	addi	a5,t1,4
80000984:	00f12623          	sw	a5,12(sp)
80000988:	0a05cc63          	bltz	a1,80000a40 <vsprintf+0x3e8>
8000098c:	00412783          	lw	a5,4(sp)
80000990:	02b00713          	li	a4,43
80000994:	12e78063          	beq	a5,a4,80000ab4 <vsprintf+0x45c>
80000998:	01c10413          	addi	s0,sp,28
8000099c:	02000713          	li	a4,32
800009a0:	00812023          	sw	s0,0(sp)
800009a4:	10e78863          	beq	a5,a4,80000ab4 <vsprintf+0x45c>
800009a8:	00012223          	sw	zero,4(sp)
800009ac:	0ac0006f          	j	80000a58 <vsprintf+0x400>
800009b0:	00032703          	lw	a4,0(t1)
800009b4:	00188893          	addi	a7,a7,1
800009b8:	00430313          	addi	t1,t1,4
800009bc:	fee88fa3          	sb	a4,-1(a7)
800009c0:	0014c683          	lbu	a3,1(s1)
800009c4:	00148493          	addi	s1,s1,1
800009c8:	cddff06f          	j	800006a4 <vsprintf+0x4c>
800009cc:	00032783          	lw	a5,0(t1)
800009d0:	00088513          	mv	a0,a7
800009d4:	00088023          	sb	zero,0(a7)
800009d8:	00078593          	mv	a1,a5
800009dc:	01112623          	sw	a7,12(sp)
800009e0:	00430413          	addi	s0,t1,4
800009e4:	00f12023          	sw	a5,0(sp)
800009e8:	ac9ff0ef          	jal	ra,800004b0 <strcat>
800009ec:	00012503          	lw	a0,0(sp)
800009f0:	00148493          	addi	s1,s1,1
800009f4:	a69ff0ef          	jal	ra,8000045c <strlen>
800009f8:	00c12883          	lw	a7,12(sp)
800009fc:	0004c683          	lbu	a3,0(s1)
80000a00:	00040313          	mv	t1,s0
80000a04:	00a888b3          	add	a7,a7,a0
80000a08:	c9dff06f          	j	800006a4 <vsprintf+0x4c>
80000a0c:	0014c683          	lbu	a3,1(s1)
80000a10:	00900613          	li	a2,9
80000a14:	00148793          	addi	a5,s1,1
80000a18:	fd068713          	addi	a4,a3,-48
80000a1c:	0ff77713          	zext.b	a4,a4
80000a20:	00e66c63          	bltu	a2,a4,80000a38 <vsprintf+0x3e0>
80000a24:	0017c683          	lbu	a3,1(a5)
80000a28:	00178793          	addi	a5,a5,1
80000a2c:	fd068713          	addi	a4,a3,-48
80000a30:	0ff77713          	zext.b	a4,a4
80000a34:	fee678e3          	bgeu	a2,a4,80000a24 <vsprintf+0x3cc>
80000a38:	00078493          	mv	s1,a5
80000a3c:	d25ff06f          	j	80000760 <vsprintf+0x108>
80000a40:	02d00713          	li	a4,45
80000a44:	01d10793          	addi	a5,sp,29
80000a48:	00e10e23          	sb	a4,28(sp)
80000a4c:	40b005b3          	neg	a1,a1
80000a50:	00f12023          	sw	a5,0(sp)
80000a54:	01c10413          	addi	s0,sp,28
80000a58:	00012503          	lw	a0,0(sp)
80000a5c:	00000713          	li	a4,0
80000a60:	00a00693          	li	a3,10
80000a64:	00000613          	li	a2,0
80000a68:	01012a23          	sw	a6,20(sp)
80000a6c:	01112823          	sw	a7,16(sp)
80000a70:	01c12c23          	sw	t3,24(sp)
80000a74:	ad1ff0ef          	jal	ra,80000544 <number_to_str>
80000a78:	00040513          	mv	a0,s0
80000a7c:	9e1ff0ef          	jal	ra,8000045c <strlen>
80000a80:	01412803          	lw	a6,20(sp)
80000a84:	01012883          	lw	a7,16(sp)
80000a88:	40a80733          	sub	a4,a6,a0
80000a8c:	04e05263          	blez	a4,80000ad0 <vsprintf+0x478>
80000a90:	01812e03          	lw	t3,24(sp)
80000a94:	00e88733          	add	a4,a7,a4
80000a98:	00188893          	addi	a7,a7,1
80000a9c:	ffc88fa3          	sb	t3,-1(a7)
80000aa0:	fee89ce3          	bne	a7,a4,80000a98 <vsprintf+0x440>
80000aa4:	da1ff06f          	j	80000844 <vsprintf+0x1ec>
80000aa8:	0014c683          	lbu	a3,1(s1)
80000aac:	00148493          	addi	s1,s1,1
80000ab0:	bf5ff06f          	j	800006a4 <vsprintf+0x4c>
80000ab4:	00412783          	lw	a5,4(sp)
80000ab8:	01c10413          	addi	s0,sp,28
80000abc:	00012223          	sw	zero,4(sp)
80000ac0:	00f10e23          	sb	a5,28(sp)
80000ac4:	01d10793          	addi	a5,sp,29
80000ac8:	00f12023          	sw	a5,0(sp)
80000acc:	f8dff06f          	j	80000a58 <vsprintf+0x400>
80000ad0:	00088713          	mv	a4,a7
80000ad4:	d71ff06f          	j	80000844 <vsprintf+0x1ec>
80000ad8:	00088713          	mv	a4,a7
80000adc:	e65ff06f          	j	80000940 <vsprintf+0x2e8>
80000ae0:	08100613          	li	a2,129
80000ae4:	00000597          	auipc	a1,0x0
80000ae8:	6e058593          	addi	a1,a1,1760 # 800011c4 <_etext+0x168>
80000aec:	00000517          	auipc	a0,0x0
80000af0:	65c50513          	addi	a0,a0,1628 # 80001148 <_etext+0xec>
80000af4:	00c000ef          	jal	ra,80000b00 <printf>
80000af8:	00100513          	li	a0,1
80000afc:	e5cff0ef          	jal	ra,80000158 <halt>

80000b00 <printf>:
80000b00:	bd810113          	addi	sp,sp,-1064
80000b04:	40112823          	sw	ra,1040(sp)
80000b08:	40812623          	sw	s0,1036(sp)
80000b0c:	40912423          	sw	s1,1032(sp)
80000b10:	40b12a23          	sw	a1,1044(sp)
80000b14:	40c12c23          	sw	a2,1048(sp)
80000b18:	40d12e23          	sw	a3,1052(sp)
80000b1c:	42e12023          	sw	a4,1056(sp)
80000b20:	42f12223          	sw	a5,1060(sp)
80000b24:	04050863          	beqz	a0,80000b74 <printf+0x74>
80000b28:	41410613          	addi	a2,sp,1044
80000b2c:	00050593          	mv	a1,a0
80000b30:	00810513          	addi	a0,sp,8
80000b34:	00c12223          	sw	a2,4(sp)
80000b38:	b21ff0ef          	jal	ra,80000658 <vsprintf>
80000b3c:	00a12023          	sw	a0,0(sp)
80000b40:	00a05e63          	blez	a0,80000b5c <printf+0x5c>
80000b44:	00810493          	addi	s1,sp,8
80000b48:	00a48433          	add	s0,s1,a0
80000b4c:	0004c503          	lbu	a0,0(s1)
80000b50:	00148493          	addi	s1,s1,1
80000b54:	df8ff0ef          	jal	ra,8000014c <putch>
80000b58:	fe849ae3          	bne	s1,s0,80000b4c <printf+0x4c>
80000b5c:	41012083          	lw	ra,1040(sp)
80000b60:	40c12403          	lw	s0,1036(sp)
80000b64:	00012503          	lw	a0,0(sp)
80000b68:	40812483          	lw	s1,1032(sp)
80000b6c:	42810113          	addi	sp,sp,1064
80000b70:	00008067          	ret
80000b74:	07200613          	li	a2,114
80000b78:	00000597          	auipc	a1,0x0
80000b7c:	64c58593          	addi	a1,a1,1612 # 800011c4 <_etext+0x168>
80000b80:	00000517          	auipc	a0,0x0
80000b84:	5c850513          	addi	a0,a0,1480 # 80001148 <_etext+0xec>
80000b88:	f79ff0ef          	jal	ra,80000b00 <printf>
80000b8c:	00100513          	li	a0,1
80000b90:	dc8ff0ef          	jal	ra,80000158 <halt>

80000b94 <__udivmoddi4>:
80000b94:	00050313          	mv	t1,a0
80000b98:	02059263          	bnez	a1,80000bbc <__udivmoddi4+0x28>
80000b9c:	1c069c63          	bnez	a3,80000d74 <__udivmoddi4+0x1e0>
80000ba0:	00070863          	beqz	a4,80000bb0 <__udivmoddi4+0x1c>
80000ba4:	02c577b3          	remu	a5,a0,a2
80000ba8:	00072223          	sw	zero,4(a4)
80000bac:	00f72023          	sw	a5,0(a4)
80000bb0:	02c35533          	divu	a0,t1,a2
80000bb4:	00000593          	li	a1,0
80000bb8:	00008067          	ret
80000bbc:	fe010113          	addi	sp,sp,-32
80000bc0:	00812c23          	sw	s0,24(sp)
80000bc4:	00112e23          	sw	ra,28(sp)
80000bc8:	00912a23          	sw	s1,20(sp)
80000bcc:	00058413          	mv	s0,a1
80000bd0:	12061463          	bnez	a2,80000cf8 <__udivmoddi4+0x164>
80000bd4:	20068c63          	beqz	a3,80000dec <__udivmoddi4+0x258>
80000bd8:	2a050c63          	beqz	a0,80000e90 <__udivmoddi4+0x2fc>
80000bdc:	fff68793          	addi	a5,a3,-1
80000be0:	00d7f533          	and	a0,a5,a3
80000be4:	2c050a63          	beqz	a0,80000eb8 <__udivmoddi4+0x324>
80000be8:	00068513          	mv	a0,a3
80000bec:	00c12823          	sw	a2,16(sp)
80000bf0:	00b12623          	sw	a1,12(sp)
80000bf4:	00612423          	sw	t1,8(sp)
80000bf8:	00e12223          	sw	a4,4(sp)
80000bfc:	00d12023          	sw	a3,0(sp)
80000c00:	350000ef          	jal	ra,80000f50 <__clzsi2>
80000c04:	00050493          	mv	s1,a0
80000c08:	00040513          	mv	a0,s0
80000c0c:	344000ef          	jal	ra,80000f50 <__clzsi2>
80000c10:	40a48533          	sub	a0,s1,a0
80000c14:	01e00793          	li	a5,30
80000c18:	00012683          	lw	a3,0(sp)
80000c1c:	00412703          	lw	a4,4(sp)
80000c20:	00812303          	lw	t1,8(sp)
80000c24:	00c12583          	lw	a1,12(sp)
80000c28:	01012603          	lw	a2,16(sp)
80000c2c:	1ca7e863          	bltu	a5,a0,80000dfc <__udivmoddi4+0x268>
80000c30:	00150593          	addi	a1,a0,1
80000c34:	02000e93          	li	t4,32
80000c38:	40be8eb3          	sub	t4,t4,a1
80000c3c:	01d41833          	sll	a6,s0,t4
80000c40:	00b35533          	srl	a0,t1,a1
80000c44:	00b457b3          	srl	a5,s0,a1
80000c48:	01d31eb3          	sll	t4,t1,t4
80000c4c:	00a86433          	or	s0,a6,a0
80000c50:	00000493          	li	s1,0
80000c54:	00000313          	li	t1,0
80000c58:	01fed513          	srli	a0,t4,0x1f
80000c5c:	00141813          	slli	a6,s0,0x1
80000c60:	00a86833          	or	a6,a6,a0
80000c64:	01f45413          	srli	s0,s0,0x1f
80000c68:	00179793          	slli	a5,a5,0x1
80000c6c:	0087e7b3          	or	a5,a5,s0
80000c70:	41060e33          	sub	t3,a2,a6
80000c74:	01c63533          	sltu	a0,a2,t3
80000c78:	40f688b3          	sub	a7,a3,a5
80000c7c:	40a888b3          	sub	a7,a7,a0
80000c80:	001e3e13          	seqz	t3,t3
80000c84:	41c888b3          	sub	a7,a7,t3
80000c88:	41f8de13          	srai	t3,a7,0x1f
80000c8c:	00ce7433          	and	s0,t3,a2
80000c90:	40880433          	sub	s0,a6,s0
80000c94:	00de7e33          	and	t3,t3,a3
80000c98:	01f4d513          	srli	a0,s1,0x1f
80000c9c:	001e9e93          	slli	t4,t4,0x1
80000ca0:	00149493          	slli	s1,s1,0x1
80000ca4:	00883833          	sltu	a6,a6,s0
80000ca8:	41c787b3          	sub	a5,a5,t3
80000cac:	fff58593          	addi	a1,a1,-1
80000cb0:	0064e4b3          	or	s1,s1,t1
80000cb4:	00aeeeb3          	or	t4,t4,a0
80000cb8:	01f8d313          	srli	t1,a7,0x1f
80000cbc:	410787b3          	sub	a5,a5,a6
80000cc0:	f8059ce3          	bnez	a1,80000c58 <__udivmoddi4+0xc4>
80000cc4:	01f4d593          	srli	a1,s1,0x1f
80000cc8:	001e9e93          	slli	t4,t4,0x1
80000ccc:	00149493          	slli	s1,s1,0x1
80000cd0:	0064e533          	or	a0,s1,t1
80000cd4:	01d5e5b3          	or	a1,a1,t4
80000cd8:	00070663          	beqz	a4,80000ce4 <__udivmoddi4+0x150>
80000cdc:	00872023          	sw	s0,0(a4)
80000ce0:	00f72223          	sw	a5,4(a4)
80000ce4:	01c12083          	lw	ra,28(sp)
80000ce8:	01812403          	lw	s0,24(sp)
80000cec:	01412483          	lw	s1,20(sp)
80000cf0:	02010113          	addi	sp,sp,32
80000cf4:	00008067          	ret
80000cf8:	08068a63          	beqz	a3,80000d8c <__udivmoddi4+0x1f8>
80000cfc:	00a12223          	sw	a0,4(sp)
80000d00:	00068513          	mv	a0,a3
80000d04:	00b12423          	sw	a1,8(sp)
80000d08:	00e12023          	sw	a4,0(sp)
80000d0c:	00c12823          	sw	a2,16(sp)
80000d10:	00d12623          	sw	a3,12(sp)
80000d14:	23c000ef          	jal	ra,80000f50 <__clzsi2>
80000d18:	00050493          	mv	s1,a0
80000d1c:	00040513          	mv	a0,s0
80000d20:	230000ef          	jal	ra,80000f50 <__clzsi2>
80000d24:	40a48533          	sub	a0,s1,a0
80000d28:	01f00793          	li	a5,31
80000d2c:	00012703          	lw	a4,0(sp)
80000d30:	00412303          	lw	t1,4(sp)
80000d34:	00812583          	lw	a1,8(sp)
80000d38:	0ca7e263          	bltu	a5,a0,80000dfc <__udivmoddi4+0x268>
80000d3c:	00150593          	addi	a1,a0,1
80000d40:	02000793          	li	a5,32
80000d44:	00c12683          	lw	a3,12(sp)
80000d48:	01012603          	lw	a2,16(sp)
80000d4c:	00030e93          	mv	t4,t1
80000d50:	18f58a63          	beq	a1,a5,80000ee4 <__udivmoddi4+0x350>
80000d54:	40b78533          	sub	a0,a5,a1
80000d58:	00b35833          	srl	a6,t1,a1
80000d5c:	00a418b3          	sll	a7,s0,a0
80000d60:	00b457b3          	srl	a5,s0,a1
80000d64:	00a31eb3          	sll	t4,t1,a0
80000d68:	0108e433          	or	s0,a7,a6
80000d6c:	00000493          	li	s1,0
80000d70:	ee5ff06f          	j	80000c54 <__udivmoddi4+0xc0>
80000d74:	06070e63          	beqz	a4,80000df0 <__udivmoddi4+0x25c>
80000d78:	00a72023          	sw	a0,0(a4)
80000d7c:	00072223          	sw	zero,4(a4)
80000d80:	00000513          	li	a0,0
80000d84:	00000593          	li	a1,0
80000d88:	00008067          	ret
80000d8c:	fff60793          	addi	a5,a2,-1
80000d90:	00c7f533          	and	a0,a5,a2
80000d94:	08051063          	bnez	a0,80000e14 <__udivmoddi4+0x280>
80000d98:	00070863          	beqz	a4,80000da8 <__udivmoddi4+0x214>
80000d9c:	0067f7b3          	and	a5,a5,t1
80000da0:	00f72023          	sw	a5,0(a4)
80000da4:	00072223          	sw	zero,4(a4)
80000da8:	00100793          	li	a5,1
80000dac:	00030513          	mv	a0,t1
80000db0:	f2f60ae3          	beq	a2,a5,80000ce4 <__udivmoddi4+0x150>
80000db4:	00060513          	mv	a0,a2
80000db8:	00b12223          	sw	a1,4(sp)
80000dbc:	00612023          	sw	t1,0(sp)
80000dc0:	228000ef          	jal	ra,80000fe8 <__ctzsi2>
80000dc4:	00412583          	lw	a1,4(sp)
80000dc8:	00012303          	lw	t1,0(sp)
80000dcc:	02000713          	li	a4,32
80000dd0:	40a70733          	sub	a4,a4,a0
80000dd4:	00050793          	mv	a5,a0
80000dd8:	00e59733          	sll	a4,a1,a4
80000ddc:	00a35333          	srl	t1,t1,a0
80000de0:	00676533          	or	a0,a4,t1
80000de4:	00f5d5b3          	srl	a1,a1,a5
80000de8:	efdff06f          	j	80000ce4 <__udivmoddi4+0x150>
80000dec:	00100073          	ebreak
80000df0:	00000513          	li	a0,0
80000df4:	00000593          	li	a1,0
80000df8:	00008067          	ret
80000dfc:	0a070863          	beqz	a4,80000eac <__udivmoddi4+0x318>
80000e00:	00b72223          	sw	a1,4(a4)
80000e04:	00672023          	sw	t1,0(a4)
80000e08:	00000513          	li	a0,0
80000e0c:	00000593          	li	a1,0
80000e10:	ed5ff06f          	j	80000ce4 <__udivmoddi4+0x150>
80000e14:	00060513          	mv	a0,a2
80000e18:	00068493          	mv	s1,a3
80000e1c:	00d12823          	sw	a3,16(sp)
80000e20:	00612623          	sw	t1,12(sp)
80000e24:	00e12423          	sw	a4,8(sp)
80000e28:	00c12223          	sw	a2,4(sp)
80000e2c:	124000ef          	jal	ra,80000f50 <__clzsi2>
80000e30:	00050793          	mv	a5,a0
80000e34:	00040513          	mv	a0,s0
80000e38:	00f12023          	sw	a5,0(sp)
80000e3c:	114000ef          	jal	ra,80000f50 <__clzsi2>
80000e40:	00012783          	lw	a5,0(sp)
80000e44:	00c12303          	lw	t1,12(sp)
80000e48:	02000813          	li	a6,32
80000e4c:	40a78533          	sub	a0,a5,a0
80000e50:	02150593          	addi	a1,a0,33
80000e54:	00412603          	lw	a2,4(sp)
80000e58:	00812703          	lw	a4,8(sp)
80000e5c:	01012683          	lw	a3,16(sp)
80000e60:	00030e93          	mv	t4,t1
80000e64:	00000793          	li	a5,0
80000e68:	df0586e3          	beq	a1,a6,80000c54 <__udivmoddi4+0xc0>
80000e6c:	01f00893          	li	a7,31
80000e70:	08b8e063          	bltu	a7,a1,80000ef0 <__udivmoddi4+0x35c>
80000e74:	40b80833          	sub	a6,a6,a1
80000e78:	00b35533          	srl	a0,t1,a1
80000e7c:	010418b3          	sll	a7,s0,a6
80000e80:	00b457b3          	srl	a5,s0,a1
80000e84:	01031eb3          	sll	t4,t1,a6
80000e88:	00a8e433          	or	s0,a7,a0
80000e8c:	dc9ff06f          	j	80000c54 <__udivmoddi4+0xc0>
80000e90:	00070863          	beqz	a4,80000ea0 <__udivmoddi4+0x30c>
80000e94:	02d5f7b3          	remu	a5,a1,a3
80000e98:	00072023          	sw	zero,0(a4)
80000e9c:	00f72223          	sw	a5,4(a4)
80000ea0:	02d5d533          	divu	a0,a1,a3
80000ea4:	00000593          	li	a1,0
80000ea8:	e3dff06f          	j	80000ce4 <__udivmoddi4+0x150>
80000eac:	00000513          	li	a0,0
80000eb0:	00000593          	li	a1,0
80000eb4:	e31ff06f          	j	80000ce4 <__udivmoddi4+0x150>
80000eb8:	00070863          	beqz	a4,80000ec8 <__udivmoddi4+0x334>
80000ebc:	00b7f7b3          	and	a5,a5,a1
80000ec0:	00672023          	sw	t1,0(a4)
80000ec4:	00f72223          	sw	a5,4(a4)
80000ec8:	00068513          	mv	a0,a3
80000ecc:	00b12023          	sw	a1,0(sp)
80000ed0:	118000ef          	jal	ra,80000fe8 <__ctzsi2>
80000ed4:	00012583          	lw	a1,0(sp)
80000ed8:	00a5d533          	srl	a0,a1,a0
80000edc:	00000593          	li	a1,0
80000ee0:	e05ff06f          	j	80000ce4 <__udivmoddi4+0x150>
80000ee4:	00000793          	li	a5,0
80000ee8:	00000493          	li	s1,0
80000eec:	d69ff06f          	j	80000c54 <__udivmoddi4+0xc0>
80000ef0:	04000813          	li	a6,64
80000ef4:	40b80833          	sub	a6,a6,a1
80000ef8:	00150513          	addi	a0,a0,1
80000efc:	010314b3          	sll	s1,t1,a6
80000f00:	00a35eb3          	srl	t4,t1,a0
80000f04:	01041833          	sll	a6,s0,a6
80000f08:	01d86eb3          	or	t4,a6,t4
80000f0c:	00a45433          	srl	s0,s0,a0
80000f10:	d45ff06f          	j	80000c54 <__udivmoddi4+0xc0>

80000f14 <__udivdi3>:
80000f14:	00000713          	li	a4,0
80000f18:	c7dff06f          	j	80000b94 <__udivmoddi4>

80000f1c <__umoddi3>:
80000f1c:	fec10113          	addi	sp,sp,-20
80000f20:	00812623          	sw	s0,12(sp)
80000f24:	00710413          	addi	s0,sp,7
80000f28:	ff847413          	andi	s0,s0,-8
80000f2c:	00040713          	mv	a4,s0
80000f30:	00112823          	sw	ra,16(sp)
80000f34:	c61ff0ef          	jal	ra,80000b94 <__udivmoddi4>
80000f38:	00042503          	lw	a0,0(s0)
80000f3c:	00442583          	lw	a1,4(s0)
80000f40:	01012083          	lw	ra,16(sp)
80000f44:	00c12403          	lw	s0,12(sp)
80000f48:	01410113          	addi	sp,sp,20
80000f4c:	00008067          	ret

80000f50 <__clzsi2>:
80000f50:	ffff05b7          	lui	a1,0xffff0
80000f54:	00b575b3          	and	a1,a0,a1
80000f58:	0015b593          	seqz	a1,a1
80000f5c:	00459593          	slli	a1,a1,0x4
80000f60:	01000793          	li	a5,16
80000f64:	40b787b3          	sub	a5,a5,a1
80000f68:	00010737          	lui	a4,0x10
80000f6c:	00f557b3          	srl	a5,a0,a5
80000f70:	f0070713          	addi	a4,a4,-256 # ff00 <_entry_offset+0xff00>
80000f74:	00e7f733          	and	a4,a5,a4
80000f78:	00173713          	seqz	a4,a4
80000f7c:	00371713          	slli	a4,a4,0x3
80000f80:	00800693          	li	a3,8
80000f84:	40e686b3          	sub	a3,a3,a4
80000f88:	00d7d7b3          	srl	a5,a5,a3
80000f8c:	0f07f613          	andi	a2,a5,240
80000f90:	00163613          	seqz	a2,a2
80000f94:	00261613          	slli	a2,a2,0x2
80000f98:	00400693          	li	a3,4
80000f9c:	40c686b3          	sub	a3,a3,a2
80000fa0:	00d7d7b3          	srl	a5,a5,a3
80000fa4:	00c7f693          	andi	a3,a5,12
80000fa8:	0016b693          	seqz	a3,a3
80000fac:	00169693          	slli	a3,a3,0x1
80000fb0:	00200813          	li	a6,2
80000fb4:	40d80533          	sub	a0,a6,a3
80000fb8:	00a7d7b3          	srl	a5,a5,a0
80000fbc:	0017d513          	srli	a0,a5,0x1
80000fc0:	00154513          	xori	a0,a0,1
80000fc4:	00b70733          	add	a4,a4,a1
80000fc8:	00157513          	andi	a0,a0,1
80000fcc:	00e60633          	add	a2,a2,a4
80000fd0:	40f80833          	sub	a6,a6,a5
80000fd4:	40a00733          	neg	a4,a0
80000fd8:	01077733          	and	a4,a4,a6
80000fdc:	00c68533          	add	a0,a3,a2
80000fe0:	00a70533          	add	a0,a4,a0
80000fe4:	00008067          	ret

80000fe8 <__ctzsi2>:
80000fe8:	01051593          	slli	a1,a0,0x10
80000fec:	0105d593          	srli	a1,a1,0x10
80000ff0:	0015b593          	seqz	a1,a1
80000ff4:	00459593          	slli	a1,a1,0x4
80000ff8:	00b557b3          	srl	a5,a0,a1
80000ffc:	0ff7f613          	zext.b	a2,a5
80001000:	00163613          	seqz	a2,a2
80001004:	00361613          	slli	a2,a2,0x3
80001008:	00c7d7b3          	srl	a5,a5,a2
8000100c:	00f7f693          	andi	a3,a5,15
80001010:	0016b693          	seqz	a3,a3
80001014:	00269693          	slli	a3,a3,0x2
80001018:	00d7d7b3          	srl	a5,a5,a3
8000101c:	0037f713          	andi	a4,a5,3
80001020:	00173713          	seqz	a4,a4
80001024:	00171713          	slli	a4,a4,0x1
80001028:	00e7d7b3          	srl	a5,a5,a4
8000102c:	0017d513          	srli	a0,a5,0x1
80001030:	00b60633          	add	a2,a2,a1
80001034:	0017f793          	andi	a5,a5,1
80001038:	00157593          	andi	a1,a0,1
8000103c:	00200513          	li	a0,2
80001040:	00c686b3          	add	a3,a3,a2
80001044:	40b50533          	sub	a0,a0,a1
80001048:	fff78793          	addi	a5,a5,-1
8000104c:	00f57533          	and	a0,a0,a5
80001050:	00d70733          	add	a4,a4,a3
80001054:	00e50533          	add	a0,a0,a4
80001058:	00008067          	ret
