
/home/jimple/Documents/ysyx/ysyx-workbench/am-kernels/tests/am-tests/build/amtest-riscv32e-ysyxsoc.elf:     file format elf32-littleriscv

Sections:
Idx Name          Size      VMA       LMA       File off  Algn
  0 .fsbl         000000b0  30000000  30000000  00001000  2**2
                  CONTENTS, ALLOC, LOAD, READONLY, CODE
  1 .ssbl         000000f8  80000000  300000b0  00002000  2**2
                  CONTENTS, ALLOC, LOAD, READONLY, CODE
  2 .text         00001598  a0000000  300001a8  00003000  2**3
                  CONTENTS, ALLOC, LOAD, READONLY, CODE
  3 .rodata       000007b8  a0001598  30001740  00004598  2**2
                  CONTENTS, ALLOC, LOAD, READONLY, DATA
  4 .data         00000208  a0001d50  30001ef8  00004d50  2**2
                  CONTENTS, ALLOC, LOAD, DATA
  5 .bss          00000818  a0001f58  30002100  00004f58  2**3
                  ALLOC
  6 .comment      0000002b  00000000  00000000  00004f58  2**0
                  CONTENTS, READONLY
  7 .riscv.attributes 0000001e  00000000  00000000  00004f83  2**0
                  CONTENTS, READONLY
SYMBOL TABLE:
30000000 l    d  .fsbl	00000000 .fsbl
80000000 l    d  .ssbl	00000000 .ssbl
a0000000 l    d  .text	00000000 .text
a0001598 l    d  .rodata	00000000 .rodata
a0001d50 l    d  .data	00000000 .data
a0001f58 l    d  .bss	00000000 .bss
00000000 l    d  .comment	00000000 .comment
00000000 l    d  .riscv.attributes	00000000 .riscv.attributes
00000000 l    df *ABS*	00000000 start.o
00000000 l    df *ABS*	00000000 trm.c
a0001d48 l     O .rodata	00000005 mainargs
00000000 l    df *ABS*	00000000 mp.c
00000000 l    df *ABS*	00000000 intr.c
00000000 l    df *ABS*	00000000 hello.c
00000000 l    df *ABS*	00000000 main.c
a000174c l     O .rodata	00000400 tests
00000000 l    df *ABS*	00000000 div.o
00000000 l    df *ABS*	00000000 muldi3.o
00000000 l    df *ABS*	00000000 ioe.c
a00003e0 l     F .text	00000010 __am_timer_config
a00003f0 l     F .text	0000000c __am_input_config
a00003fc l     F .text	00000008 __am_uart_config
a0000404 l     F .text	00000068 fail
a0001d50 l     O .data	00000200 lut
00000000 l    df *ABS*	00000000 timer.c
a0002760 l     O .bss	00000008 boot_time
00000000 l    df *ABS*	00000000 input.c
00000000 l    df *ABS*	00000000 gpu.c
a0001f50 l     O .data	00000004 Height
a0001f54 l     O .data	00000004 Width
00000000 l    df *ABS*	00000000 cte.c
a0002768 l     O .bss	00000004 user_handler
00000000 l    df *ABS*	00000000 mpe.c
00000000 l    df *ABS*	00000000 trap.o
00000000 l    df *ABS*	00000000 int64.c
00000000 l    df *ABS*	00000000 string.c
00000000 l    df *ABS*	00000000 stdio.c
a0001f58 l     O .bss	00000400 str_printf
a0002358 l     O .bss	00000400 str_temp
a0002758 g     O .bss	00000004 entry
a00007f4 g     F .text	0000000c yield
800000f8 g       .ssbl	00000000 _ssbl_ram_end
a00014fc g     F .text	00000098 printf
a0001018 g     F .text	000004e4 vsprintf
30000010 g     F .fsbl	00000028 _trm_init
a0040000 g       .bss	00000000 _stack_pointer
a0000800 g     F .text	00000004 iset
a00006f8 g     F .text	0000000c __am_gpu_status
a0001598 g       .text	00000000 _etext
a0000178 g     F .text	0000004c hello
0f000000 g       *ABS*	00000000 _pmem_start
a0000310 g     F .text	00000048 .hidden __hidden___udivsi3
80000000 g     F .ssbl	000000a4 ssbl
a0000310 g     F .text	00000048 __udivsi3
a0001f58 g       .bss	00000000 _bss_start
a0001f58 g       .data	00000000 edata
a00004c0 g     F .text	0000001c ioe_read
800000a4 g     F .ssbl	00000050 device_init
a00008cc g     F .text	00000408 __udivmoddi4
a0000580 g     F .text	0000004c __am_gpu_config
a00b0000 g       *ABS*	00000000 _heap_end
a0000cdc g     F .text	00000034 __umoddi3
a0000558 g     F .text	00000028 __am_input_keybrd
a0001f58 g       .data	00000000 _data_ram_end
a0000cd4 g     F .text	00000008 __udivdi3
a00002c0 g     F .text	00000018 putch
300001a8 g       *ABS*	00000000 _test_origin
a0002770 g       .bss	00000000 _bss_end
a0000804 g     F .text	00000008 mpe_init
a0080000 g       .bss	00000000 _heap_start
a0020000 g       .bss	00000000 _stack_top
a0000e70 g     F .text	00000044 strcat
300000b0 g       .fsbl	00000000 _ssbl_origin
a0000358 g     F .text	00000010 __umodsi3
a0000028 g     F .text	000000ec simple_trap
a0040000 g       .bss	00000000 end
a00005cc g     F .text	0000012c __am_gpu_fbdraw
a0000534 g     F .text	00000024 __am_timer_rtc
a0000d10 g     F .text	00000098 __clzsi2
a00002e4 g     F .text	00000024 uart_init
a0001598 g       .text	00000000 etext
30000000 g     F .fsbl	00000000 _start
00000000 g       *ABS*	00000000 _entry_offset
a00004fc g     F .text	00000038 __am_timer_uptime
a00003bc g     F .text	00000024 __mulsi3
a0000f04 g     F .text	00000114 number_to_str
a00004dc g     F .text	00000020 __am_timer_init
a00007d4 g     F .text	00000020 cte_init
a0000eb4 g     F .text	00000050 memset
a00001c4 g     F .text	000000fc main
a0000000 g       .text	00000000 _text_ram_start
a0000818 g       .text	00000000 __am_asm_trap
a0000114 g     F .text	00000064 hello_intr
a0000308 g     F .text	00000084 __divsi3
a000080c g     F .text	00000008 cpu_current
a0000000 g     F .text	00000028 mp_print
a000046c g     F .text	00000054 ioe_init
a0001f58 g       .data	00000000 _data
a0000da8 g     F .text	00000074 __ctzsi2
a0040000 g       .bss	00000000 _end
a00002d8 g     F .text	0000000c halt
80000000 g       .ssbl	00000000 _ssbl_ram_start
a000038c g     F .text	00000030 __modsi3
a0000e1c g     F .text	00000054 strlen
30000038 g     F .fsbl	00000078 fsbl
a0000704 g     F .text	000000d0 __am_irq_handle



Disassembly of section .fsbl:

30000000 <_start>:
30000000:	00000413          	li	s0,0
30000004:	70040117          	auipc	sp,0x70040
30000008:	ffc10113          	addi	sp,sp,-4 # a0040000 <_end>
3000000c:	004000ef          	jal	ra,30000010 <_trm_init>

30000010 <_trm_init>:
30000010:	ff410113          	addi	sp,sp,-12
30000014:	00112423          	sw	ra,8(sp)
30000018:	00812223          	sw	s0,4(sp)
3000001c:	00c10413          	addi	s0,sp,12
30000020:	018000ef          	jal	ra,30000038 <fsbl>
30000024:	00000013          	nop
30000028:	00812083          	lw	ra,8(sp)
3000002c:	00412403          	lw	s0,4(sp)
30000030:	00c10113          	addi	sp,sp,12
30000034:	00008067          	ret

30000038 <fsbl>:
30000038:	fec10113          	addi	sp,sp,-20
3000003c:	00112823          	sw	ra,16(sp)
30000040:	00812623          	sw	s0,12(sp)
30000044:	01410413          	addi	s0,sp,20
30000048:	00000797          	auipc	a5,0x0
3000004c:	06878793          	addi	a5,a5,104 # 300000b0 <_ssbl_origin>
30000050:	fef42823          	sw	a5,-16(s0)
30000054:	50000797          	auipc	a5,0x50000
30000058:	fac78793          	addi	a5,a5,-84 # 80000000 <ssbl>
3000005c:	fef42623          	sw	a5,-20(s0)
30000060:	0240006f          	j	30000084 <fsbl+0x4c>
30000064:	ff042703          	lw	a4,-16(s0)
30000068:	00470793          	addi	a5,a4,4
3000006c:	fef42823          	sw	a5,-16(s0)
30000070:	fec42783          	lw	a5,-20(s0)
30000074:	00478693          	addi	a3,a5,4
30000078:	fed42623          	sw	a3,-20(s0)
3000007c:	00072703          	lw	a4,0(a4)
30000080:	00e7a023          	sw	a4,0(a5)
30000084:	fec42703          	lw	a4,-20(s0)
30000088:	50000797          	auipc	a5,0x50000
3000008c:	07078793          	addi	a5,a5,112 # 800000f8 <_ssbl_ram_end>
30000090:	fcf76ae3          	bltu	a4,a5,30000064 <fsbl+0x2c>
30000094:	50000097          	auipc	ra,0x50000
30000098:	f6c080e7          	jalr	-148(ra) # 80000000 <ssbl>
3000009c:	00000013          	nop
300000a0:	01012083          	lw	ra,16(sp)
300000a4:	00c12403          	lw	s0,12(sp)
300000a8:	01410113          	addi	sp,sp,20
300000ac:	00008067          	ret

Disassembly of section .ssbl:

80000000 <ssbl>:
80000000:	fec10113          	addi	sp,sp,-20
80000004:	00112823          	sw	ra,16(sp)
80000008:	00812623          	sw	s0,12(sp)
8000000c:	01410413          	addi	s0,sp,20
80000010:	b0000797          	auipc	a5,0xb0000
80000014:	19878793          	addi	a5,a5,408 # 300001a8 <_test_origin>
80000018:	fef42823          	sw	a5,-16(s0)
8000001c:	20000797          	auipc	a5,0x20000
80000020:	fe478793          	addi	a5,a5,-28 # a0000000 <mp_print>
80000024:	fef42623          	sw	a5,-20(s0)
80000028:	0240006f          	j	8000004c <ssbl+0x4c>
8000002c:	ff042703          	lw	a4,-16(s0)
80000030:	00470793          	addi	a5,a4,4
80000034:	fef42823          	sw	a5,-16(s0)
80000038:	fec42783          	lw	a5,-20(s0)
8000003c:	00478693          	addi	a3,a5,4
80000040:	fed42623          	sw	a3,-20(s0)
80000044:	00072703          	lw	a4,0(a4)
80000048:	00e7a023          	sw	a4,0(a5)
8000004c:	fec42703          	lw	a4,-20(s0)
80000050:	20002797          	auipc	a5,0x20002
80000054:	f0878793          	addi	a5,a5,-248 # a0001f58 <str_printf>
80000058:	fcf76ae3          	bltu	a4,a5,8000002c <ssbl+0x2c>
8000005c:	20002797          	auipc	a5,0x20002
80000060:	efc78793          	addi	a5,a5,-260 # a0001f58 <str_printf>
80000064:	fef42823          	sw	a5,-16(s0)
80000068:	0140006f          	j	8000007c <ssbl+0x7c>
8000006c:	ff042783          	lw	a5,-16(s0)
80000070:	00478713          	addi	a4,a5,4
80000074:	fee42823          	sw	a4,-16(s0)
80000078:	0007a023          	sw	zero,0(a5)
8000007c:	ff042703          	lw	a4,-16(s0)
80000080:	20002797          	auipc	a5,0x20002
80000084:	6f078793          	addi	a5,a5,1776 # a0002770 <_bss_end>
80000088:	fef762e3          	bltu	a4,a5,8000006c <ssbl+0x6c>
8000008c:	018000ef          	jal	ra,800000a4 <device_init>
80000090:	00000013          	nop
80000094:	01012083          	lw	ra,16(sp)
80000098:	00c12403          	lw	s0,12(sp)
8000009c:	01410113          	addi	sp,sp,20
800000a0:	00008067          	ret

800000a4 <device_init>:
800000a4:	ff010113          	addi	sp,sp,-16
800000a8:	00112623          	sw	ra,12(sp)
800000ac:	00812423          	sw	s0,8(sp)
800000b0:	01010413          	addi	s0,sp,16
800000b4:	20000097          	auipc	ra,0x20000
800000b8:	230080e7          	jalr	560(ra) # a00002e4 <uart_init>
800000bc:	06600513          	li	a0,102
800000c0:	20000097          	auipc	ra,0x20000
800000c4:	200080e7          	jalr	512(ra) # a00002c0 <putch>
800000c8:	00a00513          	li	a0,10
800000cc:	20000097          	auipc	ra,0x20000
800000d0:	1f4080e7          	jalr	500(ra) # a00002c0 <putch>
800000d4:	20002517          	auipc	a0,0x20002
800000d8:	c7450513          	addi	a0,a0,-908 # a0001d48 <mainargs>
800000dc:	20000097          	auipc	ra,0x20000
800000e0:	0e8080e7          	jalr	232(ra) # a00001c4 <main>
800000e4:	fea42823          	sw	a0,-16(s0)
800000e8:	ff042503          	lw	a0,-16(s0)
800000ec:	20000097          	auipc	ra,0x20000
800000f0:	1ec080e7          	jalr	492(ra) # a00002d8 <halt>
800000f4:	0000                	.2byte	0x0
	...

Disassembly of section .text:

a0000000 <mp_print>:
a0000000:	ff410113          	addi	sp,sp,-12
a0000004:	00812223          	sw	s0,4(sp)
a0000008:	00112423          	sw	ra,8(sp)
a000000c:	00001417          	auipc	s0,0x1
a0000010:	58c40413          	addi	s0,s0,1420 # a0001598 <_etext>
a0000014:	7f8000ef          	jal	ra,a000080c <cpu_current>
a0000018:	00050593          	mv	a1,a0
a000001c:	00040513          	mv	a0,s0
a0000020:	4dc010ef          	jal	ra,a00014fc <printf>
a0000024:	ff1ff06f          	j	a0000014 <mp_print+0x14>

a0000028 <simple_trap>:
a0000028:	00052783          	lw	a5,0(a0)
a000002c:	ff410113          	addi	sp,sp,-12
a0000030:	00812223          	sw	s0,4(sp)
a0000034:	00112423          	sw	ra,8(sp)
a0000038:	00500713          	li	a4,5
a000003c:	00058413          	mv	s0,a1
a0000040:	0ae78c63          	beq	a5,a4,a00000f8 <simple_trap+0xd0>
a0000044:	00600713          	li	a4,6
a0000048:	08e78a63          	beq	a5,a4,a00000dc <simple_trap+0xb4>
a000004c:	00100713          	li	a4,1
a0000050:	06e78863          	beq	a5,a4,a00000c0 <simple_trap+0x98>
a0000054:	00078593          	mv	a1,a5
a0000058:	00001517          	auipc	a0,0x1
a000005c:	5c050513          	addi	a0,a0,1472 # a0001618 <_etext+0x80>
a0000060:	49c010ef          	jal	ra,a00014fc <printf>
a0000064:	00001417          	auipc	s0,0x1
a0000068:	53840413          	addi	s0,s0,1336 # a000159c <_etext+0x4>
a000006c:	04100513          	li	a0,65
a0000070:	00140413          	addi	s0,s0,1
a0000074:	24c000ef          	jal	ra,a00002c0 <putch>
a0000078:	00044503          	lbu	a0,0(s0)
a000007c:	fe051ae3          	bnez	a0,a0000070 <simple_trap+0x48>
a0000080:	00001417          	auipc	s0,0x1
a0000084:	52840413          	addi	s0,s0,1320 # a00015a8 <_etext+0x10>
a0000088:	05500513          	li	a0,85
a000008c:	00140413          	addi	s0,s0,1
a0000090:	230000ef          	jal	ra,a00002c0 <putch>
a0000094:	00044503          	lbu	a0,0(s0)
a0000098:	fe051ae3          	bnez	a0,a000008c <simple_trap+0x64>
a000009c:	00001417          	auipc	s0,0x1
a00000a0:	51c40413          	addi	s0,s0,1308 # a00015b8 <_etext+0x20>
a00000a4:	02000513          	li	a0,32
a00000a8:	00140413          	addi	s0,s0,1
a00000ac:	214000ef          	jal	ra,a00002c0 <putch>
a00000b0:	00044503          	lbu	a0,0(s0)
a00000b4:	fe051ae3          	bnez	a0,a00000a8 <simple_trap+0x80>
a00000b8:	00100513          	li	a0,1
a00000bc:	21c000ef          	jal	ra,a00002d8 <halt>
a00000c0:	07900513          	li	a0,121
a00000c4:	1fc000ef          	jal	ra,a00002c0 <putch>
a00000c8:	00812083          	lw	ra,8(sp)
a00000cc:	00040513          	mv	a0,s0
a00000d0:	00412403          	lw	s0,4(sp)
a00000d4:	00c10113          	addi	sp,sp,12
a00000d8:	00008067          	ret
a00000dc:	06400513          	li	a0,100
a00000e0:	1e0000ef          	jal	ra,a00002c0 <putch>
a00000e4:	00812083          	lw	ra,8(sp)
a00000e8:	00040513          	mv	a0,s0
a00000ec:	00412403          	lw	s0,4(sp)
a00000f0:	00c10113          	addi	sp,sp,12
a00000f4:	00008067          	ret
a00000f8:	07400513          	li	a0,116
a00000fc:	1c4000ef          	jal	ra,a00002c0 <putch>
a0000100:	00812083          	lw	ra,8(sp)
a0000104:	00040513          	mv	a0,s0
a0000108:	00412403          	lw	s0,4(sp)
a000010c:	00c10113          	addi	sp,sp,12
a0000110:	00008067          	ret

a0000114 <hello_intr>:
a0000114:	ff010113          	addi	sp,sp,-16
a0000118:	00001517          	auipc	a0,0x1
a000011c:	51050513          	addi	a0,a0,1296 # a0001628 <_etext+0x90>
a0000120:	00112623          	sw	ra,12(sp)
a0000124:	00812423          	sw	s0,8(sp)
a0000128:	3d4010ef          	jal	ra,a00014fc <printf>
a000012c:	00001517          	auipc	a0,0x1
a0000130:	51850513          	addi	a0,a0,1304 # a0001644 <_etext+0xac>
a0000134:	3c8010ef          	jal	ra,a00014fc <printf>
a0000138:	00010593          	mv	a1,sp
a000013c:	00700513          	li	a0,7
a0000140:	380000ef          	jal	ra,a00004c0 <ioe_read>
a0000144:	00100513          	li	a0,1
a0000148:	6b8000ef          	jal	ra,a0000800 <iset>
a000014c:	06300413          	li	s0,99
a0000150:	00012023          	sw	zero,0(sp)
a0000154:	00012783          	lw	a5,0(sp)
a0000158:	00f44c63          	blt	s0,a5,a0000170 <hello_intr+0x5c>
a000015c:	00012783          	lw	a5,0(sp)
a0000160:	00178793          	addi	a5,a5,1
a0000164:	00f12023          	sw	a5,0(sp)
a0000168:	00012783          	lw	a5,0(sp)
a000016c:	fef458e3          	bge	s0,a5,a000015c <hello_intr+0x48>
a0000170:	684000ef          	jal	ra,a00007f4 <yield>
a0000174:	fddff06f          	j	a0000150 <hello_intr+0x3c>

a0000178 <hello>:
a0000178:	ff410113          	addi	sp,sp,-12
a000017c:	00812223          	sw	s0,4(sp)
a0000180:	00112423          	sw	ra,8(sp)
a0000184:	00912023          	sw	s1,0(sp)
a0000188:	00a00413          	li	s0,10
a000018c:	00001497          	auipc	s1,0x1
a0000190:	49c48493          	addi	s1,s1,1180 # a0001628 <_etext+0x90>
a0000194:	04800513          	li	a0,72
a0000198:	00148493          	addi	s1,s1,1
a000019c:	124000ef          	jal	ra,a00002c0 <putch>
a00001a0:	0004c503          	lbu	a0,0(s1)
a00001a4:	fe051ae3          	bnez	a0,a0000198 <hello+0x20>
a00001a8:	fff40413          	addi	s0,s0,-1
a00001ac:	fe0410e3          	bnez	s0,a000018c <hello+0x14>
a00001b0:	00812083          	lw	ra,8(sp)
a00001b4:	00412403          	lw	s0,4(sp)
a00001b8:	00012483          	lw	s1,0(sp)
a00001bc:	00c10113          	addi	sp,sp,12
a00001c0:	00008067          	ret

a00001c4 <main>:
a00001c4:	ff410113          	addi	sp,sp,-12
a00001c8:	00112423          	sw	ra,8(sp)
a00001cc:	00812223          	sw	s0,4(sp)
a00001d0:	00912023          	sw	s1,0(sp)
a00001d4:	00054783          	lbu	a5,0(a0)
a00001d8:	06900713          	li	a4,105
a00001dc:	08e78263          	beq	a5,a4,a0000260 <main+0x9c>
a00001e0:	06d00713          	li	a4,109
a00001e4:	0ae78e63          	beq	a5,a4,a00002a0 <main+0xdc>
a00001e8:	06800713          	li	a4,104
a00001ec:	08e78e63          	beq	a5,a4,a0000288 <main+0xc4>
a00001f0:	00001517          	auipc	a0,0x1
a00001f4:	47850513          	addi	a0,a0,1144 # a0001668 <_etext+0xd0>
a00001f8:	304010ef          	jal	ra,a00014fc <printf>
a00001fc:	00001497          	auipc	s1,0x1
a0000200:	55448493          	addi	s1,s1,1364 # a0001750 <tests+0x4>
a0000204:	00000413          	li	s0,0
a0000208:	00140413          	addi	s0,s0,1
a000020c:	10000793          	li	a5,256
a0000210:	00040593          	mv	a1,s0
a0000214:	00001517          	auipc	a0,0x1
a0000218:	47050513          	addi	a0,a0,1136 # a0001684 <_etext+0xec>
a000021c:	02f40663          	beq	s0,a5,a0000248 <main+0x84>
a0000220:	0004a603          	lw	a2,0(s1)
a0000224:	00448493          	addi	s1,s1,4
a0000228:	fe0600e3          	beqz	a2,a0000208 <main+0x44>
a000022c:	2d0010ef          	jal	ra,a00014fc <printf>
a0000230:	00140413          	addi	s0,s0,1
a0000234:	10000793          	li	a5,256
a0000238:	00040593          	mv	a1,s0
a000023c:	00001517          	auipc	a0,0x1
a0000240:	44850513          	addi	a0,a0,1096 # a0001684 <_etext+0xec>
a0000244:	fcf41ee3          	bne	s0,a5,a0000220 <main+0x5c>
a0000248:	00812083          	lw	ra,8(sp)
a000024c:	00412403          	lw	s0,4(sp)
a0000250:	00012483          	lw	s1,0(sp)
a0000254:	00000513          	li	a0,0
a0000258:	00c10113          	addi	sp,sp,12
a000025c:	00008067          	ret
a0000260:	00000797          	auipc	a5,0x0
a0000264:	eb478793          	addi	a5,a5,-332 # a0000114 <hello_intr>
a0000268:	00002717          	auipc	a4,0x2
a000026c:	4ef72823          	sw	a5,1264(a4) # a0002758 <entry>
a0000270:	1fc000ef          	jal	ra,a000046c <ioe_init>
a0000274:	00000517          	auipc	a0,0x0
a0000278:	db450513          	addi	a0,a0,-588 # a0000028 <simple_trap>
a000027c:	558000ef          	jal	ra,a00007d4 <cte_init>
a0000280:	e95ff0ef          	jal	ra,a0000114 <hello_intr>
a0000284:	fc5ff06f          	j	a0000248 <main+0x84>
a0000288:	00000797          	auipc	a5,0x0
a000028c:	ef078793          	addi	a5,a5,-272 # a0000178 <hello>
a0000290:	00002717          	auipc	a4,0x2
a0000294:	4cf72423          	sw	a5,1224(a4) # a0002758 <entry>
a0000298:	ee1ff0ef          	jal	ra,a0000178 <hello>
a000029c:	fadff06f          	j	a0000248 <main+0x84>
a00002a0:	00000797          	auipc	a5,0x0
a00002a4:	d6078793          	addi	a5,a5,-672 # a0000000 <mp_print>
a00002a8:	00078513          	mv	a0,a5
a00002ac:	00002717          	auipc	a4,0x2
a00002b0:	4af72623          	sw	a5,1196(a4) # a0002758 <entry>
a00002b4:	550000ef          	jal	ra,a0000804 <mpe_init>
a00002b8:	d49ff0ef          	jal	ra,a0000000 <mp_print>
a00002bc:	f8dff06f          	j	a0000248 <main+0x84>

a00002c0 <putch>:
a00002c0:	10000737          	lui	a4,0x10000
a00002c4:	00574783          	lbu	a5,5(a4) # 10000005 <_pmem_start+0x1000005>
a00002c8:	0207f793          	andi	a5,a5,32
a00002cc:	fe078ce3          	beqz	a5,a00002c4 <putch+0x4>
a00002d0:	00a70023          	sb	a0,0(a4)
a00002d4:	00008067          	ret

a00002d8 <halt>:
a00002d8:	00050513          	mv	a0,a0
a00002dc:	00100073          	ebreak
a00002e0:	0000006f          	j	a00002e0 <halt+0x8>

a00002e4 <uart_init>:
a00002e4:	100007b7          	lui	a5,0x10000
a00002e8:	f8000713          	li	a4,-128
a00002ec:	00e781a3          	sb	a4,3(a5) # 10000003 <_pmem_start+0x1000003>
a00002f0:	00100713          	li	a4,1
a00002f4:	00e78023          	sb	a4,0(a5)
a00002f8:	000780a3          	sb	zero,1(a5)
a00002fc:	00300713          	li	a4,3
a0000300:	00e781a3          	sb	a4,3(a5)
a0000304:	00008067          	ret

a0000308 <__divsi3>:
a0000308:	06054063          	bltz	a0,a0000368 <__umodsi3+0x10>
a000030c:	0605c663          	bltz	a1,a0000378 <__umodsi3+0x20>

a0000310 <__hidden___udivsi3>:
a0000310:	00058613          	mv	a2,a1
a0000314:	00050593          	mv	a1,a0
a0000318:	fff00513          	li	a0,-1
a000031c:	02060c63          	beqz	a2,a0000354 <__hidden___udivsi3+0x44>
a0000320:	00100693          	li	a3,1
a0000324:	00b67a63          	bgeu	a2,a1,a0000338 <__hidden___udivsi3+0x28>
a0000328:	00c05863          	blez	a2,a0000338 <__hidden___udivsi3+0x28>
a000032c:	00161613          	slli	a2,a2,0x1
a0000330:	00169693          	slli	a3,a3,0x1
a0000334:	feb66ae3          	bltu	a2,a1,a0000328 <__hidden___udivsi3+0x18>
a0000338:	00000513          	li	a0,0
a000033c:	00c5e663          	bltu	a1,a2,a0000348 <__hidden___udivsi3+0x38>
a0000340:	40c585b3          	sub	a1,a1,a2
a0000344:	00d56533          	or	a0,a0,a3
a0000348:	0016d693          	srli	a3,a3,0x1
a000034c:	00165613          	srli	a2,a2,0x1
a0000350:	fe0696e3          	bnez	a3,a000033c <__hidden___udivsi3+0x2c>
a0000354:	00008067          	ret

a0000358 <__umodsi3>:
a0000358:	00008293          	mv	t0,ra
a000035c:	fb5ff0ef          	jal	ra,a0000310 <__hidden___udivsi3>
a0000360:	00058513          	mv	a0,a1
a0000364:	00028067          	jr	t0
a0000368:	40a00533          	neg	a0,a0
a000036c:	00b04863          	bgtz	a1,a000037c <__umodsi3+0x24>
a0000370:	40b005b3          	neg	a1,a1
a0000374:	f9dff06f          	j	a0000310 <__hidden___udivsi3>
a0000378:	40b005b3          	neg	a1,a1
a000037c:	00008293          	mv	t0,ra
a0000380:	f91ff0ef          	jal	ra,a0000310 <__hidden___udivsi3>
a0000384:	40a00533          	neg	a0,a0
a0000388:	00028067          	jr	t0

a000038c <__modsi3>:
a000038c:	00008293          	mv	t0,ra
a0000390:	0005ca63          	bltz	a1,a00003a4 <__modsi3+0x18>
a0000394:	00054c63          	bltz	a0,a00003ac <__modsi3+0x20>
a0000398:	f79ff0ef          	jal	ra,a0000310 <__hidden___udivsi3>
a000039c:	00058513          	mv	a0,a1
a00003a0:	00028067          	jr	t0
a00003a4:	40b005b3          	neg	a1,a1
a00003a8:	fe0558e3          	bgez	a0,a0000398 <__modsi3+0xc>
a00003ac:	40a00533          	neg	a0,a0
a00003b0:	f61ff0ef          	jal	ra,a0000310 <__hidden___udivsi3>
a00003b4:	40b00533          	neg	a0,a1
a00003b8:	00028067          	jr	t0

a00003bc <__mulsi3>:
a00003bc:	00050613          	mv	a2,a0
a00003c0:	00000513          	li	a0,0
a00003c4:	0015f693          	andi	a3,a1,1
a00003c8:	00068463          	beqz	a3,a00003d0 <__mulsi3+0x14>
a00003cc:	00c50533          	add	a0,a0,a2
a00003d0:	0015d593          	srli	a1,a1,0x1
a00003d4:	00161613          	slli	a2,a2,0x1
a00003d8:	fe0596e3          	bnez	a1,a00003c4 <__mulsi3+0x8>
a00003dc:	00008067          	ret

a00003e0 <__am_timer_config>:
a00003e0:	00100793          	li	a5,1
a00003e4:	00f50023          	sb	a5,0(a0)
a00003e8:	00f500a3          	sb	a5,1(a0)
a00003ec:	00008067          	ret

a00003f0 <__am_input_config>:
a00003f0:	00100793          	li	a5,1
a00003f4:	00f50023          	sb	a5,0(a0)
a00003f8:	00008067          	ret

a00003fc <__am_uart_config>:
a00003fc:	00050023          	sb	zero,0(a0)
a0000400:	00008067          	ret

a0000404 <fail>:
a0000404:	ff410113          	addi	sp,sp,-12
a0000408:	00812223          	sw	s0,4(sp)
a000040c:	00112423          	sw	ra,8(sp)
a0000410:	00001417          	auipc	s0,0x1
a0000414:	18c40413          	addi	s0,s0,396 # a000159c <_etext+0x4>
a0000418:	04100513          	li	a0,65
a000041c:	00140413          	addi	s0,s0,1
a0000420:	ea1ff0ef          	jal	ra,a00002c0 <putch>
a0000424:	00044503          	lbu	a0,0(s0)
a0000428:	fe051ae3          	bnez	a0,a000041c <fail+0x18>
a000042c:	00001417          	auipc	s0,0x1
a0000430:	72040413          	addi	s0,s0,1824 # a0001b4c <tests+0x400>
a0000434:	06100513          	li	a0,97
a0000438:	00140413          	addi	s0,s0,1
a000043c:	e85ff0ef          	jal	ra,a00002c0 <putch>
a0000440:	00044503          	lbu	a0,0(s0)
a0000444:	fe051ae3          	bnez	a0,a0000438 <fail+0x34>
a0000448:	00001417          	auipc	s0,0x1
a000044c:	72040413          	addi	s0,s0,1824 # a0001b68 <tests+0x41c>
a0000450:	02000513          	li	a0,32
a0000454:	00140413          	addi	s0,s0,1
a0000458:	e69ff0ef          	jal	ra,a00002c0 <putch>
a000045c:	00044503          	lbu	a0,0(s0)
a0000460:	fe051ae3          	bnez	a0,a0000454 <fail+0x50>
a0000464:	00100513          	li	a0,1
a0000468:	e71ff0ef          	jal	ra,a00002d8 <halt>

a000046c <ioe_init>:
a000046c:	ff410113          	addi	sp,sp,-12
a0000470:	00112423          	sw	ra,8(sp)
a0000474:	00002797          	auipc	a5,0x2
a0000478:	8dc78793          	addi	a5,a5,-1828 # a0001d50 <lut>
a000047c:	00002697          	auipc	a3,0x2
a0000480:	ad468693          	addi	a3,a3,-1324 # a0001f50 <Height>
a0000484:	00000617          	auipc	a2,0x0
a0000488:	f8060613          	addi	a2,a2,-128 # a0000404 <fail>
a000048c:	00c0006f          	j	a0000498 <ioe_init+0x2c>
a0000490:	00478793          	addi	a5,a5,4
a0000494:	00d78c63          	beq	a5,a3,a00004ac <ioe_init+0x40>
a0000498:	0007a703          	lw	a4,0(a5)
a000049c:	fe071ae3          	bnez	a4,a0000490 <ioe_init+0x24>
a00004a0:	00c7a023          	sw	a2,0(a5)
a00004a4:	00478793          	addi	a5,a5,4
a00004a8:	fed798e3          	bne	a5,a3,a0000498 <ioe_init+0x2c>
a00004ac:	030000ef          	jal	ra,a00004dc <__am_timer_init>
a00004b0:	00812083          	lw	ra,8(sp)
a00004b4:	00100513          	li	a0,1
a00004b8:	00c10113          	addi	sp,sp,12
a00004bc:	00008067          	ret

a00004c0 <ioe_read>:
a00004c0:	00251513          	slli	a0,a0,0x2
a00004c4:	00002797          	auipc	a5,0x2
a00004c8:	88c78793          	addi	a5,a5,-1908 # a0001d50 <lut>
a00004cc:	00a787b3          	add	a5,a5,a0
a00004d0:	0007a783          	lw	a5,0(a5)
a00004d4:	00058513          	mv	a0,a1
a00004d8:	00078067          	jr	a5

a00004dc <__am_timer_init>:
a00004dc:	020007b7          	lui	a5,0x2000
a00004e0:	0007a683          	lw	a3,0(a5) # 2000000 <_entry_offset+0x2000000>
a00004e4:	0047a703          	lw	a4,4(a5)
a00004e8:	00002797          	auipc	a5,0x2
a00004ec:	27878793          	addi	a5,a5,632 # a0002760 <boot_time>
a00004f0:	00d7a023          	sw	a3,0(a5)
a00004f4:	00e7a223          	sw	a4,4(a5)
a00004f8:	00008067          	ret

a00004fc <__am_timer_uptime>:
a00004fc:	020007b7          	lui	a5,0x2000
a0000500:	00002617          	auipc	a2,0x2
a0000504:	26060613          	addi	a2,a2,608 # a0002760 <boot_time>
a0000508:	0007a683          	lw	a3,0(a5) # 2000000 <_entry_offset+0x2000000>
a000050c:	00062703          	lw	a4,0(a2)
a0000510:	0047a783          	lw	a5,4(a5)
a0000514:	00462603          	lw	a2,4(a2)
a0000518:	40e68733          	sub	a4,a3,a4
a000051c:	00e6b6b3          	sltu	a3,a3,a4
a0000520:	40c787b3          	sub	a5,a5,a2
a0000524:	40d787b3          	sub	a5,a5,a3
a0000528:	00e52023          	sw	a4,0(a0)
a000052c:	00f52223          	sw	a5,4(a0)
a0000530:	00008067          	ret

a0000534 <__am_timer_rtc>:
a0000534:	00100793          	li	a5,1
a0000538:	00f52a23          	sw	a5,20(a0)
a000053c:	00f52823          	sw	a5,16(a0)
a0000540:	00f52623          	sw	a5,12(a0)
a0000544:	00f52423          	sw	a5,8(a0)
a0000548:	00f52223          	sw	a5,4(a0)
a000054c:	7e800793          	li	a5,2024
a0000550:	00f52023          	sw	a5,0(a0)
a0000554:	00008067          	ret

a0000558 <__am_input_keybrd>:
a0000558:	100007b7          	lui	a5,0x10000
a000055c:	0607a783          	lw	a5,96(a5) # 10000060 <_pmem_start+0x1000060>
a0000560:	ffff86b7          	lui	a3,0xffff8
a0000564:	fff68693          	addi	a3,a3,-1 # ffff7fff <_heap_end+0x5ff47fff>
a0000568:	00f7d713          	srli	a4,a5,0xf
a000056c:	00177713          	andi	a4,a4,1
a0000570:	00d7f7b3          	and	a5,a5,a3
a0000574:	00e50023          	sb	a4,0(a0)
a0000578:	00f52223          	sw	a5,4(a0)
a000057c:	00008067          	ret

a0000580 <__am_gpu_config>:
a0000580:	ff410113          	addi	sp,sp,-12
a0000584:	00812223          	sw	s0,4(sp)
a0000588:	00112423          	sw	ra,8(sp)
a000058c:	00050413          	mv	s0,a0
a0000590:	00002597          	auipc	a1,0x2
a0000594:	9c05a583          	lw	a1,-1600(a1) # a0001f50 <Height>
a0000598:	00002517          	auipc	a0,0x2
a000059c:	9bc52503          	lw	a0,-1604(a0) # a0001f54 <Width>
a00005a0:	00100793          	li	a5,1
a00005a4:	00f41023          	sh	a5,0(s0)
a00005a8:	00a42223          	sw	a0,4(s0)
a00005ac:	00b42423          	sw	a1,8(s0)
a00005b0:	e0dff0ef          	jal	ra,a00003bc <__mulsi3>
a00005b4:	00251513          	slli	a0,a0,0x2
a00005b8:	00812083          	lw	ra,8(sp)
a00005bc:	00a42623          	sw	a0,12(s0)
a00005c0:	00412403          	lw	s0,4(sp)
a00005c4:	00c10113          	addi	sp,sp,12
a00005c8:	00008067          	ret

a00005cc <__am_gpu_fbdraw>:
a00005cc:	00452583          	lw	a1,4(a0)
a00005d0:	fe410113          	addi	sp,sp,-28
a00005d4:	00002797          	auipc	a5,0x2
a00005d8:	9807a783          	lw	a5,-1664(a5) # a0001f54 <Width>
a00005dc:	00812a23          	sw	s0,20(sp)
a00005e0:	00a12423          	sw	a0,8(sp)
a00005e4:	00050413          	mv	s0,a0
a00005e8:	00078513          	mv	a0,a5
a00005ec:	00112c23          	sw	ra,24(sp)
a00005f0:	00912823          	sw	s1,16(sp)
a00005f4:	00f12623          	sw	a5,12(sp)
a00005f8:	dc5ff0ef          	jal	ra,a00003bc <__mulsi3>
a00005fc:	01042283          	lw	t0,16(s0)
a0000600:	00042703          	lw	a4,0(s0)
a0000604:	00c42483          	lw	s1,12(s0)
a0000608:	00842783          	lw	a5,8(s0)
a000060c:	00e50633          	add	a2,a0,a4
a0000610:	00028593          	mv	a1,t0
a0000614:	00048513          	mv	a0,s1
a0000618:	00512023          	sw	t0,0(sp)
a000061c:	00261413          	slli	s0,a2,0x2
a0000620:	00f12223          	sw	a5,4(sp)
a0000624:	d99ff0ef          	jal	ra,a00003bc <__mulsi3>
a0000628:	00412583          	lw	a1,4(sp)
a000062c:	00251613          	slli	a2,a0,0x2
a0000630:	e1000537          	lui	a0,0xe1000
a0000634:	00850533          	add	a0,a0,s0
a0000638:	07d000ef          	jal	ra,a0000eb4 <memset>
a000063c:	00012283          	lw	t0,0(sp)
a0000640:	06028863          	beqz	t0,a00006b0 <__am_gpu_fbdraw+0xe4>
a0000644:	00c12783          	lw	a5,12(sp)
a0000648:	00249393          	slli	t2,s1,0x2
a000064c:	00000513          	li	a0,0
a0000650:	409787b3          	sub	a5,a5,s1
a0000654:	00279313          	slli	t1,a5,0x2
a0000658:	00412783          	lw	a5,4(sp)
a000065c:	e10005b7          	lui	a1,0xe1000
a0000660:	40f40633          	sub	a2,s0,a5
a0000664:	007786b3          	add	a3,a5,t2
a0000668:	00000413          	li	s0,0
a000066c:	00412703          	lw	a4,4(sp)
a0000670:	00241793          	slli	a5,s0,0x2
a0000674:	00f707b3          	add	a5,a4,a5
a0000678:	02048263          	beqz	s1,a000069c <__am_gpu_fbdraw+0xd0>
a000067c:	00a12023          	sw	a0,0(sp)
a0000680:	0007a503          	lw	a0,0(a5)
a0000684:	00c78733          	add	a4,a5,a2
a0000688:	00e58733          	add	a4,a1,a4
a000068c:	00a72023          	sw	a0,0(a4)
a0000690:	00478793          	addi	a5,a5,4
a0000694:	fed796e3          	bne	a5,a3,a0000680 <__am_gpu_fbdraw+0xb4>
a0000698:	00012503          	lw	a0,0(sp)
a000069c:	00150513          	addi	a0,a0,1 # e1000001 <_heap_end+0x40f50001>
a00006a0:	00940433          	add	s0,s0,s1
a00006a4:	00660633          	add	a2,a2,t1
a00006a8:	007686b3          	add	a3,a3,t2
a00006ac:	fca290e3          	bne	t0,a0,a000066c <__am_gpu_fbdraw+0xa0>
a00006b0:	00812783          	lw	a5,8(sp)
a00006b4:	0147c783          	lbu	a5,20(a5)
a00006b8:	02078263          	beqz	a5,a00006dc <__am_gpu_fbdraw+0x110>
a00006bc:	01812083          	lw	ra,24(sp)
a00006c0:	01412403          	lw	s0,20(sp)
a00006c4:	100007b7          	lui	a5,0x10000
a00006c8:	00100713          	li	a4,1
a00006cc:	10e7a223          	sw	a4,260(a5) # 10000104 <_pmem_start+0x1000104>
a00006d0:	01012483          	lw	s1,16(sp)
a00006d4:	01c10113          	addi	sp,sp,28
a00006d8:	00008067          	ret
a00006dc:	01812083          	lw	ra,24(sp)
a00006e0:	01412403          	lw	s0,20(sp)
a00006e4:	100007b7          	lui	a5,0x10000
a00006e8:	1007a223          	sw	zero,260(a5) # 10000104 <_pmem_start+0x1000104>
a00006ec:	01012483          	lw	s1,16(sp)
a00006f0:	01c10113          	addi	sp,sp,28
a00006f4:	00008067          	ret

a00006f8 <__am_gpu_status>:
a00006f8:	00100793          	li	a5,1
a00006fc:	00f50023          	sb	a5,0(a0)
a0000700:	00008067          	ret

a0000704 <__am_irq_handle>:
a0000704:	fd410113          	addi	sp,sp,-44
a0000708:	02912023          	sw	s1,32(sp)
a000070c:	00002497          	auipc	s1,0x2
a0000710:	05c48493          	addi	s1,s1,92 # a0002768 <user_handler>
a0000714:	0004a783          	lw	a5,0(s1)
a0000718:	02812223          	sw	s0,36(sp)
a000071c:	02112423          	sw	ra,40(sp)
a0000720:	00050413          	mv	s0,a0
a0000724:	06078063          	beqz	a5,a0000784 <__am_irq_handle+0x80>
a0000728:	04052583          	lw	a1,64(a0)
a000072c:	00012a23          	sw	zero,20(sp)
a0000730:	00012c23          	sw	zero,24(sp)
a0000734:	00012e23          	sw	zero,28(sp)
a0000738:	00b00713          	li	a4,11
a000073c:	04e59e63          	bne	a1,a4,a0000798 <__am_irq_handle+0x94>
a0000740:	04852703          	lw	a4,72(a0)
a0000744:	00100693          	li	a3,1
a0000748:	00d12823          	sw	a3,16(sp)
a000074c:	00470713          	addi	a4,a4,4
a0000750:	04e52423          	sw	a4,72(a0)
a0000754:	01012703          	lw	a4,16(sp)
a0000758:	00040593          	mv	a1,s0
a000075c:	00010513          	mv	a0,sp
a0000760:	00e12023          	sw	a4,0(sp)
a0000764:	01412703          	lw	a4,20(sp)
a0000768:	00e12223          	sw	a4,4(sp)
a000076c:	01812703          	lw	a4,24(sp)
a0000770:	00e12423          	sw	a4,8(sp)
a0000774:	01c12703          	lw	a4,28(sp)
a0000778:	00e12623          	sw	a4,12(sp)
a000077c:	000780e7          	jalr	a5
a0000780:	02050a63          	beqz	a0,a00007b4 <__am_irq_handle+0xb0>
a0000784:	02812083          	lw	ra,40(sp)
a0000788:	02412403          	lw	s0,36(sp)
a000078c:	02012483          	lw	s1,32(sp)
a0000790:	02c10113          	addi	sp,sp,44
a0000794:	00008067          	ret
a0000798:	00400793          	li	a5,4
a000079c:	00001517          	auipc	a0,0x1
a00007a0:	42c50513          	addi	a0,a0,1068 # a0001bc8 <tests+0x47c>
a00007a4:	00f12823          	sw	a5,16(sp)
a00007a8:	555000ef          	jal	ra,a00014fc <printf>
a00007ac:	0004a783          	lw	a5,0(s1)
a00007b0:	fa5ff06f          	j	a0000754 <__am_irq_handle+0x50>
a00007b4:	01600613          	li	a2,22
a00007b8:	00001597          	auipc	a1,0x1
a00007bc:	42458593          	addi	a1,a1,1060 # a0001bdc <tests+0x490>
a00007c0:	00001517          	auipc	a0,0x1
a00007c4:	47450513          	addi	a0,a0,1140 # a0001c34 <tests+0x4e8>
a00007c8:	535000ef          	jal	ra,a00014fc <printf>
a00007cc:	00100513          	li	a0,1
a00007d0:	b09ff0ef          	jal	ra,a00002d8 <halt>

a00007d4 <cte_init>:
a00007d4:	00050793          	mv	a5,a0
a00007d8:	00000717          	auipc	a4,0x0
a00007dc:	04070713          	addi	a4,a4,64 # a0000818 <__am_asm_trap>
a00007e0:	30571073          	.4byte	0x30571073
a00007e4:	00100513          	li	a0,1
a00007e8:	00002717          	auipc	a4,0x2
a00007ec:	f8f72023          	sw	a5,-128(a4) # a0002768 <user_handler>
a00007f0:	00008067          	ret

a00007f4 <yield>:
a00007f4:	fff00793          	li	a5,-1
a00007f8:	00000073          	ecall
a00007fc:	00008067          	ret

a0000800 <iset>:
a0000800:	00008067          	ret

a0000804 <mpe_init>:
a0000804:	00000513          	li	a0,0
a0000808:	00008067          	ret

a000080c <cpu_current>:
a000080c:	00000513          	li	a0,0
a0000810:	00008067          	ret
a0000814:	0000                	.2byte	0x0
	...

a0000818 <__am_asm_trap>:
a0000818:	fb010113          	addi	sp,sp,-80
a000081c:	00112223          	sw	ra,4(sp)
a0000820:	00312623          	sw	gp,12(sp)
a0000824:	00412823          	sw	tp,16(sp)
a0000828:	00512a23          	sw	t0,20(sp)
a000082c:	00612c23          	sw	t1,24(sp)
a0000830:	00712e23          	sw	t2,28(sp)
a0000834:	02812023          	sw	s0,32(sp)
a0000838:	02912223          	sw	s1,36(sp)
a000083c:	02a12423          	sw	a0,40(sp)
a0000840:	02b12623          	sw	a1,44(sp)
a0000844:	02c12823          	sw	a2,48(sp)
a0000848:	02d12a23          	sw	a3,52(sp)
a000084c:	02e12c23          	sw	a4,56(sp)
a0000850:	02f12e23          	sw	a5,60(sp)
a0000854:	342022f3          	.4byte	0x342022f3
a0000858:	30002373          	.4byte	0x30002373
a000085c:	341023f3          	.4byte	0x341023f3
a0000860:	04512023          	sw	t0,64(sp)
a0000864:	04612223          	sw	t1,68(sp)
a0000868:	04712423          	sw	t2,72(sp)
a000086c:	00010513          	mv	a0,sp
a0000870:	e95ff0ef          	jal	ra,a0000704 <__am_irq_handle>
a0000874:	00050113          	mv	sp,a0
a0000878:	04412303          	lw	t1,68(sp)
a000087c:	04812383          	lw	t2,72(sp)
a0000880:	30031073          	.4byte	0x30031073
a0000884:	34139073          	.4byte	0x34139073
a0000888:	00412083          	lw	ra,4(sp)
a000088c:	00c12183          	lw	gp,12(sp)
a0000890:	01012203          	lw	tp,16(sp)
a0000894:	01412283          	lw	t0,20(sp)
a0000898:	01812303          	lw	t1,24(sp)
a000089c:	01c12383          	lw	t2,28(sp)
a00008a0:	02012403          	lw	s0,32(sp)
a00008a4:	02412483          	lw	s1,36(sp)
a00008a8:	02812503          	lw	a0,40(sp)
a00008ac:	02c12583          	lw	a1,44(sp)
a00008b0:	03012603          	lw	a2,48(sp)
a00008b4:	03412683          	lw	a3,52(sp)
a00008b8:	03812703          	lw	a4,56(sp)
a00008bc:	03c12783          	lw	a5,60(sp)
a00008c0:	05010113          	addi	sp,sp,80
a00008c4:	30200073          	mret
a00008c8:	0000                	.2byte	0x0
	...

a00008cc <__udivmoddi4>:
a00008cc:	fe010113          	addi	sp,sp,-32
a00008d0:	00912a23          	sw	s1,20(sp)
a00008d4:	00112e23          	sw	ra,28(sp)
a00008d8:	00812c23          	sw	s0,24(sp)
a00008dc:	00e12223          	sw	a4,4(sp)
a00008e0:	00050313          	mv	t1,a0
a00008e4:	00060493          	mv	s1,a2
a00008e8:	04059663          	bnez	a1,a0000934 <__udivmoddi4+0x68>
a00008ec:	20069463          	bnez	a3,a0000af4 <__udivmoddi4+0x228>
a00008f0:	00070413          	mv	s0,a4
a00008f4:	00070e63          	beqz	a4,a0000910 <__udivmoddi4+0x44>
a00008f8:	00048593          	mv	a1,s1
a00008fc:	00a12023          	sw	a0,0(sp)
a0000900:	a59ff0ef          	jal	ra,a0000358 <__umodsi3>
a0000904:	00012303          	lw	t1,0(sp)
a0000908:	00a42023          	sw	a0,0(s0)
a000090c:	00042223          	sw	zero,4(s0)
a0000910:	00048593          	mv	a1,s1
a0000914:	00030513          	mv	a0,t1
a0000918:	9f9ff0ef          	jal	ra,a0000310 <__hidden___udivsi3>
a000091c:	00000593          	li	a1,0
a0000920:	01c12083          	lw	ra,28(sp)
a0000924:	01812403          	lw	s0,24(sp)
a0000928:	01412483          	lw	s1,20(sp)
a000092c:	02010113          	addi	sp,sp,32
a0000930:	00008067          	ret
a0000934:	00058793          	mv	a5,a1
a0000938:	08061263          	bnez	a2,a00009bc <__udivmoddi4+0xf0>
a000093c:	24068263          	beqz	a3,a0000b80 <__udivmoddi4+0x2b4>
a0000940:	2c050a63          	beqz	a0,a0000c14 <__udivmoddi4+0x348>
a0000944:	fff68613          	addi	a2,a3,-1
a0000948:	00d675b3          	and	a1,a2,a3
a000094c:	32058463          	beqz	a1,a0000c74 <__udivmoddi4+0x3a8>
a0000950:	00a12623          	sw	a0,12(sp)
a0000954:	00068513          	mv	a0,a3
a0000958:	00f12823          	sw	a5,16(sp)
a000095c:	00f12023          	sw	a5,0(sp)
a0000960:	00d12423          	sw	a3,8(sp)
a0000964:	3ac000ef          	jal	ra,a0000d10 <__clzsi2>
a0000968:	00012703          	lw	a4,0(sp)
a000096c:	00050413          	mv	s0,a0
a0000970:	00070513          	mv	a0,a4
a0000974:	39c000ef          	jal	ra,a0000d10 <__clzsi2>
a0000978:	40a40533          	sub	a0,s0,a0
a000097c:	01e00613          	li	a2,30
a0000980:	00012703          	lw	a4,0(sp)
a0000984:	00812683          	lw	a3,8(sp)
a0000988:	00c12303          	lw	t1,12(sp)
a000098c:	01012783          	lw	a5,16(sp)
a0000990:	1ea66a63          	bltu	a2,a0,a0000b84 <__udivmoddi4+0x2b8>
a0000994:	00150393          	addi	t2,a0,1
a0000998:	02000613          	li	a2,32
a000099c:	40760633          	sub	a2,a2,t2
a00009a0:	00c712b3          	sll	t0,a4,a2
a00009a4:	007355b3          	srl	a1,t1,t2
a00009a8:	007757b3          	srl	a5,a4,t2
a00009ac:	00c31533          	sll	a0,t1,a2
a00009b0:	00b2e733          	or	a4,t0,a1
a00009b4:	00000413          	li	s0,0
a00009b8:	0780006f          	j	a0000a30 <__udivmoddi4+0x164>
a00009bc:	16068263          	beqz	a3,a0000b20 <__udivmoddi4+0x254>
a00009c0:	00a12423          	sw	a0,8(sp)
a00009c4:	00068513          	mv	a0,a3
a00009c8:	00b12623          	sw	a1,12(sp)
a00009cc:	00b12023          	sw	a1,0(sp)
a00009d0:	00d12823          	sw	a3,16(sp)
a00009d4:	33c000ef          	jal	ra,a0000d10 <__clzsi2>
a00009d8:	00012703          	lw	a4,0(sp)
a00009dc:	00050413          	mv	s0,a0
a00009e0:	00070513          	mv	a0,a4
a00009e4:	32c000ef          	jal	ra,a0000d10 <__clzsi2>
a00009e8:	40a40533          	sub	a0,s0,a0
a00009ec:	01f00613          	li	a2,31
a00009f0:	00812303          	lw	t1,8(sp)
a00009f4:	00c12783          	lw	a5,12(sp)
a00009f8:	18a66663          	bltu	a2,a0,a0000b84 <__udivmoddi4+0x2b8>
a00009fc:	00150393          	addi	t2,a0,1
a0000a00:	02000793          	li	a5,32
a0000a04:	00012703          	lw	a4,0(sp)
a0000a08:	01012683          	lw	a3,16(sp)
a0000a0c:	00030513          	mv	a0,t1
a0000a10:	28f38a63          	beq	t2,a5,a0000ca4 <__udivmoddi4+0x3d8>
a0000a14:	40778633          	sub	a2,a5,t2
a0000a18:	007355b3          	srl	a1,t1,t2
a0000a1c:	00c71333          	sll	t1,a4,a2
a0000a20:	007757b3          	srl	a5,a4,t2
a0000a24:	00c51533          	sll	a0,a0,a2
a0000a28:	00b36733          	or	a4,t1,a1
a0000a2c:	00000413          	li	s0,0
a0000a30:	00068613          	mv	a2,a3
a0000a34:	00012023          	sw	zero,0(sp)
a0000a38:	00078693          	mv	a3,a5
a0000a3c:	00060793          	mv	a5,a2
a0000a40:	01f55593          	srli	a1,a0,0x1f
a0000a44:	00171613          	slli	a2,a4,0x1
a0000a48:	00b66633          	or	a2,a2,a1
a0000a4c:	01f75713          	srli	a4,a4,0x1f
a0000a50:	00169693          	slli	a3,a3,0x1
a0000a54:	00e6e6b3          	or	a3,a3,a4
a0000a58:	40c48733          	sub	a4,s1,a2
a0000a5c:	00e4b333          	sltu	t1,s1,a4
a0000a60:	40d785b3          	sub	a1,a5,a3
a0000a64:	406585b3          	sub	a1,a1,t1
a0000a68:	00173713          	seqz	a4,a4
a0000a6c:	40e585b3          	sub	a1,a1,a4
a0000a70:	41f5d313          	srai	t1,a1,0x1f
a0000a74:	00937733          	and	a4,t1,s1
a0000a78:	00f37333          	and	t1,t1,a5
a0000a7c:	406686b3          	sub	a3,a3,t1
a0000a80:	00012303          	lw	t1,0(sp)
a0000a84:	40e60733          	sub	a4,a2,a4
a0000a88:	01f5d593          	srli	a1,a1,0x1f
a0000a8c:	01f45293          	srli	t0,s0,0x1f
a0000a90:	00151513          	slli	a0,a0,0x1
a0000a94:	00141413          	slli	s0,s0,0x1
a0000a98:	00e63633          	sltu	a2,a2,a4
a0000a9c:	fff38393          	addi	t2,t2,-1
a0000aa0:	00b12023          	sw	a1,0(sp)
a0000aa4:	00646433          	or	s0,s0,t1
a0000aa8:	00556533          	or	a0,a0,t0
a0000aac:	40c686b3          	sub	a3,a3,a2
a0000ab0:	f80398e3          	bnez	t2,a0000a40 <__udivmoddi4+0x174>
a0000ab4:	01f45593          	srli	a1,s0,0x1f
a0000ab8:	00068793          	mv	a5,a3
a0000abc:	00151693          	slli	a3,a0,0x1
a0000ac0:	00012603          	lw	a2,0(sp)
a0000ac4:	00d5e5b3          	or	a1,a1,a3
a0000ac8:	00412683          	lw	a3,4(sp)
a0000acc:	00141413          	slli	s0,s0,0x1
a0000ad0:	00c46533          	or	a0,s0,a2
a0000ad4:	e40686e3          	beqz	a3,a0000920 <__udivmoddi4+0x54>
a0000ad8:	01c12083          	lw	ra,28(sp)
a0000adc:	01812403          	lw	s0,24(sp)
a0000ae0:	00e6a023          	sw	a4,0(a3)
a0000ae4:	00f6a223          	sw	a5,4(a3)
a0000ae8:	01412483          	lw	s1,20(sp)
a0000aec:	02010113          	addi	sp,sp,32
a0000af0:	00008067          	ret
a0000af4:	00412783          	lw	a5,4(sp)
a0000af8:	08078a63          	beqz	a5,a0000b8c <__udivmoddi4+0x2c0>
a0000afc:	01c12083          	lw	ra,28(sp)
a0000b00:	01812403          	lw	s0,24(sp)
a0000b04:	00a7a023          	sw	a0,0(a5)
a0000b08:	0007a223          	sw	zero,4(a5)
a0000b0c:	01412483          	lw	s1,20(sp)
a0000b10:	00000513          	li	a0,0
a0000b14:	00000593          	li	a1,0
a0000b18:	02010113          	addi	sp,sp,32
a0000b1c:	00008067          	ret
a0000b20:	fff60613          	addi	a2,a2,-1
a0000b24:	009675b3          	and	a1,a2,s1
a0000b28:	06059863          	bnez	a1,a0000b98 <__udivmoddi4+0x2cc>
a0000b2c:	00412703          	lw	a4,4(sp)
a0000b30:	00070863          	beqz	a4,a0000b40 <__udivmoddi4+0x274>
a0000b34:	00a67633          	and	a2,a2,a0
a0000b38:	00c72023          	sw	a2,0(a4)
a0000b3c:	00072223          	sw	zero,4(a4)
a0000b40:	00100713          	li	a4,1
a0000b44:	12e48263          	beq	s1,a4,a0000c68 <__udivmoddi4+0x39c>
a0000b48:	00048513          	mv	a0,s1
a0000b4c:	00f12223          	sw	a5,4(sp)
a0000b50:	00612023          	sw	t1,0(sp)
a0000b54:	254000ef          	jal	ra,a0000da8 <__ctzsi2>
a0000b58:	00412783          	lw	a5,4(sp)
a0000b5c:	00012303          	lw	t1,0(sp)
a0000b60:	02000413          	li	s0,32
a0000b64:	40a40433          	sub	s0,s0,a0
a0000b68:	00050713          	mv	a4,a0
a0000b6c:	00879433          	sll	s0,a5,s0
a0000b70:	00a35533          	srl	a0,t1,a0
a0000b74:	00a46533          	or	a0,s0,a0
a0000b78:	00e7d5b3          	srl	a1,a5,a4
a0000b7c:	da5ff06f          	j	a0000920 <__udivmoddi4+0x54>
a0000b80:	00100073          	ebreak
a0000b84:	00412703          	lw	a4,4(sp)
a0000b88:	0c071663          	bnez	a4,a0000c54 <__udivmoddi4+0x388>
a0000b8c:	00000513          	li	a0,0
a0000b90:	00000593          	li	a1,0
a0000b94:	d8dff06f          	j	a0000920 <__udivmoddi4+0x54>
a0000b98:	00a12623          	sw	a0,12(sp)
a0000b9c:	00048513          	mv	a0,s1
a0000ba0:	00068413          	mv	s0,a3
a0000ba4:	00d12823          	sw	a3,16(sp)
a0000ba8:	00f12023          	sw	a5,0(sp)
a0000bac:	164000ef          	jal	ra,a0000d10 <__clzsi2>
a0000bb0:	00012703          	lw	a4,0(sp)
a0000bb4:	00050613          	mv	a2,a0
a0000bb8:	00c12023          	sw	a2,0(sp)
a0000bbc:	00070513          	mv	a0,a4
a0000bc0:	00e12423          	sw	a4,8(sp)
a0000bc4:	14c000ef          	jal	ra,a0000d10 <__clzsi2>
a0000bc8:	00012603          	lw	a2,0(sp)
a0000bcc:	00c12303          	lw	t1,12(sp)
a0000bd0:	02000593          	li	a1,32
a0000bd4:	40a60633          	sub	a2,a2,a0
a0000bd8:	02160393          	addi	t2,a2,33
a0000bdc:	00812703          	lw	a4,8(sp)
a0000be0:	01012683          	lw	a3,16(sp)
a0000be4:	00030513          	mv	a0,t1
a0000be8:	00000793          	li	a5,0
a0000bec:	e4b382e3          	beq	t2,a1,a0000a30 <__udivmoddi4+0x164>
a0000bf0:	01f00313          	li	t1,31
a0000bf4:	0a736e63          	bltu	t1,t2,a0000cb0 <__udivmoddi4+0x3e4>
a0000bf8:	407585b3          	sub	a1,a1,t2
a0000bfc:	00755633          	srl	a2,a0,t2
a0000c00:	00b71333          	sll	t1,a4,a1
a0000c04:	007757b3          	srl	a5,a4,t2
a0000c08:	00b51533          	sll	a0,a0,a1
a0000c0c:	00c36733          	or	a4,t1,a2
a0000c10:	e21ff06f          	j	a0000a30 <__udivmoddi4+0x164>
a0000c14:	00412403          	lw	s0,4(sp)
a0000c18:	02040463          	beqz	s0,a0000c40 <__udivmoddi4+0x374>
a0000c1c:	00068593          	mv	a1,a3
a0000c20:	00078513          	mv	a0,a5
a0000c24:	00d12223          	sw	a3,4(sp)
a0000c28:	00f12023          	sw	a5,0(sp)
a0000c2c:	f2cff0ef          	jal	ra,a0000358 <__umodsi3>
a0000c30:	00412683          	lw	a3,4(sp)
a0000c34:	00012783          	lw	a5,0(sp)
a0000c38:	00042023          	sw	zero,0(s0)
a0000c3c:	00a42223          	sw	a0,4(s0)
a0000c40:	00068593          	mv	a1,a3
a0000c44:	00078513          	mv	a0,a5
a0000c48:	ec8ff0ef          	jal	ra,a0000310 <__hidden___udivsi3>
a0000c4c:	00000593          	li	a1,0
a0000c50:	cd1ff06f          	j	a0000920 <__udivmoddi4+0x54>
a0000c54:	00672023          	sw	t1,0(a4)
a0000c58:	00f72223          	sw	a5,4(a4)
a0000c5c:	00000513          	li	a0,0
a0000c60:	00000593          	li	a1,0
a0000c64:	cbdff06f          	j	a0000920 <__udivmoddi4+0x54>
a0000c68:	00030513          	mv	a0,t1
a0000c6c:	00078593          	mv	a1,a5
a0000c70:	cb1ff06f          	j	a0000920 <__udivmoddi4+0x54>
a0000c74:	00412703          	lw	a4,4(sp)
a0000c78:	00070863          	beqz	a4,a0000c88 <__udivmoddi4+0x3bc>
a0000c7c:	00f67633          	and	a2,a2,a5
a0000c80:	00a72023          	sw	a0,0(a4)
a0000c84:	00c72223          	sw	a2,4(a4)
a0000c88:	00068513          	mv	a0,a3
a0000c8c:	00f12023          	sw	a5,0(sp)
a0000c90:	118000ef          	jal	ra,a0000da8 <__ctzsi2>
a0000c94:	00012783          	lw	a5,0(sp)
a0000c98:	00000593          	li	a1,0
a0000c9c:	00a7d533          	srl	a0,a5,a0
a0000ca0:	c81ff06f          	j	a0000920 <__udivmoddi4+0x54>
a0000ca4:	00000793          	li	a5,0
a0000ca8:	00000413          	li	s0,0
a0000cac:	d85ff06f          	j	a0000a30 <__udivmoddi4+0x164>
a0000cb0:	04000593          	li	a1,64
a0000cb4:	407585b3          	sub	a1,a1,t2
a0000cb8:	00160613          	addi	a2,a2,1
a0000cbc:	00b51433          	sll	s0,a0,a1
a0000cc0:	00b715b3          	sll	a1,a4,a1
a0000cc4:	00c55533          	srl	a0,a0,a2
a0000cc8:	00a5e533          	or	a0,a1,a0
a0000ccc:	00c75733          	srl	a4,a4,a2
a0000cd0:	d61ff06f          	j	a0000a30 <__udivmoddi4+0x164>

a0000cd4 <__udivdi3>:
a0000cd4:	00000713          	li	a4,0
a0000cd8:	bf5ff06f          	j	a00008cc <__udivmoddi4>

a0000cdc <__umoddi3>:
a0000cdc:	fe810113          	addi	sp,sp,-24
a0000ce0:	00812823          	sw	s0,16(sp)
a0000ce4:	00710413          	addi	s0,sp,7
a0000ce8:	ff847413          	andi	s0,s0,-8
a0000cec:	00040713          	mv	a4,s0
a0000cf0:	00112a23          	sw	ra,20(sp)
a0000cf4:	bd9ff0ef          	jal	ra,a00008cc <__udivmoddi4>
a0000cf8:	00042503          	lw	a0,0(s0)
a0000cfc:	00442583          	lw	a1,4(s0)
a0000d00:	01412083          	lw	ra,20(sp)
a0000d04:	01012403          	lw	s0,16(sp)
a0000d08:	01810113          	addi	sp,sp,24
a0000d0c:	00008067          	ret

a0000d10 <__clzsi2>:
a0000d10:	ffff0637          	lui	a2,0xffff0
a0000d14:	00c57633          	and	a2,a0,a2
a0000d18:	00163613          	seqz	a2,a2
a0000d1c:	00461613          	slli	a2,a2,0x4
a0000d20:	01000793          	li	a5,16
a0000d24:	40c787b3          	sub	a5,a5,a2
a0000d28:	00010737          	lui	a4,0x10
a0000d2c:	00f557b3          	srl	a5,a0,a5
a0000d30:	f0070713          	addi	a4,a4,-256 # ff00 <_entry_offset+0xff00>
a0000d34:	00e7f733          	and	a4,a5,a4
a0000d38:	00173713          	seqz	a4,a4
a0000d3c:	00371713          	slli	a4,a4,0x3
a0000d40:	00800693          	li	a3,8
a0000d44:	40e686b3          	sub	a3,a3,a4
a0000d48:	00d7d7b3          	srl	a5,a5,a3
a0000d4c:	0f07f593          	andi	a1,a5,240
a0000d50:	0015b593          	seqz	a1,a1
a0000d54:	00259593          	slli	a1,a1,0x2
a0000d58:	00400693          	li	a3,4
a0000d5c:	40b686b3          	sub	a3,a3,a1
a0000d60:	00d7d7b3          	srl	a5,a5,a3
a0000d64:	00c7f513          	andi	a0,a5,12
a0000d68:	00153513          	seqz	a0,a0
a0000d6c:	00151513          	slli	a0,a0,0x1
a0000d70:	00200313          	li	t1,2
a0000d74:	40a306b3          	sub	a3,t1,a0
a0000d78:	00d7d7b3          	srl	a5,a5,a3
a0000d7c:	0017d693          	srli	a3,a5,0x1
a0000d80:	0016c693          	xori	a3,a3,1
a0000d84:	00c70733          	add	a4,a4,a2
a0000d88:	0016f693          	andi	a3,a3,1
a0000d8c:	00e585b3          	add	a1,a1,a4
a0000d90:	40f30333          	sub	t1,t1,a5
a0000d94:	40d006b3          	neg	a3,a3
a0000d98:	0066f6b3          	and	a3,a3,t1
a0000d9c:	00b50533          	add	a0,a0,a1
a0000da0:	00a68533          	add	a0,a3,a0
a0000da4:	00008067          	ret

a0000da8 <__ctzsi2>:
a0000da8:	01051593          	slli	a1,a0,0x10
a0000dac:	0105d593          	srli	a1,a1,0x10
a0000db0:	0015b593          	seqz	a1,a1
a0000db4:	00459593          	slli	a1,a1,0x4
a0000db8:	00b557b3          	srl	a5,a0,a1
a0000dbc:	0ff7f613          	zext.b	a2,a5
a0000dc0:	00163613          	seqz	a2,a2
a0000dc4:	00361613          	slli	a2,a2,0x3
a0000dc8:	00c7d7b3          	srl	a5,a5,a2
a0000dcc:	00f7f693          	andi	a3,a5,15
a0000dd0:	0016b693          	seqz	a3,a3
a0000dd4:	00269693          	slli	a3,a3,0x2
a0000dd8:	00d7d7b3          	srl	a5,a5,a3
a0000ddc:	0037f713          	andi	a4,a5,3
a0000de0:	00173713          	seqz	a4,a4
a0000de4:	00171713          	slli	a4,a4,0x1
a0000de8:	00e7d7b3          	srl	a5,a5,a4
a0000dec:	0017d513          	srli	a0,a5,0x1
a0000df0:	00b60633          	add	a2,a2,a1
a0000df4:	0017f793          	andi	a5,a5,1
a0000df8:	00157593          	andi	a1,a0,1
a0000dfc:	00200513          	li	a0,2
a0000e00:	40b50533          	sub	a0,a0,a1
a0000e04:	00c686b3          	add	a3,a3,a2
a0000e08:	fff78793          	addi	a5,a5,-1
a0000e0c:	00f577b3          	and	a5,a0,a5
a0000e10:	00d70533          	add	a0,a4,a3
a0000e14:	00a78533          	add	a0,a5,a0
a0000e18:	00008067          	ret

a0000e1c <strlen>:
a0000e1c:	02050663          	beqz	a0,a0000e48 <strlen+0x2c>
a0000e20:	00054783          	lbu	a5,0(a0)
a0000e24:	00050713          	mv	a4,a0
a0000e28:	00000513          	li	a0,0
a0000e2c:	00078c63          	beqz	a5,a0000e44 <strlen+0x28>
a0000e30:	00150513          	addi	a0,a0,1
a0000e34:	00a707b3          	add	a5,a4,a0
a0000e38:	0007c783          	lbu	a5,0(a5)
a0000e3c:	fe079ae3          	bnez	a5,a0000e30 <strlen+0x14>
a0000e40:	00008067          	ret
a0000e44:	00008067          	ret
a0000e48:	ff410113          	addi	sp,sp,-12
a0000e4c:	00800613          	li	a2,8
a0000e50:	00001597          	auipc	a1,0x1
a0000e54:	e0058593          	addi	a1,a1,-512 # a0001c50 <tests+0x504>
a0000e58:	00001517          	auipc	a0,0x1
a0000e5c:	ddc50513          	addi	a0,a0,-548 # a0001c34 <tests+0x4e8>
a0000e60:	00112423          	sw	ra,8(sp)
a0000e64:	698000ef          	jal	ra,a00014fc <printf>
a0000e68:	00100513          	li	a0,1
a0000e6c:	c6cff0ef          	jal	ra,a00002d8 <halt>

a0000e70 <strcat>:
a0000e70:	00054783          	lbu	a5,0(a0)
a0000e74:	02078c63          	beqz	a5,a0000eac <strcat+0x3c>
a0000e78:	00050793          	mv	a5,a0
a0000e7c:	0017c703          	lbu	a4,1(a5)
a0000e80:	00178793          	addi	a5,a5,1
a0000e84:	fe071ce3          	bnez	a4,a0000e7c <strcat+0xc>
a0000e88:	0005c703          	lbu	a4,0(a1)
a0000e8c:	00070c63          	beqz	a4,a0000ea4 <strcat+0x34>
a0000e90:	00e78023          	sb	a4,0(a5)
a0000e94:	0015c703          	lbu	a4,1(a1)
a0000e98:	00158593          	addi	a1,a1,1
a0000e9c:	00178793          	addi	a5,a5,1
a0000ea0:	fe0718e3          	bnez	a4,a0000e90 <strcat+0x20>
a0000ea4:	00078023          	sb	zero,0(a5)
a0000ea8:	00008067          	ret
a0000eac:	00050793          	mv	a5,a0
a0000eb0:	fd9ff06f          	j	a0000e88 <strcat+0x18>

a0000eb4 <memset>:
a0000eb4:	02050463          	beqz	a0,a0000edc <memset+0x28>
a0000eb8:	0ff5f593          	zext.b	a1,a1
a0000ebc:	00c50733          	add	a4,a0,a2
a0000ec0:	00050793          	mv	a5,a0
a0000ec4:	00060a63          	beqz	a2,a0000ed8 <memset+0x24>
a0000ec8:	00178793          	addi	a5,a5,1
a0000ecc:	feb78fa3          	sb	a1,-1(a5)
a0000ed0:	fee79ce3          	bne	a5,a4,a0000ec8 <memset+0x14>
a0000ed4:	00008067          	ret
a0000ed8:	00008067          	ret
a0000edc:	ff410113          	addi	sp,sp,-12
a0000ee0:	04d00613          	li	a2,77
a0000ee4:	00001597          	auipc	a1,0x1
a0000ee8:	d6c58593          	addi	a1,a1,-660 # a0001c50 <tests+0x504>
a0000eec:	00001517          	auipc	a0,0x1
a0000ef0:	d4850513          	addi	a0,a0,-696 # a0001c34 <tests+0x4e8>
a0000ef4:	00112423          	sw	ra,8(sp)
a0000ef8:	604000ef          	jal	ra,a00014fc <printf>
a0000efc:	00100513          	li	a0,1
a0000f00:	bd8ff0ef          	jal	ra,a00002d8 <halt>

a0000f04 <number_to_str>:
a0000f04:	fe810113          	addi	sp,sp,-24
a0000f08:	00812823          	sw	s0,16(sp)
a0000f0c:	00912623          	sw	s1,12(sp)
a0000f10:	00112a23          	sw	ra,20(sp)
a0000f14:	00060413          	mv	s0,a2
a0000f18:	00050493          	mv	s1,a0
a0000f1c:	00058793          	mv	a5,a1
a0000f20:	04e67463          	bgeu	a2,a4,a0000f68 <number_to_str+0x64>
a0000f24:	0ff7f713          	zext.b	a4,a5
a0000f28:	00148513          	addi	a0,s1,1
a0000f2c:	02040463          	beqz	s0,a0000f54 <number_to_str+0x50>
a0000f30:	03770793          	addi	a5,a4,55
a0000f34:	0ff7f793          	zext.b	a5,a5
a0000f38:	00f48023          	sb	a5,0(s1)
a0000f3c:	000480a3          	sb	zero,1(s1)
a0000f40:	01412083          	lw	ra,20(sp)
a0000f44:	01012403          	lw	s0,16(sp)
a0000f48:	00c12483          	lw	s1,12(sp)
a0000f4c:	01810113          	addi	sp,sp,24
a0000f50:	00008067          	ret
a0000f54:	00900693          	li	a3,9
a0000f58:	fcf6ece3          	bltu	a3,a5,a0000f30 <number_to_str+0x2c>
a0000f5c:	03070793          	addi	a5,a4,48
a0000f60:	0ff7f793          	zext.b	a5,a5
a0000f64:	fd5ff06f          	j	a0000f38 <number_to_str+0x34>
a0000f68:	00068313          	mv	t1,a3
a0000f6c:	00c71463          	bne	a4,a2,a0000f74 <number_to_str+0x70>
a0000f70:	fad5eae3          	bltu	a1,a3,a0000f24 <number_to_str+0x20>
a0000f74:	00030613          	mv	a2,t1
a0000f78:	00070693          	mv	a3,a4
a0000f7c:	00078513          	mv	a0,a5
a0000f80:	00040593          	mv	a1,s0
a0000f84:	00f12423          	sw	a5,8(sp)
a0000f88:	00612223          	sw	t1,4(sp)
a0000f8c:	00e12023          	sw	a4,0(sp)
a0000f90:	d45ff0ef          	jal	ra,a0000cd4 <__udivdi3>
a0000f94:	00412303          	lw	t1,4(sp)
a0000f98:	00012703          	lw	a4,0(sp)
a0000f9c:	00058613          	mv	a2,a1
a0000fa0:	00030693          	mv	a3,t1
a0000fa4:	00050593          	mv	a1,a0
a0000fa8:	00048513          	mv	a0,s1
a0000fac:	f59ff0ef          	jal	ra,a0000f04 <number_to_str>
a0000fb0:	00812783          	lw	a5,8(sp)
a0000fb4:	00412303          	lw	t1,4(sp)
a0000fb8:	00012703          	lw	a4,0(sp)
a0000fbc:	00050293          	mv	t0,a0
a0000fc0:	00040593          	mv	a1,s0
a0000fc4:	00078513          	mv	a0,a5
a0000fc8:	00030613          	mv	a2,t1
a0000fcc:	00070693          	mv	a3,a4
a0000fd0:	00028413          	mv	s0,t0
a0000fd4:	d09ff0ef          	jal	ra,a0000cdc <__umoddi3>
a0000fd8:	00900793          	li	a5,9
a0000fdc:	02a7d663          	bge	a5,a0,a0001008 <number_to_str+0x104>
a0000fe0:	03750793          	addi	a5,a0,55
a0000fe4:	0ff7f793          	zext.b	a5,a5
a0000fe8:	00140513          	addi	a0,s0,1
a0000fec:	00f40023          	sb	a5,0(s0)
a0000ff0:	00050023          	sb	zero,0(a0)
a0000ff4:	01412083          	lw	ra,20(sp)
a0000ff8:	01012403          	lw	s0,16(sp)
a0000ffc:	00c12483          	lw	s1,12(sp)
a0001000:	01810113          	addi	sp,sp,24
a0001004:	00008067          	ret
a0001008:	03050793          	addi	a5,a0,48
a000100c:	0ff7f793          	zext.b	a5,a5
a0001010:	00140513          	addi	a0,s0,1
a0001014:	fd9ff06f          	j	a0000fec <number_to_str+0xe8>

a0001018 <vsprintf>:
a0001018:	fdc10113          	addi	sp,sp,-36
a000101c:	02112023          	sw	ra,32(sp)
a0001020:	00812e23          	sw	s0,28(sp)
a0001024:	00912c23          	sw	s1,24(sp)
a0001028:	00a12223          	sw	a0,4(sp)
a000102c:	4a058863          	beqz	a1,a00014dc <vsprintf+0x4c4>
a0001030:	0005c703          	lbu	a4,0(a1)
a0001034:	00012023          	sw	zero,0(sp)
a0001038:	00058313          	mv	t1,a1
a000103c:	00060413          	mv	s0,a2
a0001040:	00050293          	mv	t0,a0
a0001044:	00000493          	li	s1,0
a0001048:	02070063          	beqz	a4,a0001068 <vsprintf+0x50>
a000104c:	02500793          	li	a5,37
a0001050:	02f70e63          	beq	a4,a5,a000108c <vsprintf+0x74>
a0001054:	00e28023          	sb	a4,0(t0)
a0001058:	00134703          	lbu	a4,1(t1)
a000105c:	00128293          	addi	t0,t0,1
a0001060:	00130313          	addi	t1,t1,1
a0001064:	fe0714e3          	bnez	a4,a000104c <vsprintf+0x34>
a0001068:	00028023          	sb	zero,0(t0)
a000106c:	00412783          	lw	a5,4(sp)
a0001070:	02012083          	lw	ra,32(sp)
a0001074:	01c12403          	lw	s0,28(sp)
a0001078:	00128513          	addi	a0,t0,1
a000107c:	01812483          	lw	s1,24(sp)
a0001080:	40f50533          	sub	a0,a0,a5
a0001084:	02410113          	addi	sp,sp,36
a0001088:	00008067          	ret
a000108c:	00134603          	lbu	a2,1(t1)
a0001090:	0ce60e63          	beq	a2,a4,a000116c <vsprintf+0x154>
a0001094:	fe060713          	addi	a4,a2,-32 # fffeffe0 <_heap_end+0x5ff3ffe0>
a0001098:	0ff77713          	zext.b	a4,a4
a000109c:	00d00793          	li	a5,13
a00010a0:	00e7ec63          	bltu	a5,a4,a00010b8 <vsprintf+0xa0>
a00010a4:	000037b7          	lui	a5,0x3
a00010a8:	80178793          	addi	a5,a5,-2047 # 2801 <_entry_offset+0x2801>
a00010ac:	00e7d7b3          	srl	a5,a5,a4
a00010b0:	0017f793          	andi	a5,a5,1
a00010b4:	0a079463          	bnez	a5,a000115c <vsprintf+0x144>
a00010b8:	00130313          	addi	t1,t1,1
a00010bc:	00060693          	mv	a3,a2
a00010c0:	03000793          	li	a5,48
a00010c4:	02000393          	li	t2,32
a00010c8:	00f69863          	bne	a3,a5,a00010d8 <vsprintf+0xc0>
a00010cc:	00134683          	lbu	a3,1(t1)
a00010d0:	03000393          	li	t2,48
a00010d4:	00130313          	addi	t1,t1,1
a00010d8:	fd068713          	addi	a4,a3,-48
a00010dc:	0ff77613          	zext.b	a2,a4
a00010e0:	00900793          	li	a5,9
a00010e4:	34c7e263          	bltu	a5,a2,a0001428 <vsprintf+0x410>
a00010e8:	00000793          	li	a5,0
a00010ec:	00900613          	li	a2,9
a00010f0:	00078593          	mv	a1,a5
a00010f4:	00134683          	lbu	a3,1(t1)
a00010f8:	00259793          	slli	a5,a1,0x2
a00010fc:	00b787b3          	add	a5,a5,a1
a0001100:	00179793          	slli	a5,a5,0x1
a0001104:	00e785b3          	add	a1,a5,a4
a0001108:	fd068713          	addi	a4,a3,-48
a000110c:	0ff77793          	zext.b	a5,a4
a0001110:	00130313          	addi	t1,t1,1
a0001114:	fef670e3          	bgeu	a2,a5,a00010f4 <vsprintf+0xdc>
a0001118:	00058793          	mv	a5,a1
a000111c:	02e00713          	li	a4,46
a0001120:	2ce68c63          	beq	a3,a4,a00013f8 <vsprintf+0x3e0>
a0001124:	00034683          	lbu	a3,0(t1)
a0001128:	07300713          	li	a4,115
a000112c:	28e68663          	beq	a3,a4,a00013b8 <vsprintf+0x3a0>
a0001130:	f9d68713          	addi	a4,a3,-99
a0001134:	0ff77713          	zext.b	a4,a4
a0001138:	01500613          	li	a2,21
a000113c:	04e66463          	bltu	a2,a4,a0001184 <vsprintf+0x16c>
a0001140:	00001617          	auipc	a2,0x1
a0001144:	bb060613          	addi	a2,a2,-1104 # a0001cf0 <tests+0x5a4>
a0001148:	00271713          	slli	a4,a4,0x2
a000114c:	00c70733          	add	a4,a4,a2
a0001150:	00072703          	lw	a4,0(a4)
a0001154:	00c70733          	add	a4,a4,a2
a0001158:	00070067          	jr	a4
a000115c:	00234683          	lbu	a3,2(t1)
a0001160:	00c12023          	sw	a2,0(sp)
a0001164:	00230313          	addi	t1,t1,2
a0001168:	f59ff06f          	j	a00010c0 <vsprintf+0xa8>
a000116c:	00e28023          	sb	a4,0(t0)
a0001170:	00234703          	lbu	a4,2(t1)
a0001174:	00128293          	addi	t0,t0,1
a0001178:	00230313          	addi	t1,t1,2
a000117c:	ec0718e3          	bnez	a4,a000104c <vsprintf+0x34>
a0001180:	ee9ff06f          	j	a0001068 <vsprintf+0x50>
a0001184:	06600793          	li	a5,102
a0001188:	30f69e63          	bne	a3,a5,a00014a4 <vsprintf+0x48c>
a000118c:	02e00793          	li	a5,46
a0001190:	00f48023          	sb	a5,0(s1)
a0001194:	000480a3          	sb	zero,1(s1)
a0001198:	00134703          	lbu	a4,1(t1)
a000119c:	00148493          	addi	s1,s1,1
a00011a0:	00130313          	addi	t1,t1,1
a00011a4:	ec1ff06f          	j	a0001064 <vsprintf+0x4c>
a00011a8:	00042583          	lw	a1,0(s0)
a00011ac:	01000693          	li	a3,16
a00011b0:	00000713          	li	a4,0
a00011b4:	00000613          	li	a2,0
a00011b8:	00001517          	auipc	a0,0x1
a00011bc:	1a050513          	addi	a0,a0,416 # a0002358 <str_temp>
a00011c0:	00612823          	sw	t1,16(sp)
a00011c4:	00512623          	sw	t0,12(sp)
a00011c8:	00f12423          	sw	a5,8(sp)
a00011cc:	00712a23          	sw	t2,20(sp)
a00011d0:	d35ff0ef          	jal	ra,a0000f04 <number_to_str>
a00011d4:	00001517          	auipc	a0,0x1
a00011d8:	18450513          	addi	a0,a0,388 # a0002358 <str_temp>
a00011dc:	c41ff0ef          	jal	ra,a0000e1c <strlen>
a00011e0:	00812783          	lw	a5,8(sp)
a00011e4:	00c12283          	lw	t0,12(sp)
a00011e8:	01012303          	lw	t1,16(sp)
a00011ec:	40a787b3          	sub	a5,a5,a0
a00011f0:	00440413          	addi	s0,s0,4
a00011f4:	2cf05c63          	blez	a5,a00014cc <vsprintf+0x4b4>
a00011f8:	01412383          	lw	t2,20(sp)
a00011fc:	00f287b3          	add	a5,t0,a5
a0001200:	00128293          	addi	t0,t0,1
a0001204:	fe728fa3          	sb	t2,-1(t0)
a0001208:	fef29ce3          	bne	t0,a5,a0001200 <vsprintf+0x1e8>
a000120c:	00612623          	sw	t1,12(sp)
a0001210:	00078023          	sb	zero,0(a5)
a0001214:	00078513          	mv	a0,a5
a0001218:	00001597          	auipc	a1,0x1
a000121c:	14058593          	addi	a1,a1,320 # a0002358 <str_temp>
a0001220:	00f12423          	sw	a5,8(sp)
a0001224:	c4dff0ef          	jal	ra,a0000e70 <strcat>
a0001228:	00001517          	auipc	a0,0x1
a000122c:	13050513          	addi	a0,a0,304 # a0002358 <str_temp>
a0001230:	bedff0ef          	jal	ra,a0000e1c <strlen>
a0001234:	00c12303          	lw	t1,12(sp)
a0001238:	00812783          	lw	a5,8(sp)
a000123c:	00134703          	lbu	a4,1(t1)
a0001240:	00a782b3          	add	t0,a5,a0
a0001244:	00130313          	addi	t1,t1,1
a0001248:	e1dff06f          	j	a0001064 <vsprintf+0x4c>
a000124c:	00042583          	lw	a1,0(s0)
a0001250:	00a00693          	li	a3,10
a0001254:	00000713          	li	a4,0
a0001258:	00000613          	li	a2,0
a000125c:	00001517          	auipc	a0,0x1
a0001260:	0fc50513          	addi	a0,a0,252 # a0002358 <str_temp>
a0001264:	00612823          	sw	t1,16(sp)
a0001268:	00512623          	sw	t0,12(sp)
a000126c:	00f12423          	sw	a5,8(sp)
a0001270:	00712a23          	sw	t2,20(sp)
a0001274:	c91ff0ef          	jal	ra,a0000f04 <number_to_str>
a0001278:	00001517          	auipc	a0,0x1
a000127c:	0e050513          	addi	a0,a0,224 # a0002358 <str_temp>
a0001280:	b9dff0ef          	jal	ra,a0000e1c <strlen>
a0001284:	00812783          	lw	a5,8(sp)
a0001288:	00c12283          	lw	t0,12(sp)
a000128c:	01012303          	lw	t1,16(sp)
a0001290:	40a787b3          	sub	a5,a5,a0
a0001294:	00440413          	addi	s0,s0,4
a0001298:	22f05a63          	blez	a5,a00014cc <vsprintf+0x4b4>
a000129c:	01412383          	lw	t2,20(sp)
a00012a0:	00f287b3          	add	a5,t0,a5
a00012a4:	00128293          	addi	t0,t0,1
a00012a8:	fe728fa3          	sb	t2,-1(t0)
a00012ac:	fef29ce3          	bne	t0,a5,a00012a4 <vsprintf+0x28c>
a00012b0:	f5dff06f          	j	a000120c <vsprintf+0x1f4>
a00012b4:	00134703          	lbu	a4,1(t1)
a00012b8:	06400693          	li	a3,100
a00012bc:	dad712e3          	bne	a4,a3,a0001060 <vsprintf+0x48>
a00012c0:	00042583          	lw	a1,0(s0)
a00012c4:	00a00693          	li	a3,10
a00012c8:	00000713          	li	a4,0
a00012cc:	00000613          	li	a2,0
a00012d0:	00001517          	auipc	a0,0x1
a00012d4:	08850513          	addi	a0,a0,136 # a0002358 <str_temp>
a00012d8:	00612a23          	sw	t1,20(sp)
a00012dc:	00512823          	sw	t0,16(sp)
a00012e0:	00f12623          	sw	a5,12(sp)
a00012e4:	00712423          	sw	t2,8(sp)
a00012e8:	c1dff0ef          	jal	ra,a0000f04 <number_to_str>
a00012ec:	00001517          	auipc	a0,0x1
a00012f0:	06c50513          	addi	a0,a0,108 # a0002358 <str_temp>
a00012f4:	b29ff0ef          	jal	ra,a0000e1c <strlen>
a00012f8:	00c12783          	lw	a5,12(sp)
a00012fc:	01012283          	lw	t0,16(sp)
a0001300:	01412303          	lw	t1,20(sp)
a0001304:	40a787b3          	sub	a5,a5,a0
a0001308:	00440413          	addi	s0,s0,4
a000130c:	1cf05463          	blez	a5,a00014d4 <vsprintf+0x4bc>
a0001310:	00812383          	lw	t2,8(sp)
a0001314:	00f287b3          	add	a5,t0,a5
a0001318:	00128293          	addi	t0,t0,1
a000131c:	fe728fa3          	sb	t2,-1(t0)
a0001320:	fef29ce3          	bne	t0,a5,a0001318 <vsprintf+0x300>
a0001324:	00078023          	sb	zero,0(a5)
a0001328:	00078513          	mv	a0,a5
a000132c:	00001597          	auipc	a1,0x1
a0001330:	02c58593          	addi	a1,a1,44 # a0002358 <str_temp>
a0001334:	00612623          	sw	t1,12(sp)
a0001338:	00f12423          	sw	a5,8(sp)
a000133c:	b35ff0ef          	jal	ra,a0000e70 <strcat>
a0001340:	00001517          	auipc	a0,0x1
a0001344:	01850513          	addi	a0,a0,24 # a0002358 <str_temp>
a0001348:	ad5ff0ef          	jal	ra,a0000e1c <strlen>
a000134c:	00c12303          	lw	t1,12(sp)
a0001350:	00812783          	lw	a5,8(sp)
a0001354:	00130693          	addi	a3,t1,1
a0001358:	00234703          	lbu	a4,2(t1)
a000135c:	00068313          	mv	t1,a3
a0001360:	00a782b3          	add	t0,a5,a0
a0001364:	00130313          	addi	t1,t1,1
a0001368:	cfdff06f          	j	a0001064 <vsprintf+0x4c>
a000136c:	00042583          	lw	a1,0(s0)
a0001370:	00440413          	addi	s0,s0,4
a0001374:	0a05ce63          	bltz	a1,a0001430 <vsprintf+0x418>
a0001378:	00012683          	lw	a3,0(sp)
a000137c:	02b00713          	li	a4,43
a0001380:	12e68863          	beq	a3,a4,a00014b0 <vsprintf+0x498>
a0001384:	02000713          	li	a4,32
a0001388:	00001497          	auipc	s1,0x1
a000138c:	fd048493          	addi	s1,s1,-48 # a0002358 <str_temp>
a0001390:	12e68063          	beq	a3,a4,a00014b0 <vsprintf+0x498>
a0001394:	00012023          	sw	zero,0(sp)
a0001398:	0b00006f          	j	a0001448 <vsprintf+0x430>
a000139c:	00042783          	lw	a5,0(s0)
a00013a0:	00128293          	addi	t0,t0,1
a00013a4:	00440413          	addi	s0,s0,4
a00013a8:	fef28fa3          	sb	a5,-1(t0)
a00013ac:	00134703          	lbu	a4,1(t1)
a00013b0:	00130313          	addi	t1,t1,1
a00013b4:	cb1ff06f          	j	a0001064 <vsprintf+0x4c>
a00013b8:	00042483          	lw	s1,0(s0)
a00013bc:	00028513          	mv	a0,t0
a00013c0:	00028023          	sb	zero,0(t0)
a00013c4:	00048593          	mv	a1,s1
a00013c8:	00612623          	sw	t1,12(sp)
a00013cc:	00512423          	sw	t0,8(sp)
a00013d0:	aa1ff0ef          	jal	ra,a0000e70 <strcat>
a00013d4:	00048513          	mv	a0,s1
a00013d8:	a45ff0ef          	jal	ra,a0000e1c <strlen>
a00013dc:	00c12303          	lw	t1,12(sp)
a00013e0:	00812283          	lw	t0,8(sp)
a00013e4:	00440413          	addi	s0,s0,4
a00013e8:	00134703          	lbu	a4,1(t1)
a00013ec:	00a282b3          	add	t0,t0,a0
a00013f0:	00130313          	addi	t1,t1,1
a00013f4:	c71ff06f          	j	a0001064 <vsprintf+0x4c>
a00013f8:	00134683          	lbu	a3,1(t1)
a00013fc:	00900613          	li	a2,9
a0001400:	00130313          	addi	t1,t1,1
a0001404:	fd068713          	addi	a4,a3,-48
a0001408:	0ff77713          	zext.b	a4,a4
a000140c:	d0e66ee3          	bltu	a2,a4,a0001128 <vsprintf+0x110>
a0001410:	00134683          	lbu	a3,1(t1)
a0001414:	00130313          	addi	t1,t1,1
a0001418:	fd068713          	addi	a4,a3,-48
a000141c:	0ff77713          	zext.b	a4,a4
a0001420:	fee678e3          	bgeu	a2,a4,a0001410 <vsprintf+0x3f8>
a0001424:	d05ff06f          	j	a0001128 <vsprintf+0x110>
a0001428:	00000793          	li	a5,0
a000142c:	cf1ff06f          	j	a000111c <vsprintf+0x104>
a0001430:	02d00713          	li	a4,45
a0001434:	00001697          	auipc	a3,0x1
a0001438:	f2e68223          	sb	a4,-220(a3) # a0002358 <str_temp>
a000143c:	40b005b3          	neg	a1,a1
a0001440:	00001497          	auipc	s1,0x1
a0001444:	f1948493          	addi	s1,s1,-231 # a0002359 <str_temp+0x1>
a0001448:	00a00693          	li	a3,10
a000144c:	00000713          	li	a4,0
a0001450:	00000613          	li	a2,0
a0001454:	00048513          	mv	a0,s1
a0001458:	00612823          	sw	t1,16(sp)
a000145c:	00512623          	sw	t0,12(sp)
a0001460:	00f12423          	sw	a5,8(sp)
a0001464:	00712a23          	sw	t2,20(sp)
a0001468:	a9dff0ef          	jal	ra,a0000f04 <number_to_str>
a000146c:	00001517          	auipc	a0,0x1
a0001470:	eec50513          	addi	a0,a0,-276 # a0002358 <str_temp>
a0001474:	9a9ff0ef          	jal	ra,a0000e1c <strlen>
a0001478:	00812783          	lw	a5,8(sp)
a000147c:	00c12283          	lw	t0,12(sp)
a0001480:	01012303          	lw	t1,16(sp)
a0001484:	40a787b3          	sub	a5,a5,a0
a0001488:	04f05263          	blez	a5,a00014cc <vsprintf+0x4b4>
a000148c:	01412383          	lw	t2,20(sp)
a0001490:	00f287b3          	add	a5,t0,a5
a0001494:	00128293          	addi	t0,t0,1
a0001498:	fe728fa3          	sb	t2,-1(t0)
a000149c:	fef29ce3          	bne	t0,a5,a0001494 <vsprintf+0x47c>
a00014a0:	d6dff06f          	j	a000120c <vsprintf+0x1f4>
a00014a4:	00134703          	lbu	a4,1(t1)
a00014a8:	00130313          	addi	t1,t1,1
a00014ac:	bb9ff06f          	j	a0001064 <vsprintf+0x4c>
a00014b0:	00012683          	lw	a3,0(sp)
a00014b4:	00001497          	auipc	s1,0x1
a00014b8:	ea548493          	addi	s1,s1,-347 # a0002359 <str_temp+0x1>
a00014bc:	00012023          	sw	zero,0(sp)
a00014c0:	00001717          	auipc	a4,0x1
a00014c4:	e8d70c23          	sb	a3,-360(a4) # a0002358 <str_temp>
a00014c8:	f81ff06f          	j	a0001448 <vsprintf+0x430>
a00014cc:	00028793          	mv	a5,t0
a00014d0:	d3dff06f          	j	a000120c <vsprintf+0x1f4>
a00014d4:	00028793          	mv	a5,t0
a00014d8:	e4dff06f          	j	a0001324 <vsprintf+0x30c>
a00014dc:	08200613          	li	a2,130
a00014e0:	00000597          	auipc	a1,0x0
a00014e4:	7c058593          	addi	a1,a1,1984 # a0001ca0 <tests+0x554>
a00014e8:	00000517          	auipc	a0,0x0
a00014ec:	74c50513          	addi	a0,a0,1868 # a0001c34 <tests+0x4e8>
a00014f0:	00c000ef          	jal	ra,a00014fc <printf>
a00014f4:	00100513          	li	a0,1
a00014f8:	de1fe0ef          	jal	ra,a00002d8 <halt>

a00014fc <printf>:
a00014fc:	fd810113          	addi	sp,sp,-40
a0001500:	00112823          	sw	ra,16(sp)
a0001504:	00812623          	sw	s0,12(sp)
a0001508:	00912423          	sw	s1,8(sp)
a000150c:	00b12a23          	sw	a1,20(sp)
a0001510:	00c12c23          	sw	a2,24(sp)
a0001514:	00d12e23          	sw	a3,28(sp)
a0001518:	02e12023          	sw	a4,32(sp)
a000151c:	02f12223          	sw	a5,36(sp)
a0001520:	04050a63          	beqz	a0,a0001574 <printf+0x78>
a0001524:	00001497          	auipc	s1,0x1
a0001528:	a3448493          	addi	s1,s1,-1484 # a0001f58 <str_printf>
a000152c:	01410613          	addi	a2,sp,20
a0001530:	00050593          	mv	a1,a0
a0001534:	00048513          	mv	a0,s1
a0001538:	00c12223          	sw	a2,4(sp)
a000153c:	addff0ef          	jal	ra,a0001018 <vsprintf>
a0001540:	00a12023          	sw	a0,0(sp)
a0001544:	00a05c63          	blez	a0,a000155c <printf+0x60>
a0001548:	00a48433          	add	s0,s1,a0
a000154c:	0004c503          	lbu	a0,0(s1)
a0001550:	00148493          	addi	s1,s1,1
a0001554:	d6dfe0ef          	jal	ra,a00002c0 <putch>
a0001558:	fe849ae3          	bne	s1,s0,a000154c <printf+0x50>
a000155c:	01012083          	lw	ra,16(sp)
a0001560:	00c12403          	lw	s0,12(sp)
a0001564:	00012503          	lw	a0,0(sp)
a0001568:	00812483          	lw	s1,8(sp)
a000156c:	02810113          	addi	sp,sp,40
a0001570:	00008067          	ret
a0001574:	07400613          	li	a2,116
a0001578:	00000597          	auipc	a1,0x0
a000157c:	72858593          	addi	a1,a1,1832 # a0001ca0 <tests+0x554>
a0001580:	00000517          	auipc	a0,0x0
a0001584:	6b450513          	addi	a0,a0,1716 # a0001c34 <tests+0x4e8>
a0001588:	f75ff0ef          	jal	ra,a00014fc <printf>
a000158c:	00100513          	li	a0,1
a0001590:	d49fe0ef          	jal	ra,a00002d8 <halt>
a0001594:	0000                	.2byte	0x0
	...
