
/home/jimple/Documents/ysyx/ysyx-workbench/am-kernels/tests/am-tests/build/amtest-riscv32-nemu.elf:     file format elf32-littleriscv


Disassembly of section .text:

80000000 <_start>:
80000000:	00000413          	li	s0,0
80000004:	0009e117          	auipc	sp,0x9e
80000008:	ffc10113          	addi	sp,sp,-4 # 8009e000 <_end>
8000000c:	7c5000ef          	jal	ra,80000fd0 <_trm_init>

80000010 <audio_test>:
80000010:	fe410113          	addi	sp,sp,-28
80000014:	00410593          	addi	a1,sp,4
80000018:	00e00513          	li	a0,14
8000001c:	00112c23          	sw	ra,24(sp)
80000020:	00812a23          	sw	s0,20(sp)
80000024:	00912823          	sw	s1,16(sp)
80000028:	0b8010ef          	jal	ra,800010e0 <ioe_read>
8000002c:	00414783          	lbu	a5,4(sp)
80000030:	0c078463          	beqz	a5,800000f8 <audio_test+0xe8>
80000034:	000027b7          	lui	a5,0x2
80000038:	f4078793          	addi	a5,a5,-192 # 1f40 <_entry_offset+0x1f40>
8000003c:	00f12223          	sw	a5,4(sp)
80000040:	00100793          	li	a5,1
80000044:	00f12423          	sw	a5,8(sp)
80000048:	00410593          	addi	a1,sp,4
8000004c:	40000793          	li	a5,1024
80000050:	00f00513          	li	a0,15
80000054:	00f12623          	sw	a5,12(sp)
80000058:	0a4010ef          	jal	ra,800010fc <ioe_write>
8000005c:	00011797          	auipc	a5,0x11
80000060:	f7078793          	addi	a5,a5,-144 # 80010fcc <code>
80000064:	00003697          	auipc	a3,0x3
80000068:	15c68693          	addi	a3,a3,348 # 800031c0 <audio_payload>
8000006c:	40d784b3          	sub	s1,a5,a3
80000070:	06d78063          	beq	a5,a3,800000d0 <audio_test+0xc0>
80000074:	00000413          	li	s0,0
80000078:	00000793          	li	a5,0
8000007c:	40f487b3          	sub	a5,s1,a5
80000080:	00001737          	lui	a4,0x1
80000084:	00068613          	mv	a2,a3
80000088:	00410593          	addi	a1,sp,4
8000008c:	01100513          	li	a0,17
80000090:	00f77463          	bgeu	a4,a5,80000098 <audio_test+0x88>
80000094:	000017b7          	lui	a5,0x1
80000098:	00f686b3          	add	a3,a3,a5
8000009c:	00f40433          	add	s0,s0,a5
800000a0:	00d12423          	sw	a3,8(sp)
800000a4:	00d12023          	sw	a3,0(sp)
800000a8:	00c12223          	sw	a2,4(sp)
800000ac:	050010ef          	jal	ra,800010fc <ioe_write>
800000b0:	00048613          	mv	a2,s1
800000b4:	00040593          	mv	a1,s0
800000b8:	00002517          	auipc	a0,0x2
800000bc:	24c50513          	addi	a0,a0,588 # 80002304 <_etext+0x34>
800000c0:	17c020ef          	jal	ra,8000223c <printf>
800000c4:	00012683          	lw	a3,0(sp)
800000c8:	00040793          	mv	a5,s0
800000cc:	fa9468e3          	bltu	s0,s1,8000007c <audio_test+0x6c>
800000d0:	00410593          	addi	a1,sp,4
800000d4:	01000513          	li	a0,16
800000d8:	008010ef          	jal	ra,800010e0 <ioe_read>
800000dc:	00412783          	lw	a5,4(sp)
800000e0:	fef048e3          	bgtz	a5,800000d0 <audio_test+0xc0>
800000e4:	01812083          	lw	ra,24(sp)
800000e8:	01412403          	lw	s0,20(sp)
800000ec:	01012483          	lw	s1,16(sp)
800000f0:	01c10113          	addi	sp,sp,28
800000f4:	00008067          	ret
800000f8:	01412403          	lw	s0,20(sp)
800000fc:	01812083          	lw	ra,24(sp)
80000100:	01012483          	lw	s1,16(sp)
80000104:	00002597          	auipc	a1,0x2
80000108:	1cc58593          	addi	a1,a1,460 # 800022d0 <_etext>
8000010c:	00002517          	auipc	a0,0x2
80000110:	1d450513          	addi	a0,a0,468 # 800022e0 <_etext+0x10>
80000114:	01c10113          	addi	sp,sp,28
80000118:	1240206f          	j	8000223c <printf>

8000011c <mp_print>:
8000011c:	ff810113          	addi	sp,sp,-8
80000120:	00812023          	sw	s0,0(sp)
80000124:	00112223          	sw	ra,4(sp)
80000128:	00002417          	auipc	s0,0x2
8000012c:	20040413          	addi	s0,s0,512 # 80002328 <_etext+0x58>
80000130:	1e8010ef          	jal	ra,80001318 <cpu_current>
80000134:	00050593          	mv	a1,a0
80000138:	00040513          	mv	a0,s0
8000013c:	100020ef          	jal	ra,8000223c <printf>
80000140:	ff1ff06f          	j	80000130 <mp_print+0x14>

80000144 <rtc_test>:
80000144:	fc810113          	addi	sp,sp,-56
80000148:	02812823          	sw	s0,48(sp)
8000014c:	00100793          	li	a5,1
80000150:	02710413          	addi	s0,sp,39
80000154:	02912623          	sw	s1,44(sp)
80000158:	02112a23          	sw	ra,52(sp)
8000015c:	ff847413          	andi	s0,s0,-8
80000160:	00f12223          	sw	a5,4(sp)
80000164:	00000493          	li	s1,0
80000168:	00040593          	mv	a1,s0
8000016c:	00600513          	li	a0,6
80000170:	771000ef          	jal	ra,800010e0 <ioe_read>
80000174:	00042503          	lw	a0,0(s0)
80000178:	00442583          	lw	a1,4(s0)
8000017c:	000f4637          	lui	a2,0xf4
80000180:	24060613          	addi	a2,a2,576 # f4240 <_entry_offset+0xf4240>
80000184:	00000693          	li	a3,0
80000188:	045010ef          	jal	ra,800019cc <__udivdi3>
8000018c:	fc95eee3          	bltu	a1,s1,80000168 <rtc_test+0x24>
80000190:	00b49663          	bne	s1,a1,8000019c <rtc_test+0x58>
80000194:	00412783          	lw	a5,4(sp)
80000198:	fcf568e3          	bltu	a0,a5,80000168 <rtc_test+0x24>
8000019c:	00810593          	addi	a1,sp,8
800001a0:	00500513          	li	a0,5
800001a4:	73d000ef          	jal	ra,800010e0 <ioe_read>
800001a8:	01c12503          	lw	a0,28(sp)
800001ac:	01812783          	lw	a5,24(sp)
800001b0:	01412703          	lw	a4,20(sp)
800001b4:	00812583          	lw	a1,8(sp)
800001b8:	01012683          	lw	a3,16(sp)
800001bc:	00c12603          	lw	a2,12(sp)
800001c0:	00a12023          	sw	a0,0(sp)
800001c4:	00002517          	auipc	a0,0x2
800001c8:	16850513          	addi	a0,a0,360 # 8000232c <_etext+0x5c>
800001cc:	070020ef          	jal	ra,8000223c <printf>
800001d0:	00412703          	lw	a4,4(sp)
800001d4:	00100793          	li	a5,1
800001d8:	00100593          	li	a1,1
800001dc:	00002517          	auipc	a0,0x2
800001e0:	17050513          	addi	a0,a0,368 # 8000234c <_etext+0x7c>
800001e4:	00f70863          	beq	a4,a5,800001f4 <rtc_test+0xb0>
800001e8:	00412583          	lw	a1,4(sp)
800001ec:	00002517          	auipc	a0,0x2
800001f0:	17050513          	addi	a0,a0,368 # 8000235c <_etext+0x8c>
800001f4:	048020ef          	jal	ra,8000223c <printf>
800001f8:	00412703          	lw	a4,4(sp)
800001fc:	00170793          	addi	a5,a4,1 # 1001 <_entry_offset+0x1001>
80000200:	00e7b733          	sltu	a4,a5,a4
80000204:	009704b3          	add	s1,a4,s1
80000208:	00f12223          	sw	a5,4(sp)
8000020c:	f5dff06f          	j	80000168 <rtc_test+0x24>

80000210 <simple_trap>:
80000210:	00052783          	lw	a5,0(a0)
80000214:	ff810113          	addi	sp,sp,-8
80000218:	00812023          	sw	s0,0(sp)
8000021c:	00112223          	sw	ra,4(sp)
80000220:	00500713          	li	a4,5
80000224:	00058413          	mv	s0,a1
80000228:	0ae78c63          	beq	a5,a4,800002e0 <simple_trap+0xd0>
8000022c:	00600713          	li	a4,6
80000230:	08e78a63          	beq	a5,a4,800002c4 <simple_trap+0xb4>
80000234:	00100713          	li	a4,1
80000238:	06e78863          	beq	a5,a4,800002a8 <simple_trap+0x98>
8000023c:	00078593          	mv	a1,a5
80000240:	00002517          	auipc	a0,0x2
80000244:	1a850513          	addi	a0,a0,424 # 800023e8 <_etext+0x118>
80000248:	7f5010ef          	jal	ra,8000223c <printf>
8000024c:	00002417          	auipc	s0,0x2
80000250:	12040413          	addi	s0,s0,288 # 8000236c <_etext+0x9c>
80000254:	04100513          	li	a0,65
80000258:	00140413          	addi	s0,s0,1
8000025c:	55d000ef          	jal	ra,80000fb8 <putch>
80000260:	00044503          	lbu	a0,0(s0)
80000264:	fe051ae3          	bnez	a0,80000258 <simple_trap+0x48>
80000268:	00002417          	auipc	s0,0x2
8000026c:	11040413          	addi	s0,s0,272 # 80002378 <_etext+0xa8>
80000270:	05500513          	li	a0,85
80000274:	00140413          	addi	s0,s0,1
80000278:	541000ef          	jal	ra,80000fb8 <putch>
8000027c:	00044503          	lbu	a0,0(s0)
80000280:	fe051ae3          	bnez	a0,80000274 <simple_trap+0x64>
80000284:	00002417          	auipc	s0,0x2
80000288:	10440413          	addi	s0,s0,260 # 80002388 <_etext+0xb8>
8000028c:	02000513          	li	a0,32
80000290:	00140413          	addi	s0,s0,1
80000294:	525000ef          	jal	ra,80000fb8 <putch>
80000298:	00044503          	lbu	a0,0(s0)
8000029c:	fe051ae3          	bnez	a0,80000290 <simple_trap+0x80>
800002a0:	00100513          	li	a0,1
800002a4:	521000ef          	jal	ra,80000fc4 <halt>
800002a8:	07900513          	li	a0,121
800002ac:	50d000ef          	jal	ra,80000fb8 <putch>
800002b0:	00412083          	lw	ra,4(sp)
800002b4:	00040513          	mv	a0,s0
800002b8:	00012403          	lw	s0,0(sp)
800002bc:	00810113          	addi	sp,sp,8
800002c0:	00008067          	ret
800002c4:	06400513          	li	a0,100
800002c8:	4f1000ef          	jal	ra,80000fb8 <putch>
800002cc:	00412083          	lw	ra,4(sp)
800002d0:	00040513          	mv	a0,s0
800002d4:	00012403          	lw	s0,0(sp)
800002d8:	00810113          	addi	sp,sp,8
800002dc:	00008067          	ret
800002e0:	07400513          	li	a0,116
800002e4:	4d5000ef          	jal	ra,80000fb8 <putch>
800002e8:	00412083          	lw	ra,4(sp)
800002ec:	00040513          	mv	a0,s0
800002f0:	00012403          	lw	s0,0(sp)
800002f4:	00810113          	addi	sp,sp,8
800002f8:	00008067          	ret

800002fc <hello_intr>:
800002fc:	ff410113          	addi	sp,sp,-12
80000300:	00002517          	auipc	a0,0x2
80000304:	0f850513          	addi	a0,a0,248 # 800023f8 <_etext+0x128>
80000308:	00112423          	sw	ra,8(sp)
8000030c:	00812223          	sw	s0,4(sp)
80000310:	72d010ef          	jal	ra,8000223c <printf>
80000314:	00002517          	auipc	a0,0x2
80000318:	10050513          	addi	a0,a0,256 # 80002414 <_etext+0x144>
8000031c:	721010ef          	jal	ra,8000223c <printf>
80000320:	00010593          	mv	a1,sp
80000324:	00700513          	li	a0,7
80000328:	5b9000ef          	jal	ra,800010e0 <ioe_read>
8000032c:	00100513          	li	a0,1
80000330:	00989437          	lui	s0,0x989
80000334:	0e8010ef          	jal	ra,8000141c <iset>
80000338:	67f40413          	addi	s0,s0,1663 # 98967f <_entry_offset+0x98967f>
8000033c:	00012023          	sw	zero,0(sp)
80000340:	00012783          	lw	a5,0(sp)
80000344:	00f44c63          	blt	s0,a5,8000035c <hello_intr+0x60>
80000348:	00012783          	lw	a5,0(sp)
8000034c:	00178793          	addi	a5,a5,1 # 1001 <_entry_offset+0x1001>
80000350:	00f12023          	sw	a5,0(sp)
80000354:	00012783          	lw	a5,0(sp)
80000358:	fef458e3          	bge	s0,a5,80000348 <hello_intr+0x4c>
8000035c:	0b4010ef          	jal	ra,80001410 <yield>
80000360:	fddff06f          	j	8000033c <hello_intr+0x40>

80000364 <devscan>:
80000364:	00011797          	auipc	a5,0x11
80000368:	c7c78793          	addi	a5,a5,-900 # 80010fe0 <heap>
8000036c:	0047a603          	lw	a2,4(a5)
80000370:	0007a583          	lw	a1,0(a5)
80000374:	fcc10113          	addi	sp,sp,-52
80000378:	00002517          	auipc	a0,0x2
8000037c:	0c050513          	addi	a0,a0,192 # 80002438 <_etext+0x168>
80000380:	02112823          	sw	ra,48(sp)
80000384:	02812623          	sw	s0,44(sp)
80000388:	02912423          	sw	s1,40(sp)
8000038c:	6b1010ef          	jal	ra,8000223c <printf>
80000390:	02310413          	addi	s0,sp,35
80000394:	00002517          	auipc	a0,0x2
80000398:	0bc50513          	addi	a0,a0,188 # 80002450 <_etext+0x180>
8000039c:	6a1010ef          	jal	ra,8000223c <printf>
800003a0:	ff847413          	andi	s0,s0,-8
800003a4:	00040593          	mv	a1,s0
800003a8:	00600513          	li	a0,6
800003ac:	535000ef          	jal	ra,800010e0 <ioe_read>
800003b0:	00042503          	lw	a0,0(s0)
800003b4:	00442583          	lw	a1,4(s0)
800003b8:	3e800613          	li	a2,1000
800003bc:	00000693          	li	a3,0
800003c0:	60c010ef          	jal	ra,800019cc <__udivdi3>
800003c4:	00012423          	sw	zero,8(sp)
800003c8:	00812783          	lw	a5,8(sp)
800003cc:	00989737          	lui	a4,0x989
800003d0:	67f70713          	addi	a4,a4,1663 # 98967f <_entry_offset+0x98967f>
800003d4:	00050493          	mv	s1,a0
800003d8:	00f74c63          	blt	a4,a5,800003f0 <devscan+0x8c>
800003dc:	00812783          	lw	a5,8(sp)
800003e0:	00178793          	addi	a5,a5,1
800003e4:	00f12423          	sw	a5,8(sp)
800003e8:	00812783          	lw	a5,8(sp)
800003ec:	fef758e3          	bge	a4,a5,800003dc <devscan+0x78>
800003f0:	00040593          	mv	a1,s0
800003f4:	00600513          	li	a0,6
800003f8:	4e9000ef          	jal	ra,800010e0 <ioe_read>
800003fc:	00042503          	lw	a0,0(s0)
80000400:	00442583          	lw	a1,4(s0)
80000404:	3e800613          	li	a2,1000
80000408:	00000693          	li	a3,0
8000040c:	5c0010ef          	jal	ra,800019cc <__udivdi3>
80000410:	409505b3          	sub	a1,a0,s1
80000414:	00002517          	auipc	a0,0x2
80000418:	05850513          	addi	a0,a0,88 # 8000246c <_etext+0x19c>
8000041c:	621010ef          	jal	ra,8000223c <printf>
80000420:	00c10593          	addi	a1,sp,12
80000424:	00900513          	li	a0,9
80000428:	4b9000ef          	jal	ra,800010e0 <ioe_read>
8000042c:	01412783          	lw	a5,20(sp)
80000430:	01012583          	lw	a1,16(sp)
80000434:	00002517          	auipc	a0,0x2
80000438:	05850513          	addi	a0,a0,88 # 8000248c <_etext+0x1bc>
8000043c:	00078613          	mv	a2,a5
80000440:	00b12023          	sw	a1,0(sp)
80000444:	00f12223          	sw	a5,4(sp)
80000448:	00011497          	auipc	s1,0x11
8000044c:	07848493          	addi	s1,s1,120 # 800114c0 <vmem+0xd0>
80000450:	5ed010ef          	jal	ra,8000223c <printf>
80000454:	00091417          	auipc	s0,0x91
80000458:	f9c40413          	addi	s0,s0,-100 # 800913f0 <canvas>
8000045c:	1bc010ef          	jal	ra,80001618 <rand>
80000460:	00a48023          	sb	a0,0(s1)
80000464:	00148493          	addi	s1,s1,1
80000468:	fe849ae3          	bne	s1,s0,8000045c <devscan+0xf8>
8000046c:	00012783          	lw	a5,0(sp)
80000470:	00412603          	lw	a2,4(sp)
80000474:	ffff08b7          	lui	a7,0xffff0
80000478:	41f7d713          	srai	a4,a5,0x1f
8000047c:	00377713          	andi	a4,a4,3
80000480:	01f7d693          	srli	a3,a5,0x1f
80000484:	00f70733          	add	a4,a4,a5
80000488:	40275713          	srai	a4,a4,0x2
8000048c:	00f686b3          	add	a3,a3,a5
80000490:	00011797          	auipc	a5,0x11
80000494:	f6078793          	addi	a5,a5,-160 # 800113f0 <vmem>
80000498:	00e79323          	sh	a4,6(a5)
8000049c:	00011717          	auipc	a4,0x11
800004a0:	f4071e23          	sh	zero,-164(a4) # 800113f8 <vmem+0x8>
800004a4:	02500713          	li	a4,37
800004a8:	00e79923          	sh	a4,18(a5)
800004ac:	00a00713          	li	a4,10
800004b0:	fff00813          	li	a6,-1
800004b4:	4016d693          	srai	a3,a3,0x1
800004b8:	00188893          	addi	a7,a7,1 # ffff0001 <_end+0x7ff52001>
800004bc:	f9c60613          	addi	a2,a2,-100
800004c0:	00e79a23          	sh	a4,20(a5)
800004c4:	0d000713          	li	a4,208
800004c8:	0117a023          	sw	a7,0(a5)
800004cc:	01079223          	sh	a6,4(a5)
800004d0:	00d79523          	sh	a3,10(a5)
800004d4:	01079723          	sh	a6,14(a5)
800004d8:	01079823          	sh	a6,16(a5)
800004dc:	00e79b23          	sh	a4,22(a5)
800004e0:	00c79623          	sh	a2,12(a5)
800004e4:	00c10593          	addi	a1,sp,12
800004e8:	00c00513          	li	a0,12
800004ec:	00f12823          	sw	a5,16(sp)
800004f0:	000807b7          	lui	a5,0x80
800004f4:	00f12a23          	sw	a5,20(sp)
800004f8:	00011717          	auipc	a4,0x11
800004fc:	f0071823          	sh	zero,-240(a4) # 80011408 <vmem+0x18>
80000500:	00012623          	sw	zero,12(sp)
80000504:	3f9000ef          	jal	ra,800010fc <ioe_write>
80000508:	00d00513          	li	a0,13
8000050c:	00c10593          	addi	a1,sp,12
80000510:	00012623          	sw	zero,12(sp)
80000514:	3e9000ef          	jal	ra,800010fc <ioe_write>
80000518:	00c10593          	addi	a1,sp,12
8000051c:	01200513          	li	a0,18
80000520:	3c1000ef          	jal	ra,800010e0 <ioe_read>
80000524:	01012403          	lw	s0,16(sp)
80000528:	01412583          	lw	a1,20(sp)
8000052c:	00002517          	auipc	a0,0x2
80000530:	f7850513          	addi	a0,a0,-136 # 800024a4 <_etext+0x1d4>
80000534:	00040613          	mv	a2,s0
80000538:	505010ef          	jal	ra,8000223c <printf>
8000053c:	20000713          	li	a4,512
80000540:	02874733          	div	a4,a4,s0
80000544:	00011797          	auipc	a5,0x11
80000548:	cac78793          	addi	a5,a5,-852 # 800111f0 <buf.0>
8000054c:	00c10593          	addi	a1,sp,12
80000550:	01400513          	li	a0,20
80000554:	00f12823          	sw	a5,16(sp)
80000558:	00010623          	sb	zero,12(sp)
8000055c:	00012a23          	sw	zero,20(sp)
80000560:	00002497          	auipc	s1,0x2
80000564:	f7c48493          	addi	s1,s1,-132 # 800024dc <_etext+0x20c>
80000568:	00011417          	auipc	s0,0x11
8000056c:	c8a40413          	addi	s0,s0,-886 # 800111f2 <buf.0+0x2>
80000570:	00e12c23          	sw	a4,24(sp)
80000574:	389000ef          	jal	ra,800010fc <ioe_write>
80000578:	00011797          	auipc	a5,0x11
8000057c:	c7878793          	addi	a5,a5,-904 # 800111f0 <buf.0>
80000580:	0017c603          	lbu	a2,1(a5)
80000584:	0007c583          	lbu	a1,0(a5)
80000588:	00048513          	mv	a0,s1
8000058c:	4b1010ef          	jal	ra,8000223c <printf>
80000590:	00011797          	auipc	a5,0x11
80000594:	e6078793          	addi	a5,a5,-416 # 800113f0 <vmem>
80000598:	00048513          	mv	a0,s1
8000059c:	02f40e63          	beq	s0,a5,800005d8 <devscan+0x274>
800005a0:	00144603          	lbu	a2,1(s0)
800005a4:	00044583          	lbu	a1,0(s0)
800005a8:	495010ef          	jal	ra,8000223c <printf>
800005ac:	00011797          	auipc	a5,0x11
800005b0:	c4478793          	addi	a5,a5,-956 # 800111f0 <buf.0>
800005b4:	40f40733          	sub	a4,s0,a5
800005b8:	00270713          	addi	a4,a4,2
800005bc:	01f77713          	andi	a4,a4,31
800005c0:	02070463          	beqz	a4,800005e8 <devscan+0x284>
800005c4:	00240413          	addi	s0,s0,2
800005c8:	00011797          	auipc	a5,0x11
800005cc:	e2878793          	addi	a5,a5,-472 # 800113f0 <vmem>
800005d0:	00048513          	mv	a0,s1
800005d4:	fcf416e3          	bne	s0,a5,800005a0 <devscan+0x23c>
800005d8:	00002517          	auipc	a0,0x2
800005dc:	f1050513          	addi	a0,a0,-240 # 800024e8 <_etext+0x218>
800005e0:	45d010ef          	jal	ra,8000223c <printf>
800005e4:	0000006f          	j	800005e4 <devscan+0x280>
800005e8:	00002517          	auipc	a0,0x2
800005ec:	d8050513          	addi	a0,a0,-640 # 80002368 <_etext+0x98>
800005f0:	44d010ef          	jal	ra,8000223c <printf>
800005f4:	00240413          	addi	s0,s0,2
800005f8:	fd1ff06f          	j	800005c8 <devscan+0x264>

800005fc <keyboard_test>:
800005fc:	fec10113          	addi	sp,sp,-20
80000600:	00002517          	auipc	a0,0x2
80000604:	ef450513          	addi	a0,a0,-268 # 800024f4 <_etext+0x224>
80000608:	00112823          	sw	ra,16(sp)
8000060c:	00812623          	sw	s0,12(sp)
80000610:	00912423          	sw	s1,8(sp)
80000614:	429010ef          	jal	ra,8000223c <printf>
80000618:	00010593          	mv	a1,sp
8000061c:	00100513          	li	a0,1
80000620:	2c1000ef          	jal	ra,800010e0 <ioe_read>
80000624:	00014783          	lbu	a5,0(sp)
80000628:	00095717          	auipc	a4,0x95
8000062c:	de970713          	addi	a4,a4,-535 # 80095411 <has_uart>
80000630:	00010593          	mv	a1,sp
80000634:	00700513          	li	a0,7
80000638:	00f70023          	sb	a5,0(a4)
8000063c:	2a5000ef          	jal	ra,800010e0 <ioe_read>
80000640:	00014783          	lbu	a5,0(sp)
80000644:	00095717          	auipc	a4,0x95
80000648:	dcc70713          	addi	a4,a4,-564 # 80095410 <has_kbd>
8000064c:	00002417          	auipc	s0,0x2
80000650:	0b840413          	addi	s0,s0,184 # 80002704 <names>
80000654:	00f70023          	sb	a5,0(a4)
80000658:	00002497          	auipc	s1,0x2
8000065c:	0a448493          	addi	s1,s1,164 # 800026fc <_etext+0x42c>
80000660:	00095717          	auipc	a4,0x95
80000664:	db170713          	addi	a4,a4,-591 # 80095411 <has_uart>
80000668:	00074703          	lbu	a4,0(a4)
8000066c:	02070663          	beqz	a4,80000698 <keyboard_test+0x9c>
80000670:	00002417          	auipc	s0,0x2
80000674:	eb040413          	addi	s0,s0,-336 # 80002520 <_etext+0x250>
80000678:	00010593          	mv	a1,sp
8000067c:	00300513          	li	a0,3
80000680:	261000ef          	jal	ra,800010e0 <ioe_read>
80000684:	00014603          	lbu	a2,0(sp)
80000688:	00040513          	mv	a0,s0
8000068c:	00060593          	mv	a1,a2
80000690:	3ad010ef          	jal	ra,8000223c <printf>
80000694:	fe5ff06f          	j	80000678 <keyboard_test+0x7c>
80000698:	02079063          	bnez	a5,800006b8 <keyboard_test+0xbc>
8000069c:	0000006f          	j	8000069c <keyboard_test+0xa0>
800006a0:	0007a583          	lw	a1,0(a5)
800006a4:	00048693          	mv	a3,s1
800006a8:	00071663          	bnez	a4,800006b4 <keyboard_test+0xb8>
800006ac:	00002697          	auipc	a3,0x2
800006b0:	04868693          	addi	a3,a3,72 # 800026f4 <_etext+0x424>
800006b4:	389010ef          	jal	ra,8000223c <printf>
800006b8:	00800513          	li	a0,8
800006bc:	00010593          	mv	a1,sp
800006c0:	221000ef          	jal	ra,800010e0 <ioe_read>
800006c4:	00412603          	lw	a2,4(sp)
800006c8:	00014703          	lbu	a4,0(sp)
800006cc:	00002517          	auipc	a0,0x2
800006d0:	e6c50513          	addi	a0,a0,-404 # 80002538 <_etext+0x268>
800006d4:	00261793          	slli	a5,a2,0x2
800006d8:	00f407b3          	add	a5,s0,a5
800006dc:	fc0612e3          	bnez	a2,800006a0 <keyboard_test+0xa4>
800006e0:	00095797          	auipc	a5,0x95
800006e4:	d3078793          	addi	a5,a5,-720 # 80095410 <has_kbd>
800006e8:	0007c783          	lbu	a5,0(a5)
800006ec:	f75ff06f          	j	80000660 <keyboard_test+0x64>

800006f0 <redraw>:
800006f0:	fc410113          	addi	sp,sp,-60
800006f4:	01810593          	addi	a1,sp,24
800006f8:	00900513          	li	a0,9
800006fc:	02112c23          	sw	ra,56(sp)
80000700:	02812a23          	sw	s0,52(sp)
80000704:	02912823          	sw	s1,48(sp)
80000708:	1d9000ef          	jal	ra,800010e0 <ioe_read>
8000070c:	01c12783          	lw	a5,28(sp)
80000710:	01810593          	addi	a1,sp,24
80000714:	00900513          	li	a0,9
80000718:	41f7d893          	srai	a7,a5,0x1f
8000071c:	01f8f893          	andi	a7,a7,31
80000720:	00f888b3          	add	a7,a7,a5
80000724:	4058d413          	srai	s0,a7,0x5
80000728:	1b9000ef          	jal	ra,800010e0 <ioe_read>
8000072c:	02012703          	lw	a4,32(sp)
80000730:	40000693          	li	a3,1024
80000734:	41f75793          	srai	a5,a4,0x1f
80000738:	01f7f793          	andi	a5,a5,31
8000073c:	00e787b3          	add	a5,a5,a4
80000740:	4057d793          	srai	a5,a5,0x5
80000744:	00f12823          	sw	a5,16(sp)
80000748:	02f407b3          	mul	a5,s0,a5
8000074c:	00f12a23          	sw	a5,20(sp)
80000750:	10f6e263          	bltu	a3,a5,80000854 <redraw+0x164>
80000754:	00279693          	slli	a3,a5,0x2
80000758:	00091797          	auipc	a5,0x91
8000075c:	d1878793          	addi	a5,a5,-744 # 80091470 <canvas+0x80>
80000760:	00f12623          	sw	a5,12(sp)
80000764:	00092797          	auipc	a5,0x92
80000768:	c8c78793          	addi	a5,a5,-884 # 800923f0 <color_buf>
8000076c:	00d784b3          	add	s1,a5,a3
80000770:	00012423          	sw	zero,8(sp)
80000774:	00c12783          	lw	a5,12(sp)
80000778:	00000813          	li	a6,0
8000077c:	f8078613          	addi	a2,a5,-128
80000780:	01412783          	lw	a5,20(sp)
80000784:	00078e63          	beqz	a5,800007a0 <redraw+0xb0>
80000788:	00062703          	lw	a4,0(a2)
8000078c:	00092797          	auipc	a5,0x92
80000790:	c6478793          	addi	a5,a5,-924 # 800923f0 <color_buf>
80000794:	00e7a023          	sw	a4,0(a5)
80000798:	00478793          	addi	a5,a5,4
8000079c:	fe979ce3          	bne	a5,s1,80000794 <redraw+0xa4>
800007a0:	00812783          	lw	a5,8(sp)
800007a4:	00460613          	addi	a2,a2,4
800007a8:	01012c23          	sw	a6,24(sp)
800007ac:	00f12e23          	sw	a5,28(sp)
800007b0:	00092797          	auipc	a5,0x92
800007b4:	c4078793          	addi	a5,a5,-960 # 800923f0 <color_buf>
800007b8:	02f12023          	sw	a5,32(sp)
800007bc:	01012783          	lw	a5,16(sp)
800007c0:	00880833          	add	a6,a6,s0
800007c4:	01810593          	addi	a1,sp,24
800007c8:	00b00513          	li	a0,11
800007cc:	00c12223          	sw	a2,4(sp)
800007d0:	02f12423          	sw	a5,40(sp)
800007d4:	01012023          	sw	a6,0(sp)
800007d8:	02812223          	sw	s0,36(sp)
800007dc:	02010623          	sb	zero,44(sp)
800007e0:	11d000ef          	jal	ra,800010fc <ioe_write>
800007e4:	00c12783          	lw	a5,12(sp)
800007e8:	00412603          	lw	a2,4(sp)
800007ec:	00012803          	lw	a6,0(sp)
800007f0:	f8f618e3          	bne	a2,a5,80000780 <redraw+0x90>
800007f4:	00812703          	lw	a4,8(sp)
800007f8:	01012683          	lw	a3,16(sp)
800007fc:	08060793          	addi	a5,a2,128
80000800:	00f12623          	sw	a5,12(sp)
80000804:	00d70733          	add	a4,a4,a3
80000808:	00e12423          	sw	a4,8(sp)
8000080c:	00092717          	auipc	a4,0x92
80000810:	c6470713          	addi	a4,a4,-924 # 80092470 <color_buf+0x80>
80000814:	f6e790e3          	bne	a5,a4,80000774 <redraw+0x84>
80000818:	01810593          	addi	a1,sp,24
8000081c:	00100793          	li	a5,1
80000820:	00b00513          	li	a0,11
80000824:	00012c23          	sw	zero,24(sp)
80000828:	00012e23          	sw	zero,28(sp)
8000082c:	02012023          	sw	zero,32(sp)
80000830:	02012223          	sw	zero,36(sp)
80000834:	02012423          	sw	zero,40(sp)
80000838:	02f10623          	sb	a5,44(sp)
8000083c:	0c1000ef          	jal	ra,800010fc <ioe_write>
80000840:	03812083          	lw	ra,56(sp)
80000844:	03412403          	lw	s0,52(sp)
80000848:	03012483          	lw	s1,48(sp)
8000084c:	03c10113          	addi	sp,sp,60
80000850:	00008067          	ret
80000854:	01600613          	li	a2,22
80000858:	00002597          	auipc	a1,0x2
8000085c:	ff858593          	addi	a1,a1,-8 # 80002850 <names+0x14c>
80000860:	00002517          	auipc	a0,0x2
80000864:	04850513          	addi	a0,a0,72 # 800028a8 <names+0x1a4>
80000868:	1d5010ef          	jal	ra,8000223c <printf>
8000086c:	00100513          	li	a0,1
80000870:	754000ef          	jal	ra,80000fc4 <halt>

80000874 <update>:
80000874:	00095797          	auipc	a5,0x95
80000878:	ba078793          	addi	a5,a5,-1120 # 80095414 <tsc.2>
8000087c:	0007a383          	lw	t2,0(a5)
80000880:	00093717          	auipc	a4,0x93
80000884:	bf070713          	addi	a4,a4,-1040 # 80093470 <used+0x80>
80000888:	00094697          	auipc	a3,0x94
8000088c:	be868693          	addi	a3,a3,-1048 # 80094470 <stack.0+0x70>
80000890:	00138393          	addi	t2,t2,1
80000894:	0077a023          	sw	t2,0(a5)
80000898:	f8070793          	addi	a5,a4,-128
8000089c:	0007a023          	sw	zero,0(a5)
800008a0:	00478793          	addi	a5,a5,4
800008a4:	fef71ce3          	bne	a4,a5,8000089c <update+0x28>
800008a8:	08070713          	addi	a4,a4,128
800008ac:	fed716e3          	bne	a4,a3,80000898 <update+0x24>
800008b0:	0ff3f693          	zext.b	a3,t2
800008b4:	00169793          	slli	a5,a3,0x1
800008b8:	00f687b3          	add	a5,a3,a5
800008bc:	00369713          	slli	a4,a3,0x3
800008c0:	00179793          	slli	a5,a5,0x1
800008c4:	40d70733          	sub	a4,a4,a3
800008c8:	0ff7f793          	zext.b	a5,a5
800008cc:	0ff77713          	zext.b	a4,a4
800008d0:	00871713          	slli	a4,a4,0x8
800008d4:	01079793          	slli	a5,a5,0x10
800008d8:	00e7e7b3          	or	a5,a5,a4
800008dc:	0ff3f713          	zext.b	a4,t2
800008e0:	00e7e7b3          	or	a5,a5,a4
800008e4:	00091917          	auipc	s2,0x91
800008e8:	b0c90913          	addi	s2,s2,-1268 # 800913f0 <canvas>
800008ec:	00093e97          	auipc	t4,0x93
800008f0:	b04e8e93          	addi	t4,t4,-1276 # 800933f0 <used>
800008f4:	00f92023          	sw	a5,0(s2)
800008f8:	00100793          	li	a5,1
800008fc:	00fea023          	sw	a5,0(t4)
80000900:	00100713          	li	a4,1
80000904:	00000793          	li	a5,0
80000908:	00100f93          	li	t6,1
8000090c:	00000593          	li	a1,0
80000910:	00000a13          	li	s4,0
80000914:	00000e13          	li	t3,0
80000918:	01f00f13          	li	t5,31
8000091c:	00002317          	auipc	t1,0x2
80000920:	fb830313          	addi	t1,t1,-72 # 800028d4 <dx.1>
80000924:	00002897          	auipc	a7,0x2
80000928:	fc088893          	addi	a7,a7,-64 # 800028e4 <dy.0>
8000092c:	00100993          	li	s3,1
80000930:	40000293          	li	t0,1024
80000934:	00400693          	li	a3,4
80000938:	00fe0633          	add	a2,t3,a5
8000093c:	00ea0733          	add	a4,s4,a4
80000940:	00561793          	slli	a5,a2,0x5
80000944:	00e787b3          	add	a5,a5,a4
80000948:	00279793          	slli	a5,a5,0x2
8000094c:	00e66533          	or	a0,a2,a4
80000950:	00fe8ab3          	add	s5,t4,a5
80000954:	00158813          	addi	a6,a1,1
80000958:	fff68693          	addi	a3,a3,-1
8000095c:	00af6663          	bltu	t5,a0,80000968 <update+0xf4>
80000960:	000aa503          	lw	a0,0(s5)
80000964:	02050263          	beqz	a0,80000988 <update+0x114>
80000968:	00387593          	andi	a1,a6,3
8000096c:	00259793          	slli	a5,a1,0x2
80000970:	00f30633          	add	a2,t1,a5
80000974:	00f88733          	add	a4,a7,a5
80000978:	06068063          	beqz	a3,800009d8 <update+0x164>
8000097c:	00062783          	lw	a5,0(a2)
80000980:	00072703          	lw	a4,0(a4)
80000984:	fb5ff06f          	j	80000938 <update+0xc4>
80000988:	401fd813          	srai	a6,t6,0x1
8000098c:	00780833          	add	a6,a6,t2
80000990:	0ff87e13          	zext.b	t3,a6
80000994:	001e1513          	slli	a0,t3,0x1
80000998:	00ae0533          	add	a0,t3,a0
8000099c:	003e1693          	slli	a3,t3,0x3
800009a0:	41c686b3          	sub	a3,a3,t3
800009a4:	00151513          	slli	a0,a0,0x1
800009a8:	0ff57513          	zext.b	a0,a0
800009ac:	0ff6f693          	zext.b	a3,a3
800009b0:	00869693          	slli	a3,a3,0x8
800009b4:	01051513          	slli	a0,a0,0x10
800009b8:	00d56533          	or	a0,a0,a3
800009bc:	0ff87813          	zext.b	a6,a6
800009c0:	00f906b3          	add	a3,s2,a5
800009c4:	010567b3          	or	a5,a0,a6
800009c8:	013aa023          	sw	s3,0(s5)
800009cc:	00f6a023          	sw	a5,0(a3)
800009d0:	00070a13          	mv	s4,a4
800009d4:	00060e13          	mv	t3,a2
800009d8:	001f8f93          	addi	t6,t6,1
800009dc:	005f8e63          	beq	t6,t0,800009f8 <update+0x184>
800009e0:	00259793          	slli	a5,a1,0x2
800009e4:	00f88733          	add	a4,a7,a5
800009e8:	00f306b3          	add	a3,t1,a5
800009ec:	0006a783          	lw	a5,0(a3)
800009f0:	00072703          	lw	a4,0(a4)
800009f4:	f41ff06f          	j	80000934 <update+0xc0>
800009f8:	00008067          	ret

800009fc <video_test>:
800009fc:	fe010113          	addi	sp,sp,-32
80000a00:	00812c23          	sw	s0,24(sp)
80000a04:	00f10413          	addi	s0,sp,15
80000a08:	00912a23          	sw	s1,20(sp)
80000a0c:	00112e23          	sw	ra,28(sp)
80000a10:	ff847413          	andi	s0,s0,-8
80000a14:	00000493          	li	s1,0
80000a18:	00012223          	sw	zero,4(sp)
80000a1c:	00012023          	sw	zero,0(sp)
80000a20:	00040593          	mv	a1,s0
80000a24:	00600513          	li	a0,6
80000a28:	6b8000ef          	jal	ra,800010e0 <ioe_read>
80000a2c:	00042503          	lw	a0,0(s0)
80000a30:	00442583          	lw	a1,4(s0)
80000a34:	3e800613          	li	a2,1000
80000a38:	00000693          	li	a3,0
80000a3c:	791000ef          	jal	ra,800019cc <__udivdi3>
80000a40:	00012783          	lw	a5,0(sp)
80000a44:	02100713          	li	a4,33
80000a48:	00050593          	mv	a1,a0
80000a4c:	40f507b3          	sub	a5,a0,a5
80000a50:	02f76863          	bltu	a4,a5,80000a80 <video_test+0x84>
80000a54:	00412783          	lw	a5,4(sp)
80000a58:	3e800713          	li	a4,1000
80000a5c:	40f587b3          	sub	a5,a1,a5
80000a60:	fcf770e3          	bgeu	a4,a5,80000a20 <video_test+0x24>
80000a64:	00048613          	mv	a2,s1
80000a68:	00002517          	auipc	a0,0x2
80000a6c:	e5c50513          	addi	a0,a0,-420 # 800028c4 <names+0x1c0>
80000a70:	00b12223          	sw	a1,4(sp)
80000a74:	00000493          	li	s1,0
80000a78:	7c4010ef          	jal	ra,8000223c <printf>
80000a7c:	fa5ff06f          	j	80000a20 <video_test+0x24>
80000a80:	00a12023          	sw	a0,0(sp)
80000a84:	df1ff0ef          	jal	ra,80000874 <update>
80000a88:	c69ff0ef          	jal	ra,800006f0 <redraw>
80000a8c:	00012583          	lw	a1,0(sp)
80000a90:	00148493          	addi	s1,s1,1
80000a94:	fc1ff06f          	j	80000a54 <video_test+0x58>

80000a98 <hello>:
80000a98:	ff410113          	addi	sp,sp,-12
80000a9c:	00812223          	sw	s0,4(sp)
80000aa0:	00112423          	sw	ra,8(sp)
80000aa4:	00912023          	sw	s1,0(sp)
80000aa8:	00a00413          	li	s0,10
80000aac:	00002497          	auipc	s1,0x2
80000ab0:	94c48493          	addi	s1,s1,-1716 # 800023f8 <_etext+0x128>
80000ab4:	04800513          	li	a0,72
80000ab8:	00148493          	addi	s1,s1,1
80000abc:	4fc000ef          	jal	ra,80000fb8 <putch>
80000ac0:	0004c503          	lbu	a0,0(s1)
80000ac4:	fe051ae3          	bnez	a0,80000ab8 <hello+0x20>
80000ac8:	fff40413          	addi	s0,s0,-1
80000acc:	fe0410e3          	bnez	s0,80000aac <hello+0x14>
80000ad0:	00812083          	lw	ra,8(sp)
80000ad4:	00412403          	lw	s0,4(sp)
80000ad8:	00012483          	lw	s1,0(sp)
80000adc:	00c10113          	addi	sp,sp,12
80000ae0:	00008067          	ret

80000ae4 <simple_pgalloc>:
80000ae4:	00095617          	auipc	a2,0x95
80000ae8:	93460613          	addi	a2,a2,-1740 # 80095418 <st>
80000aec:	00062683          	lw	a3,0(a2)
80000af0:	00069663          	bnez	a3,80000afc <simple_pgalloc+0x18>
80000af4:	00010697          	auipc	a3,0x10
80000af8:	4ec6a683          	lw	a3,1260(a3) # 80010fe0 <heap>
80000afc:	02a6f7b3          	remu	a5,a3,a0
80000b00:	00078c63          	beqz	a5,80000b18 <simple_pgalloc+0x34>
80000b04:	00168793          	addi	a5,a3,1
80000b08:	02a7f733          	remu	a4,a5,a0
80000b0c:	00078693          	mv	a3,a5
80000b10:	00178793          	addi	a5,a5,1
80000b14:	fe071ae3          	bnez	a4,80000b08 <simple_pgalloc+0x24>
80000b18:	00d50533          	add	a0,a0,a3
80000b1c:	00a62023          	sw	a0,0(a2)
80000b20:	00068513          	mv	a0,a3
80000b24:	00008067          	ret

80000b28 <simple_pgfree>:
80000b28:	00008067          	ret

80000b2c <vm_handler>:
80000b2c:	00052783          	lw	a5,0(a0)
80000b30:	ff410113          	addi	sp,sp,-12
80000b34:	00812223          	sw	s0,4(sp)
80000b38:	00112423          	sw	ra,8(sp)
80000b3c:	00300713          	li	a4,3
80000b40:	00452603          	lw	a2,4(a0)
80000b44:	00058413          	mv	s0,a1
80000b48:	0ce78263          	beq	a5,a4,80000c0c <vm_handler+0xe0>
80000b4c:	08f76263          	bltu	a4,a5,80000bd0 <vm_handler+0xa4>
80000b50:	00100713          	li	a4,1
80000b54:	08e78c63          	beq	a5,a4,80000bec <vm_handler+0xc0>
80000b58:	00200713          	li	a4,2
80000b5c:	12e79463          	bne	a5,a4,80000c84 <vm_handler+0x158>
80000b60:	00100513          	li	a0,1
80000b64:	0b9000ef          	jal	ra,8000141c <iset>
80000b68:	00012023          	sw	zero,0(sp)
80000b6c:	00012783          	lw	a5,0(sp)
80000b70:	000f4737          	lui	a4,0xf4
80000b74:	23f70713          	addi	a4,a4,575 # f423f <_entry_offset+0xf423f>
80000b78:	00f74c63          	blt	a4,a5,80000b90 <vm_handler+0x64>
80000b7c:	00012783          	lw	a5,0(sp)
80000b80:	00178793          	addi	a5,a5,1
80000b84:	00f12023          	sw	a5,0(sp)
80000b88:	00012783          	lw	a5,0(sp)
80000b8c:	fef758e3          	bge	a4,a5,80000b7c <vm_handler+0x50>
80000b90:	00042583          	lw	a1,0(s0)
80000b94:	00002517          	auipc	a0,0x2
80000b98:	da850513          	addi	a0,a0,-600 # 8000293c <dy.0+0x58>
80000b9c:	6a0010ef          	jal	ra,8000223c <printf>
80000ba0:	00010797          	auipc	a5,0x10
80000ba4:	43c7a783          	lw	a5,1084(a5) # 80010fdc <first_trap>
80000ba8:	00078a63          	beqz	a5,80000bbc <vm_handler+0x90>
80000bac:	00010797          	auipc	a5,0x10
80000bb0:	4207a823          	sw	zero,1072(a5) # 80010fdc <first_trap>
80000bb4:	00095417          	auipc	s0,0x95
80000bb8:	86842403          	lw	s0,-1944(s0) # 8009541c <uctx>
80000bbc:	00812083          	lw	ra,8(sp)
80000bc0:	00040513          	mv	a0,s0
80000bc4:	00412403          	lw	s0,4(sp)
80000bc8:	00c10113          	addi	sp,sp,12
80000bcc:	00008067          	ret
80000bd0:	ffb78793          	addi	a5,a5,-5
80000bd4:	00100713          	li	a4,1
80000bd8:	0af76663          	bltu	a4,a5,80000c84 <vm_handler+0x158>
80000bdc:	00c52583          	lw	a1,12(a0)
80000be0:	00002517          	auipc	a0,0x2
80000be4:	d3050513          	addi	a0,a0,-720 # 80002910 <dy.0+0x2c>
80000be8:	654010ef          	jal	ra,8000223c <printf>
80000bec:	00010797          	auipc	a5,0x10
80000bf0:	3f07a783          	lw	a5,1008(a5) # 80010fdc <first_trap>
80000bf4:	fc0784e3          	beqz	a5,80000bbc <vm_handler+0x90>
80000bf8:	00010797          	auipc	a5,0x10
80000bfc:	3e07a223          	sw	zero,996(a5) # 80010fdc <first_trap>
80000c00:	00095417          	auipc	s0,0x95
80000c04:	81c42403          	lw	s0,-2020(s0) # 8009541c <uctx>
80000c08:	fb5ff06f          	j	80000bbc <vm_handler+0x90>
80000c0c:	00167793          	andi	a5,a2,1
80000c10:	00852583          	lw	a1,8(a0)
80000c14:	00002697          	auipc	a3,0x2
80000c18:	ce068693          	addi	a3,a3,-800 # 800028f4 <dy.0+0x10>
80000c1c:	04078663          	beqz	a5,80000c68 <vm_handler+0x13c>
80000c20:	00267613          	andi	a2,a2,2
80000c24:	00002717          	auipc	a4,0x2
80000c28:	cdc70713          	addi	a4,a4,-804 # 80002900 <dy.0+0x1c>
80000c2c:	00060e63          	beqz	a2,80000c48 <vm_handler+0x11c>
80000c30:	00002617          	auipc	a2,0x2
80000c34:	90460613          	addi	a2,a2,-1788 # 80002534 <_etext+0x264>
80000c38:	00002517          	auipc	a0,0x2
80000c3c:	cf450513          	addi	a0,a0,-780 # 8000292c <dy.0+0x48>
80000c40:	5fc010ef          	jal	ra,8000223c <printf>
80000c44:	fa9ff06f          	j	80000bec <vm_handler+0xc0>
80000c48:	00002717          	auipc	a4,0x2
80000c4c:	8ec70713          	addi	a4,a4,-1812 # 80002534 <_etext+0x264>
80000c50:	00002617          	auipc	a2,0x2
80000c54:	8e460613          	addi	a2,a2,-1820 # 80002534 <_etext+0x264>
80000c58:	00002517          	auipc	a0,0x2
80000c5c:	cd450513          	addi	a0,a0,-812 # 8000292c <dy.0+0x48>
80000c60:	5dc010ef          	jal	ra,8000223c <printf>
80000c64:	f89ff06f          	j	80000bec <vm_handler+0xc0>
80000c68:	00267613          	andi	a2,a2,2
80000c6c:	00002697          	auipc	a3,0x2
80000c70:	8c868693          	addi	a3,a3,-1848 # 80002534 <_etext+0x264>
80000c74:	00002717          	auipc	a4,0x2
80000c78:	c8c70713          	addi	a4,a4,-884 # 80002900 <dy.0+0x1c>
80000c7c:	fa061ae3          	bnez	a2,80000c30 <vm_handler+0x104>
80000c80:	fc9ff06f          	j	80000c48 <vm_handler+0x11c>
80000c84:	02800613          	li	a2,40
80000c88:	00002597          	auipc	a1,0x2
80000c8c:	cb858593          	addi	a1,a1,-840 # 80002940 <dy.0+0x5c>
80000c90:	00002517          	auipc	a0,0x2
80000c94:	c1850513          	addi	a0,a0,-1000 # 800028a8 <names+0x1a4>
80000c98:	5a4010ef          	jal	ra,8000223c <printf>
80000c9c:	00100513          	li	a0,1
80000ca0:	324000ef          	jal	ra,80000fc4 <halt>

80000ca4 <vm_test>:
80000ca4:	fec10113          	addi	sp,sp,-20
80000ca8:	00300613          	li	a2,3
80000cac:	00002597          	auipc	a1,0x2
80000cb0:	ce858593          	addi	a1,a1,-792 # 80002994 <dy.0+0xb0>
80000cb4:	00002517          	auipc	a0,0x2
80000cb8:	ce450513          	addi	a0,a0,-796 # 80002998 <dy.0+0xb4>
80000cbc:	00112823          	sw	ra,16(sp)
80000cc0:	00812623          	sw	s0,12(sp)
80000cc4:	00912423          	sw	s1,8(sp)
80000cc8:	735000ef          	jal	ra,80001bfc <strncmp>
80000ccc:	00050e63          	beqz	a0,80000ce8 <vm_test+0x44>
80000cd0:	00002597          	auipc	a1,0x2
80000cd4:	cd058593          	addi	a1,a1,-816 # 800029a0 <dy.0+0xbc>
80000cd8:	00002517          	auipc	a0,0x2
80000cdc:	cc050513          	addi	a0,a0,-832 # 80002998 <dy.0+0xb4>
80000ce0:	6d5000ef          	jal	ra,80001bb4 <strcmp>
80000ce4:	0e051e63          	bnez	a0,80000de0 <vm_test+0x13c>
80000ce8:	00093497          	auipc	s1,0x93
80000cec:	70848493          	addi	s1,s1,1800 # 800943f0 <prot>
80000cf0:	00048513          	mv	a0,s1
80000cf4:	0b9000ef          	jal	ra,800015ac <protect>
80000cf8:	0084a603          	lw	a2,8(s1)
80000cfc:	0044a583          	lw	a1,4(s1)
80000d00:	00002517          	auipc	a0,0x2
80000d04:	cc850513          	addi	a0,a0,-824 # 800029c8 <dy.0+0xe4>
80000d08:	534010ef          	jal	ra,8000223c <printf>
80000d0c:	0044a603          	lw	a2,4(s1)
80000d10:	0084a783          	lw	a5,8(s1)
80000d14:	00094697          	auipc	a3,0x94
80000d18:	70468693          	addi	a3,a3,1796 # 80095418 <st>
80000d1c:	0006a403          	lw	s0,0(a3)
80000d20:	40c787b3          	sub	a5,a5,a2
80000d24:	0017d793          	srli	a5,a5,0x1
80000d28:	0004a703          	lw	a4,0(s1)
80000d2c:	00c784b3          	add	s1,a5,a2
80000d30:	00041c63          	bnez	s0,80000d48 <vm_test+0xa4>
80000d34:	00010417          	auipc	s0,0x10
80000d38:	2ac42403          	lw	s0,684(s0) # 80010fe0 <heap>
80000d3c:	02e477b3          	remu	a5,s0,a4
80000d40:	00078863          	beqz	a5,80000d50 <vm_test+0xac>
80000d44:	00140413          	addi	s0,s0,1
80000d48:	02e477b3          	remu	a5,s0,a4
80000d4c:	fe079ce3          	bnez	a5,80000d44 <vm_test+0xa0>
80000d50:	00870733          	add	a4,a4,s0
80000d54:	00f00613          	li	a2,15
80000d58:	00010597          	auipc	a1,0x10
80000d5c:	27458593          	addi	a1,a1,628 # 80010fcc <code>
80000d60:	00040513          	mv	a0,s0
80000d64:	00e6a023          	sw	a4,0(a3)
80000d68:	6f5000ef          	jal	ra,80001c5c <memcpy>
80000d6c:	00300693          	li	a3,3
80000d70:	00040613          	mv	a2,s0
80000d74:	00048593          	mv	a1,s1
80000d78:	00093517          	auipc	a0,0x93
80000d7c:	67850513          	addi	a0,a0,1656 # 800943f0 <prot>
80000d80:	085000ef          	jal	ra,80001604 <map>
80000d84:	00040613          	mv	a2,s0
80000d88:	00048593          	mv	a1,s1
80000d8c:	00002517          	auipc	a0,0x2
80000d90:	c6050513          	addi	a0,a0,-928 # 800029ec <dy.0+0x108>
80000d94:	4a8010ef          	jal	ra,8000223c <printf>
80000d98:	00048693          	mv	a3,s1
80000d9c:	00093597          	auipc	a1,0x93
80000da0:	66458593          	addi	a1,a1,1636 # 80094400 <stack.0>
80000da4:	00094617          	auipc	a2,0x94
80000da8:	65c60613          	addi	a2,a2,1628 # 80095400 <kas>
80000dac:	00093517          	auipc	a0,0x93
80000db0:	64450513          	addi	a0,a0,1604 # 800943f0 <prot>
80000db4:	055000ef          	jal	ra,80001608 <ucontext>
80000db8:	00050793          	mv	a5,a0
80000dbc:	00100513          	li	a0,1
80000dc0:	00094717          	auipc	a4,0x94
80000dc4:	64f72e23          	sw	a5,1628(a4) # 8009541c <uctx>
80000dc8:	654000ef          	jal	ra,8000141c <iset>
80000dcc:	00c12403          	lw	s0,12(sp)
80000dd0:	01012083          	lw	ra,16(sp)
80000dd4:	00812483          	lw	s1,8(sp)
80000dd8:	01410113          	addi	sp,sp,20
80000ddc:	6340006f          	j	80001410 <yield>
80000de0:	00c12403          	lw	s0,12(sp)
80000de4:	01012083          	lw	ra,16(sp)
80000de8:	00812483          	lw	s1,8(sp)
80000dec:	00002517          	auipc	a0,0x2
80000df0:	bbc50513          	addi	a0,a0,-1092 # 800029a8 <dy.0+0xc4>
80000df4:	01410113          	addi	sp,sp,20
80000df8:	4440106f          	j	8000223c <printf>

80000dfc <main>:
80000dfc:	ff410113          	addi	sp,sp,-12
80000e00:	00112423          	sw	ra,8(sp)
80000e04:	00812223          	sw	s0,4(sp)
80000e08:	00912023          	sw	s1,0(sp)
80000e0c:	00054783          	lbu	a5,0(a0)
80000e10:	01500713          	li	a4,21
80000e14:	f9f78793          	addi	a5,a5,-97
80000e18:	0ff7f793          	zext.b	a5,a5
80000e1c:	02f76063          	bltu	a4,a5,80000e3c <main+0x40>
80000e20:	00002717          	auipc	a4,0x2
80000e24:	c2070713          	addi	a4,a4,-992 # 80002a40 <dy.0+0x15c>
80000e28:	00279793          	slli	a5,a5,0x2
80000e2c:	00e787b3          	add	a5,a5,a4
80000e30:	0007a783          	lw	a5,0(a5)
80000e34:	00e787b3          	add	a5,a5,a4
80000e38:	00078067          	jr	a5
80000e3c:	00002517          	auipc	a0,0x2
80000e40:	bdc50513          	addi	a0,a0,-1060 # 80002a18 <dy.0+0x134>
80000e44:	3f8010ef          	jal	ra,8000223c <printf>
80000e48:	00002497          	auipc	s1,0x2
80000e4c:	d1048493          	addi	s1,s1,-752 # 80002b58 <tests+0x4>
80000e50:	00000413          	li	s0,0
80000e54:	00140413          	addi	s0,s0,1
80000e58:	10000793          	li	a5,256
80000e5c:	02f40e63          	beq	s0,a5,80000e98 <main+0x9c>
80000e60:	0004a603          	lw	a2,0(s1)
80000e64:	00060a63          	beqz	a2,80000e78 <main+0x7c>
80000e68:	00040593          	mv	a1,s0
80000e6c:	00002517          	auipc	a0,0x2
80000e70:	bc850513          	addi	a0,a0,-1080 # 80002a34 <dy.0+0x150>
80000e74:	3c8010ef          	jal	ra,8000223c <printf>
80000e78:	00448493          	addi	s1,s1,4
80000e7c:	fd9ff06f          	j	80000e54 <main+0x58>
80000e80:	fffff797          	auipc	a5,0xfffff
80000e84:	19078793          	addi	a5,a5,400 # 80000010 <audio_test>
80000e88:	00094717          	auipc	a4,0x94
80000e8c:	58f72c23          	sw	a5,1432(a4) # 80095420 <entry>
80000e90:	1f4000ef          	jal	ra,80001084 <ioe_init>
80000e94:	97cff0ef          	jal	ra,80000010 <audio_test>
80000e98:	00812083          	lw	ra,8(sp)
80000e9c:	00412403          	lw	s0,4(sp)
80000ea0:	00012483          	lw	s1,0(sp)
80000ea4:	00000513          	li	a0,0
80000ea8:	00c10113          	addi	sp,sp,12
80000eac:	00008067          	ret
80000eb0:	fffff797          	auipc	a5,0xfffff
80000eb4:	4b478793          	addi	a5,a5,1204 # 80000364 <devscan>
80000eb8:	00094717          	auipc	a4,0x94
80000ebc:	56f72423          	sw	a5,1384(a4) # 80095420 <entry>
80000ec0:	1c4000ef          	jal	ra,80001084 <ioe_init>
80000ec4:	ca0ff0ef          	jal	ra,80000364 <devscan>
80000ec8:	fd1ff06f          	j	80000e98 <main+0x9c>
80000ecc:	00000797          	auipc	a5,0x0
80000ed0:	bcc78793          	addi	a5,a5,-1076 # 80000a98 <hello>
80000ed4:	00094717          	auipc	a4,0x94
80000ed8:	54f72623          	sw	a5,1356(a4) # 80095420 <entry>
80000edc:	bbdff0ef          	jal	ra,80000a98 <hello>
80000ee0:	fb9ff06f          	j	80000e98 <main+0x9c>
80000ee4:	fffff797          	auipc	a5,0xfffff
80000ee8:	41878793          	addi	a5,a5,1048 # 800002fc <hello_intr>
80000eec:	00094717          	auipc	a4,0x94
80000ef0:	52f72a23          	sw	a5,1332(a4) # 80095420 <entry>
80000ef4:	190000ef          	jal	ra,80001084 <ioe_init>
80000ef8:	fffff517          	auipc	a0,0xfffff
80000efc:	31850513          	addi	a0,a0,792 # 80000210 <simple_trap>
80000f00:	4f0000ef          	jal	ra,800013f0 <cte_init>
80000f04:	bf8ff0ef          	jal	ra,800002fc <hello_intr>
80000f08:	f91ff06f          	j	80000e98 <main+0x9c>
80000f0c:	fffff797          	auipc	a5,0xfffff
80000f10:	6f078793          	addi	a5,a5,1776 # 800005fc <keyboard_test>
80000f14:	00094717          	auipc	a4,0x94
80000f18:	50f72623          	sw	a5,1292(a4) # 80095420 <entry>
80000f1c:	168000ef          	jal	ra,80001084 <ioe_init>
80000f20:	edcff0ef          	jal	ra,800005fc <keyboard_test>
80000f24:	f75ff06f          	j	80000e98 <main+0x9c>
80000f28:	fffff797          	auipc	a5,0xfffff
80000f2c:	1f478793          	addi	a5,a5,500 # 8000011c <mp_print>
80000f30:	00078513          	mv	a0,a5
80000f34:	00094717          	auipc	a4,0x94
80000f38:	4ef72623          	sw	a5,1260(a4) # 80095420 <entry>
80000f3c:	370000ef          	jal	ra,800012ac <mpe_init>
80000f40:	9dcff0ef          	jal	ra,8000011c <mp_print>
80000f44:	f55ff06f          	j	80000e98 <main+0x9c>
80000f48:	00000797          	auipc	a5,0x0
80000f4c:	d5c78793          	addi	a5,a5,-676 # 80000ca4 <vm_test>
80000f50:	00000517          	auipc	a0,0x0
80000f54:	bdc50513          	addi	a0,a0,-1060 # 80000b2c <vm_handler>
80000f58:	00094717          	auipc	a4,0x94
80000f5c:	4cf72423          	sw	a5,1224(a4) # 80095420 <entry>
80000f60:	490000ef          	jal	ra,800013f0 <cte_init>
80000f64:	00000597          	auipc	a1,0x0
80000f68:	bc458593          	addi	a1,a1,-1084 # 80000b28 <simple_pgfree>
80000f6c:	00000517          	auipc	a0,0x0
80000f70:	b7850513          	addi	a0,a0,-1160 # 80000ae4 <simple_pgalloc>
80000f74:	5e8000ef          	jal	ra,8000155c <vme_init>
80000f78:	d2dff0ef          	jal	ra,80000ca4 <vm_test>
80000f7c:	f1dff06f          	j	80000e98 <main+0x9c>
80000f80:	fffff797          	auipc	a5,0xfffff
80000f84:	1c478793          	addi	a5,a5,452 # 80000144 <rtc_test>
80000f88:	00094717          	auipc	a4,0x94
80000f8c:	48f72c23          	sw	a5,1176(a4) # 80095420 <entry>
80000f90:	0f4000ef          	jal	ra,80001084 <ioe_init>
80000f94:	9b0ff0ef          	jal	ra,80000144 <rtc_test>
80000f98:	f01ff06f          	j	80000e98 <main+0x9c>
80000f9c:	00000797          	auipc	a5,0x0
80000fa0:	a6078793          	addi	a5,a5,-1440 # 800009fc <video_test>
80000fa4:	00094717          	auipc	a4,0x94
80000fa8:	46f72e23          	sw	a5,1148(a4) # 80095420 <entry>
80000fac:	0d8000ef          	jal	ra,80001084 <ioe_init>
80000fb0:	a4dff0ef          	jal	ra,800009fc <video_test>
80000fb4:	ee5ff06f          	j	80000e98 <main+0x9c>

80000fb8 <putch>:
80000fb8:	a00007b7          	lui	a5,0xa0000
80000fbc:	3ea78c23          	sb	a0,1016(a5) # a00003f8 <_end+0x1ff623f8>
80000fc0:	00008067          	ret

80000fc4 <halt>:
80000fc4:	00050513          	mv	a0,a0
80000fc8:	00100073          	ebreak
80000fcc:	0000006f          	j	80000fcc <halt+0x8>

80000fd0 <_trm_init>:
80000fd0:	ffc10113          	addi	sp,sp,-4
80000fd4:	00002517          	auipc	a0,0x2
80000fd8:	1e450513          	addi	a0,a0,484 # 800031b8 <mainargs>
80000fdc:	00112023          	sw	ra,0(sp)
80000fe0:	e1dff0ef          	jal	ra,80000dfc <main>
80000fe4:	00050513          	mv	a0,a0
80000fe8:	00100073          	ebreak
80000fec:	0000006f          	j	80000fec <_trm_init+0x1c>

80000ff0 <__am_timer_config>:
80000ff0:	00100793          	li	a5,1
80000ff4:	00f50023          	sb	a5,0(a0)
80000ff8:	00f500a3          	sb	a5,1(a0)
80000ffc:	00008067          	ret

80001000 <__am_input_config>:
80001000:	00100793          	li	a5,1
80001004:	00f50023          	sb	a5,0(a0)
80001008:	00008067          	ret

8000100c <__am_uart_config>:
8000100c:	00050023          	sb	zero,0(a0)
80001010:	00008067          	ret

80001014 <__am_net_config>:
80001014:	00050023          	sb	zero,0(a0)
80001018:	00008067          	ret

8000101c <fail>:
8000101c:	ff810113          	addi	sp,sp,-8
80001020:	00812023          	sw	s0,0(sp)
80001024:	00112223          	sw	ra,4(sp)
80001028:	00001417          	auipc	s0,0x1
8000102c:	34440413          	addi	s0,s0,836 # 8000236c <_etext+0x9c>
80001030:	04100513          	li	a0,65
80001034:	00140413          	addi	s0,s0,1
80001038:	f81ff0ef          	jal	ra,80000fb8 <putch>
8000103c:	00044503          	lbu	a0,0(s0)
80001040:	fe051ae3          	bnez	a0,80001034 <fail+0x18>
80001044:	00002417          	auipc	s0,0x2
80001048:	f1040413          	addi	s0,s0,-240 # 80002f54 <tests+0x400>
8000104c:	06100513          	li	a0,97
80001050:	00140413          	addi	s0,s0,1
80001054:	f65ff0ef          	jal	ra,80000fb8 <putch>
80001058:	00044503          	lbu	a0,0(s0)
8000105c:	fe051ae3          	bnez	a0,80001050 <fail+0x34>
80001060:	00002417          	auipc	s0,0x2
80001064:	f1040413          	addi	s0,s0,-240 # 80002f70 <tests+0x41c>
80001068:	02000513          	li	a0,32
8000106c:	00140413          	addi	s0,s0,1
80001070:	f49ff0ef          	jal	ra,80000fb8 <putch>
80001074:	00044503          	lbu	a0,0(s0)
80001078:	fe051ae3          	bnez	a0,8000106c <fail+0x50>
8000107c:	00100513          	li	a0,1
80001080:	f45ff0ef          	jal	ra,80000fc4 <halt>

80001084 <ioe_init>:
80001084:	ffc10113          	addi	sp,sp,-4
80001088:	00112023          	sw	ra,0(sp)
8000108c:	00010797          	auipc	a5,0x10
80001090:	f5c78793          	addi	a5,a5,-164 # 80010fe8 <lut>
80001094:	00010697          	auipc	a3,0x10
80001098:	15468693          	addi	a3,a3,340 # 800111e8 <next>
8000109c:	00000617          	auipc	a2,0x0
800010a0:	f8060613          	addi	a2,a2,-128 # 8000101c <fail>
800010a4:	00c0006f          	j	800010b0 <ioe_init+0x2c>
800010a8:	00478793          	addi	a5,a5,4
800010ac:	00d78c63          	beq	a5,a3,800010c4 <ioe_init+0x40>
800010b0:	0007a703          	lw	a4,0(a5)
800010b4:	fe071ae3          	bnez	a4,800010a8 <ioe_init+0x24>
800010b8:	00c7a023          	sw	a2,0(a5)
800010bc:	00478793          	addi	a5,a5,4
800010c0:	fed798e3          	bne	a5,a3,800010b0 <ioe_init+0x2c>
800010c4:	0f4000ef          	jal	ra,800011b8 <__am_gpu_init>
800010c8:	050000ef          	jal	ra,80001118 <__am_timer_init>
800010cc:	1b4000ef          	jal	ra,80001280 <__am_audio_init>
800010d0:	00012083          	lw	ra,0(sp)
800010d4:	00100513          	li	a0,1
800010d8:	00410113          	addi	sp,sp,4
800010dc:	00008067          	ret

800010e0 <ioe_read>:
800010e0:	00251513          	slli	a0,a0,0x2
800010e4:	00010797          	auipc	a5,0x10
800010e8:	f0478793          	addi	a5,a5,-252 # 80010fe8 <lut>
800010ec:	00a787b3          	add	a5,a5,a0
800010f0:	0007a783          	lw	a5,0(a5)
800010f4:	00058513          	mv	a0,a1
800010f8:	00078067          	jr	a5

800010fc <ioe_write>:
800010fc:	00251513          	slli	a0,a0,0x2
80001100:	00010797          	auipc	a5,0x10
80001104:	ee878793          	addi	a5,a5,-280 # 80010fe8 <lut>
80001108:	00a787b3          	add	a5,a5,a0
8000110c:	0007a783          	lw	a5,0(a5)
80001110:	00058513          	mv	a0,a1
80001114:	00078067          	jr	a5

80001118 <__am_timer_init>:
80001118:	a00007b7          	lui	a5,0xa0000
8000111c:	0487a683          	lw	a3,72(a5) # a0000048 <_end+0x1ff62048>
80001120:	04c7a703          	lw	a4,76(a5)
80001124:	00094797          	auipc	a5,0x94
80001128:	30478793          	addi	a5,a5,772 # 80095428 <boot_time>
8000112c:	00d7a023          	sw	a3,0(a5)
80001130:	00e7a223          	sw	a4,4(a5)
80001134:	00008067          	ret

80001138 <__am_timer_uptime>:
80001138:	a00007b7          	lui	a5,0xa0000
8000113c:	00094617          	auipc	a2,0x94
80001140:	2ec60613          	addi	a2,a2,748 # 80095428 <boot_time>
80001144:	0487a683          	lw	a3,72(a5) # a0000048 <_end+0x1ff62048>
80001148:	00062703          	lw	a4,0(a2)
8000114c:	04c7a783          	lw	a5,76(a5)
80001150:	00462603          	lw	a2,4(a2)
80001154:	40e68733          	sub	a4,a3,a4
80001158:	00e6b6b3          	sltu	a3,a3,a4
8000115c:	40c787b3          	sub	a5,a5,a2
80001160:	40d787b3          	sub	a5,a5,a3
80001164:	00e52023          	sw	a4,0(a0)
80001168:	00f52223          	sw	a5,4(a0)
8000116c:	00008067          	ret

80001170 <__am_timer_rtc>:
80001170:	76c00793          	li	a5,1900
80001174:	00052a23          	sw	zero,20(a0)
80001178:	00052823          	sw	zero,16(a0)
8000117c:	00052623          	sw	zero,12(a0)
80001180:	00052423          	sw	zero,8(a0)
80001184:	00052223          	sw	zero,4(a0)
80001188:	00f52023          	sw	a5,0(a0)
8000118c:	00008067          	ret

80001190 <__am_input_keybrd>:
80001190:	a00007b7          	lui	a5,0xa0000
80001194:	0607a783          	lw	a5,96(a5) # a0000060 <_end+0x1ff62060>
80001198:	ffff86b7          	lui	a3,0xffff8
8000119c:	fff68693          	addi	a3,a3,-1 # ffff7fff <_end+0x7ff59fff>
800011a0:	00f7d713          	srli	a4,a5,0xf
800011a4:	00177713          	andi	a4,a4,1
800011a8:	00d7f7b3          	and	a5,a5,a3
800011ac:	00e50023          	sb	a4,0(a0)
800011b0:	00f52223          	sw	a5,4(a0)
800011b4:	00008067          	ret

800011b8 <__am_gpu_init>:
800011b8:	00008067          	ret

800011bc <__am_gpu_config>:
800011bc:	00002797          	auipc	a5,0x2
800011c0:	e1878793          	addi	a5,a5,-488 # 80002fd4 <tests+0x480>
800011c4:	0007a603          	lw	a2,0(a5)
800011c8:	0047a683          	lw	a3,4(a5)
800011cc:	0087a703          	lw	a4,8(a5)
800011d0:	00c7a783          	lw	a5,12(a5)
800011d4:	00c52023          	sw	a2,0(a0)
800011d8:	00d52223          	sw	a3,4(a0)
800011dc:	00e52423          	sw	a4,8(a0)
800011e0:	00f52623          	sw	a5,12(a0)
800011e4:	00008067          	ret

800011e8 <__am_gpu_fbdraw>:
800011e8:	01052f03          	lw	t5,16(a0)
800011ec:	00052f83          	lw	t6,0(a0)
800011f0:	00452783          	lw	a5,4(a0)
800011f4:	00c52e83          	lw	t4,12(a0)
800011f8:	00852683          	lw	a3,8(a0)
800011fc:	07e05063          	blez	t5,8000125c <__am_gpu_fbdraw+0x74>
80001200:	19000713          	li	a4,400
80001204:	02e785b3          	mul	a1,a5,a4
80001208:	002e9313          	slli	t1,t4,0x2
8000120c:	41d70733          	sub	a4,a4,t4
80001210:	00271e13          	slli	t3,a4,0x2
80001214:	00668633          	add	a2,a3,t1
80001218:	00000893          	li	a7,0
8000121c:	a1000837          	lui	a6,0xa1000
80001220:	01f585b3          	add	a1,a1,t6
80001224:	00259593          	slli	a1,a1,0x2
80001228:	40d585b3          	sub	a1,a1,a3
8000122c:	406607b3          	sub	a5,a2,t1
80001230:	01d05e63          	blez	t4,8000124c <__am_gpu_fbdraw+0x64>
80001234:	0007a683          	lw	a3,0(a5)
80001238:	00b78733          	add	a4,a5,a1
8000123c:	00e80733          	add	a4,a6,a4
80001240:	00d72023          	sw	a3,0(a4)
80001244:	00478793          	addi	a5,a5,4
80001248:	fec796e3          	bne	a5,a2,80001234 <__am_gpu_fbdraw+0x4c>
8000124c:	00188893          	addi	a7,a7,1
80001250:	01c585b3          	add	a1,a1,t3
80001254:	00660633          	add	a2,a2,t1
80001258:	fd1f1ae3          	bne	t5,a7,8000122c <__am_gpu_fbdraw+0x44>
8000125c:	01454783          	lbu	a5,20(a0)
80001260:	00078863          	beqz	a5,80001270 <__am_gpu_fbdraw+0x88>
80001264:	a00007b7          	lui	a5,0xa0000
80001268:	00100713          	li	a4,1
8000126c:	10e7a223          	sw	a4,260(a5) # a0000104 <_end+0x1ff62104>
80001270:	00008067          	ret

80001274 <__am_gpu_status>:
80001274:	00100793          	li	a5,1
80001278:	00f50023          	sb	a5,0(a0)
8000127c:	00008067          	ret

80001280 <__am_audio_init>:
80001280:	00008067          	ret

80001284 <__am_audio_config>:
80001284:	00050023          	sb	zero,0(a0)
80001288:	00008067          	ret

8000128c <__am_audio_ctrl>:
8000128c:	00008067          	ret

80001290 <__am_audio_status>:
80001290:	00052023          	sw	zero,0(a0)
80001294:	00008067          	ret

80001298 <__am_audio_play>:
80001298:	00008067          	ret

8000129c <__am_disk_config>:
8000129c:	00050023          	sb	zero,0(a0)
800012a0:	00008067          	ret

800012a4 <__am_disk_status>:
800012a4:	00008067          	ret

800012a8 <__am_disk_blkio>:
800012a8:	00008067          	ret

800012ac <mpe_init>:
800012ac:	ff810113          	addi	sp,sp,-8
800012b0:	00812023          	sw	s0,0(sp)
800012b4:	00112223          	sw	ra,4(sp)
800012b8:	000500e7          	jalr	a0
800012bc:	00001417          	auipc	s0,0x1
800012c0:	0b040413          	addi	s0,s0,176 # 8000236c <_etext+0x9c>
800012c4:	04100513          	li	a0,65
800012c8:	00140413          	addi	s0,s0,1
800012cc:	cedff0ef          	jal	ra,80000fb8 <putch>
800012d0:	00044503          	lbu	a0,0(s0)
800012d4:	fe051ae3          	bnez	a0,800012c8 <mpe_init+0x1c>
800012d8:	00002417          	auipc	s0,0x2
800012dc:	d0c40413          	addi	s0,s0,-756 # 80002fe4 <tests+0x490>
800012e0:	04d00513          	li	a0,77
800012e4:	00140413          	addi	s0,s0,1
800012e8:	cd1ff0ef          	jal	ra,80000fb8 <putch>
800012ec:	00044503          	lbu	a0,0(s0)
800012f0:	fe051ae3          	bnez	a0,800012e4 <mpe_init+0x38>
800012f4:	00002417          	auipc	s0,0x2
800012f8:	d0440413          	addi	s0,s0,-764 # 80002ff8 <tests+0x4a4>
800012fc:	02000513          	li	a0,32
80001300:	00140413          	addi	s0,s0,1
80001304:	cb5ff0ef          	jal	ra,80000fb8 <putch>
80001308:	00044503          	lbu	a0,0(s0)
8000130c:	fe051ae3          	bnez	a0,80001300 <mpe_init+0x54>
80001310:	00100513          	li	a0,1
80001314:	cb1ff0ef          	jal	ra,80000fc4 <halt>

80001318 <cpu_current>:
80001318:	00000513          	li	a0,0
8000131c:	00008067          	ret

80001320 <__am_irq_handle>:
80001320:	fd410113          	addi	sp,sp,-44
80001324:	02912023          	sw	s1,32(sp)
80001328:	00094497          	auipc	s1,0x94
8000132c:	10848493          	addi	s1,s1,264 # 80095430 <user_handler>
80001330:	0004a783          	lw	a5,0(s1)
80001334:	02812223          	sw	s0,36(sp)
80001338:	02112423          	sw	ra,40(sp)
8000133c:	00050413          	mv	s0,a0
80001340:	06078063          	beqz	a5,800013a0 <__am_irq_handle+0x80>
80001344:	08052583          	lw	a1,128(a0)
80001348:	00012a23          	sw	zero,20(sp)
8000134c:	00012c23          	sw	zero,24(sp)
80001350:	00012e23          	sw	zero,28(sp)
80001354:	00b00713          	li	a4,11
80001358:	04e59e63          	bne	a1,a4,800013b4 <__am_irq_handle+0x94>
8000135c:	08852703          	lw	a4,136(a0)
80001360:	00100693          	li	a3,1
80001364:	00d12823          	sw	a3,16(sp)
80001368:	00470713          	addi	a4,a4,4
8000136c:	08e52423          	sw	a4,136(a0)
80001370:	01012703          	lw	a4,16(sp)
80001374:	00040593          	mv	a1,s0
80001378:	00010513          	mv	a0,sp
8000137c:	00e12023          	sw	a4,0(sp)
80001380:	01412703          	lw	a4,20(sp)
80001384:	00e12223          	sw	a4,4(sp)
80001388:	01812703          	lw	a4,24(sp)
8000138c:	00e12423          	sw	a4,8(sp)
80001390:	01c12703          	lw	a4,28(sp)
80001394:	00e12623          	sw	a4,12(sp)
80001398:	000780e7          	jalr	a5
8000139c:	02050a63          	beqz	a0,800013d0 <__am_irq_handle+0xb0>
800013a0:	02812083          	lw	ra,40(sp)
800013a4:	02412403          	lw	s0,36(sp)
800013a8:	02012483          	lw	s1,32(sp)
800013ac:	02c10113          	addi	sp,sp,44
800013b0:	00008067          	ret
800013b4:	00400793          	li	a5,4
800013b8:	00002517          	auipc	a0,0x2
800013bc:	ca050513          	addi	a0,a0,-864 # 80003058 <tests+0x504>
800013c0:	00f12823          	sw	a5,16(sp)
800013c4:	679000ef          	jal	ra,8000223c <printf>
800013c8:	0004a783          	lw	a5,0(s1)
800013cc:	fa5ff06f          	j	80001370 <__am_irq_handle+0x50>
800013d0:	01b00613          	li	a2,27
800013d4:	00002597          	auipc	a1,0x2
800013d8:	c9858593          	addi	a1,a1,-872 # 8000306c <tests+0x518>
800013dc:	00001517          	auipc	a0,0x1
800013e0:	4cc50513          	addi	a0,a0,1228 # 800028a8 <names+0x1a4>
800013e4:	659000ef          	jal	ra,8000223c <printf>
800013e8:	00100513          	li	a0,1
800013ec:	bd9ff0ef          	jal	ra,80000fc4 <halt>

800013f0 <cte_init>:
800013f0:	00050793          	mv	a5,a0
800013f4:	00000717          	auipc	a4,0x0
800013f8:	02c70713          	addi	a4,a4,44 # 80001420 <__am_asm_trap>
800013fc:	30571073          	csrw	mtvec,a4
80001400:	00100513          	li	a0,1
80001404:	00094717          	auipc	a4,0x94
80001408:	02f72623          	sw	a5,44(a4) # 80095430 <user_handler>
8000140c:	00008067          	ret

80001410 <yield>:
80001410:	fff00893          	li	a7,-1
80001414:	00000073          	ecall
80001418:	00008067          	ret

8000141c <iset>:
8000141c:	00008067          	ret

80001420 <__am_asm_trap>:
80001420:	f7010113          	addi	sp,sp,-144
80001424:	00112223          	sw	ra,4(sp)
80001428:	00312623          	sw	gp,12(sp)
8000142c:	00412823          	sw	tp,16(sp)
80001430:	00512a23          	sw	t0,20(sp)
80001434:	00612c23          	sw	t1,24(sp)
80001438:	00712e23          	sw	t2,28(sp)
8000143c:	02812023          	sw	s0,32(sp)
80001440:	02912223          	sw	s1,36(sp)
80001444:	02a12423          	sw	a0,40(sp)
80001448:	02b12623          	sw	a1,44(sp)
8000144c:	02c12823          	sw	a2,48(sp)
80001450:	02d12a23          	sw	a3,52(sp)
80001454:	02e12c23          	sw	a4,56(sp)
80001458:	02f12e23          	sw	a5,60(sp)
8000145c:	05012023          	sw	a6,64(sp)
80001460:	05112223          	sw	a7,68(sp)
80001464:	05212423          	sw	s2,72(sp)
80001468:	05312623          	sw	s3,76(sp)
8000146c:	05412823          	sw	s4,80(sp)
80001470:	05512a23          	sw	s5,84(sp)
80001474:	05612c23          	sw	s6,88(sp)
80001478:	05712e23          	sw	s7,92(sp)
8000147c:	07812023          	sw	s8,96(sp)
80001480:	07912223          	sw	s9,100(sp)
80001484:	07a12423          	sw	s10,104(sp)
80001488:	07b12623          	sw	s11,108(sp)
8000148c:	07c12823          	sw	t3,112(sp)
80001490:	07d12a23          	sw	t4,116(sp)
80001494:	07e12c23          	sw	t5,120(sp)
80001498:	07f12e23          	sw	t6,124(sp)
8000149c:	342022f3          	csrr	t0,mcause
800014a0:	30002373          	csrr	t1,mstatus
800014a4:	341023f3          	csrr	t2,mepc
800014a8:	08512023          	sw	t0,128(sp)
800014ac:	08612223          	sw	t1,132(sp)
800014b0:	08712423          	sw	t2,136(sp)
800014b4:	00020537          	lui	a0,0x20
800014b8:	00a36333          	or	t1,t1,a0
800014bc:	30031073          	csrw	mstatus,t1
800014c0:	00010513          	mv	a0,sp
800014c4:	e5dff0ef          	jal	ra,80001320 <__am_irq_handle>
800014c8:	00050113          	mv	sp,a0
800014cc:	08412303          	lw	t1,132(sp)
800014d0:	08812383          	lw	t2,136(sp)
800014d4:	30031073          	csrw	mstatus,t1
800014d8:	34139073          	csrw	mepc,t2
800014dc:	00412083          	lw	ra,4(sp)
800014e0:	00c12183          	lw	gp,12(sp)
800014e4:	01012203          	lw	tp,16(sp)
800014e8:	01412283          	lw	t0,20(sp)
800014ec:	01812303          	lw	t1,24(sp)
800014f0:	01c12383          	lw	t2,28(sp)
800014f4:	02012403          	lw	s0,32(sp)
800014f8:	02412483          	lw	s1,36(sp)
800014fc:	02812503          	lw	a0,40(sp)
80001500:	02c12583          	lw	a1,44(sp)
80001504:	03012603          	lw	a2,48(sp)
80001508:	03412683          	lw	a3,52(sp)
8000150c:	03812703          	lw	a4,56(sp)
80001510:	03c12783          	lw	a5,60(sp)
80001514:	04012803          	lw	a6,64(sp)
80001518:	04412883          	lw	a7,68(sp)
8000151c:	04812903          	lw	s2,72(sp)
80001520:	04c12983          	lw	s3,76(sp)
80001524:	05012a03          	lw	s4,80(sp)
80001528:	05412a83          	lw	s5,84(sp)
8000152c:	05812b03          	lw	s6,88(sp)
80001530:	05c12b83          	lw	s7,92(sp)
80001534:	06012c03          	lw	s8,96(sp)
80001538:	06412c83          	lw	s9,100(sp)
8000153c:	06812d03          	lw	s10,104(sp)
80001540:	06c12d83          	lw	s11,108(sp)
80001544:	07012e03          	lw	t3,112(sp)
80001548:	07412e83          	lw	t4,116(sp)
8000154c:	07812f03          	lw	t5,120(sp)
80001550:	07c12f83          	lw	t6,124(sp)
80001554:	09010113          	addi	sp,sp,144
80001558:	30200073          	mret

8000155c <vme_init>:
8000155c:	ffc10113          	addi	sp,sp,-4
80001560:	00112023          	sw	ra,0(sp)
80001564:	00050793          	mv	a5,a0
80001568:	00001537          	lui	a0,0x1
8000156c:	00094717          	auipc	a4,0x94
80001570:	ecf72423          	sw	a5,-312(a4) # 80095434 <pgalloc_usr>
80001574:	000780e7          	jalr	a5
80001578:	00094717          	auipc	a4,0x94
8000157c:	e8a72a23          	sw	a0,-364(a4) # 8009540c <kas+0xc>
80001580:	00c55793          	srli	a5,a0,0xc
80001584:	80000737          	lui	a4,0x80000
80001588:	00e7e7b3          	or	a5,a5,a4
8000158c:	18079073          	csrw	satp,a5
80001590:	00012083          	lw	ra,0(sp)
80001594:	00100793          	li	a5,1
80001598:	00094717          	auipc	a4,0x94
8000159c:	eaf72023          	sw	a5,-352(a4) # 80095438 <vme_enable>
800015a0:	00100513          	li	a0,1
800015a4:	00410113          	addi	sp,sp,4
800015a8:	00008067          	ret

800015ac <protect>:
800015ac:	ff810113          	addi	sp,sp,-8
800015b0:	00812023          	sw	s0,0(sp)
800015b4:	00112223          	sw	ra,4(sp)
800015b8:	00050413          	mv	s0,a0
800015bc:	00094797          	auipc	a5,0x94
800015c0:	e787a783          	lw	a5,-392(a5) # 80095434 <pgalloc_usr>
800015c4:	00001537          	lui	a0,0x1
800015c8:	000780e7          	jalr	a5
800015cc:	400007b7          	lui	a5,0x40000
800015d0:	00f42223          	sw	a5,4(s0)
800015d4:	800007b7          	lui	a5,0x80000
800015d8:	00f42423          	sw	a5,8(s0)
800015dc:	000017b7          	lui	a5,0x1
800015e0:	00a42623          	sw	a0,12(s0)
800015e4:	00f42023          	sw	a5,0(s0)
800015e8:	00012403          	lw	s0,0(sp)
800015ec:	00412083          	lw	ra,4(sp)
800015f0:	00094597          	auipc	a1,0x94
800015f4:	e1c5a583          	lw	a1,-484(a1) # 8009540c <kas+0xc>
800015f8:	00001637          	lui	a2,0x1
800015fc:	00810113          	addi	sp,sp,8
80001600:	65c0006f          	j	80001c5c <memcpy>

80001604 <map>:
80001604:	00008067          	ret

80001608 <ucontext>:
80001608:	ff810113          	addi	sp,sp,-8
8000160c:	00000513          	li	a0,0
80001610:	00810113          	addi	sp,sp,8
80001614:	00008067          	ret

80001618 <rand>:
80001618:	00010697          	auipc	a3,0x10
8000161c:	bd068693          	addi	a3,a3,-1072 # 800111e8 <next>
80001620:	0006a783          	lw	a5,0(a3)
80001624:	41c65737          	lui	a4,0x41c65
80001628:	e6d70713          	addi	a4,a4,-403 # 41c64e6d <_entry_offset+0x41c64e6d>
8000162c:	02e787b3          	mul	a5,a5,a4
80001630:	00003737          	lui	a4,0x3
80001634:	03970713          	addi	a4,a4,57 # 3039 <_entry_offset+0x3039>
80001638:	00e787b3          	add	a5,a5,a4
8000163c:	00179513          	slli	a0,a5,0x1
80001640:	00f6a023          	sw	a5,0(a3)
80001644:	01155513          	srli	a0,a0,0x11
80001648:	00008067          	ret

8000164c <__udivmoddi4>:
8000164c:	00050313          	mv	t1,a0
80001650:	02059263          	bnez	a1,80001674 <__udivmoddi4+0x28>
80001654:	1c069c63          	bnez	a3,8000182c <__udivmoddi4+0x1e0>
80001658:	00070863          	beqz	a4,80001668 <__udivmoddi4+0x1c>
8000165c:	02c577b3          	remu	a5,a0,a2
80001660:	00072223          	sw	zero,4(a4)
80001664:	00f72023          	sw	a5,0(a4)
80001668:	02c35533          	divu	a0,t1,a2
8000166c:	00000593          	li	a1,0
80001670:	00008067          	ret
80001674:	fe010113          	addi	sp,sp,-32
80001678:	00812c23          	sw	s0,24(sp)
8000167c:	00112e23          	sw	ra,28(sp)
80001680:	00912a23          	sw	s1,20(sp)
80001684:	00058413          	mv	s0,a1
80001688:	12061463          	bnez	a2,800017b0 <__udivmoddi4+0x164>
8000168c:	20068c63          	beqz	a3,800018a4 <__udivmoddi4+0x258>
80001690:	2a050c63          	beqz	a0,80001948 <__udivmoddi4+0x2fc>
80001694:	fff68793          	addi	a5,a3,-1
80001698:	00d7f533          	and	a0,a5,a3
8000169c:	2c050a63          	beqz	a0,80001970 <__udivmoddi4+0x324>
800016a0:	00068513          	mv	a0,a3
800016a4:	00c12823          	sw	a2,16(sp)
800016a8:	00b12623          	sw	a1,12(sp)
800016ac:	00612423          	sw	t1,8(sp)
800016b0:	00e12223          	sw	a4,4(sp)
800016b4:	00d12023          	sw	a3,0(sp)
800016b8:	350000ef          	jal	ra,80001a08 <__clzsi2>
800016bc:	00050493          	mv	s1,a0
800016c0:	00040513          	mv	a0,s0
800016c4:	344000ef          	jal	ra,80001a08 <__clzsi2>
800016c8:	40a48533          	sub	a0,s1,a0
800016cc:	01e00793          	li	a5,30
800016d0:	00012683          	lw	a3,0(sp)
800016d4:	00412703          	lw	a4,4(sp)
800016d8:	00812303          	lw	t1,8(sp)
800016dc:	00c12583          	lw	a1,12(sp)
800016e0:	01012603          	lw	a2,16(sp)
800016e4:	1ca7e863          	bltu	a5,a0,800018b4 <__udivmoddi4+0x268>
800016e8:	00150593          	addi	a1,a0,1 # 1001 <_entry_offset+0x1001>
800016ec:	02000e93          	li	t4,32
800016f0:	40be8eb3          	sub	t4,t4,a1
800016f4:	01d41833          	sll	a6,s0,t4
800016f8:	00b35533          	srl	a0,t1,a1
800016fc:	00b457b3          	srl	a5,s0,a1
80001700:	01d31eb3          	sll	t4,t1,t4
80001704:	00a86433          	or	s0,a6,a0
80001708:	00000493          	li	s1,0
8000170c:	00000313          	li	t1,0
80001710:	01fed513          	srli	a0,t4,0x1f
80001714:	00141813          	slli	a6,s0,0x1
80001718:	00a86833          	or	a6,a6,a0
8000171c:	01f45413          	srli	s0,s0,0x1f
80001720:	00179793          	slli	a5,a5,0x1
80001724:	0087e7b3          	or	a5,a5,s0
80001728:	41060e33          	sub	t3,a2,a6
8000172c:	01c63533          	sltu	a0,a2,t3
80001730:	40f688b3          	sub	a7,a3,a5
80001734:	40a888b3          	sub	a7,a7,a0
80001738:	001e3e13          	seqz	t3,t3
8000173c:	41c888b3          	sub	a7,a7,t3
80001740:	41f8de13          	srai	t3,a7,0x1f
80001744:	00ce7433          	and	s0,t3,a2
80001748:	40880433          	sub	s0,a6,s0
8000174c:	00de7e33          	and	t3,t3,a3
80001750:	01f4d513          	srli	a0,s1,0x1f
80001754:	001e9e93          	slli	t4,t4,0x1
80001758:	00149493          	slli	s1,s1,0x1
8000175c:	00883833          	sltu	a6,a6,s0
80001760:	41c787b3          	sub	a5,a5,t3
80001764:	fff58593          	addi	a1,a1,-1
80001768:	0064e4b3          	or	s1,s1,t1
8000176c:	00aeeeb3          	or	t4,t4,a0
80001770:	01f8d313          	srli	t1,a7,0x1f
80001774:	410787b3          	sub	a5,a5,a6
80001778:	f8059ce3          	bnez	a1,80001710 <__udivmoddi4+0xc4>
8000177c:	01f4d593          	srli	a1,s1,0x1f
80001780:	001e9e93          	slli	t4,t4,0x1
80001784:	00149493          	slli	s1,s1,0x1
80001788:	0064e533          	or	a0,s1,t1
8000178c:	01d5e5b3          	or	a1,a1,t4
80001790:	00070663          	beqz	a4,8000179c <__udivmoddi4+0x150>
80001794:	00872023          	sw	s0,0(a4)
80001798:	00f72223          	sw	a5,4(a4)
8000179c:	01c12083          	lw	ra,28(sp)
800017a0:	01812403          	lw	s0,24(sp)
800017a4:	01412483          	lw	s1,20(sp)
800017a8:	02010113          	addi	sp,sp,32
800017ac:	00008067          	ret
800017b0:	08068a63          	beqz	a3,80001844 <__udivmoddi4+0x1f8>
800017b4:	00a12223          	sw	a0,4(sp)
800017b8:	00068513          	mv	a0,a3
800017bc:	00b12423          	sw	a1,8(sp)
800017c0:	00e12023          	sw	a4,0(sp)
800017c4:	00c12823          	sw	a2,16(sp)
800017c8:	00d12623          	sw	a3,12(sp)
800017cc:	23c000ef          	jal	ra,80001a08 <__clzsi2>
800017d0:	00050493          	mv	s1,a0
800017d4:	00040513          	mv	a0,s0
800017d8:	230000ef          	jal	ra,80001a08 <__clzsi2>
800017dc:	40a48533          	sub	a0,s1,a0
800017e0:	01f00793          	li	a5,31
800017e4:	00012703          	lw	a4,0(sp)
800017e8:	00412303          	lw	t1,4(sp)
800017ec:	00812583          	lw	a1,8(sp)
800017f0:	0ca7e263          	bltu	a5,a0,800018b4 <__udivmoddi4+0x268>
800017f4:	00150593          	addi	a1,a0,1
800017f8:	02000793          	li	a5,32
800017fc:	00c12683          	lw	a3,12(sp)
80001800:	01012603          	lw	a2,16(sp)
80001804:	00030e93          	mv	t4,t1
80001808:	18f58a63          	beq	a1,a5,8000199c <__udivmoddi4+0x350>
8000180c:	40b78533          	sub	a0,a5,a1
80001810:	00b35833          	srl	a6,t1,a1
80001814:	00a418b3          	sll	a7,s0,a0
80001818:	00b457b3          	srl	a5,s0,a1
8000181c:	00a31eb3          	sll	t4,t1,a0
80001820:	0108e433          	or	s0,a7,a6
80001824:	00000493          	li	s1,0
80001828:	ee5ff06f          	j	8000170c <__udivmoddi4+0xc0>
8000182c:	06070e63          	beqz	a4,800018a8 <__udivmoddi4+0x25c>
80001830:	00a72023          	sw	a0,0(a4)
80001834:	00072223          	sw	zero,4(a4)
80001838:	00000513          	li	a0,0
8000183c:	00000593          	li	a1,0
80001840:	00008067          	ret
80001844:	fff60793          	addi	a5,a2,-1 # fff <_entry_offset+0xfff>
80001848:	00c7f533          	and	a0,a5,a2
8000184c:	08051063          	bnez	a0,800018cc <__udivmoddi4+0x280>
80001850:	00070863          	beqz	a4,80001860 <__udivmoddi4+0x214>
80001854:	0067f7b3          	and	a5,a5,t1
80001858:	00f72023          	sw	a5,0(a4)
8000185c:	00072223          	sw	zero,4(a4)
80001860:	00100793          	li	a5,1
80001864:	00030513          	mv	a0,t1
80001868:	f2f60ae3          	beq	a2,a5,8000179c <__udivmoddi4+0x150>
8000186c:	00060513          	mv	a0,a2
80001870:	00b12223          	sw	a1,4(sp)
80001874:	00612023          	sw	t1,0(sp)
80001878:	228000ef          	jal	ra,80001aa0 <__ctzsi2>
8000187c:	00412583          	lw	a1,4(sp)
80001880:	00012303          	lw	t1,0(sp)
80001884:	02000713          	li	a4,32
80001888:	40a70733          	sub	a4,a4,a0
8000188c:	00050793          	mv	a5,a0
80001890:	00e59733          	sll	a4,a1,a4
80001894:	00a35333          	srl	t1,t1,a0
80001898:	00676533          	or	a0,a4,t1
8000189c:	00f5d5b3          	srl	a1,a1,a5
800018a0:	efdff06f          	j	8000179c <__udivmoddi4+0x150>
800018a4:	00100073          	ebreak
800018a8:	00000513          	li	a0,0
800018ac:	00000593          	li	a1,0
800018b0:	00008067          	ret
800018b4:	0a070863          	beqz	a4,80001964 <__udivmoddi4+0x318>
800018b8:	00b72223          	sw	a1,4(a4)
800018bc:	00672023          	sw	t1,0(a4)
800018c0:	00000513          	li	a0,0
800018c4:	00000593          	li	a1,0
800018c8:	ed5ff06f          	j	8000179c <__udivmoddi4+0x150>
800018cc:	00060513          	mv	a0,a2
800018d0:	00068493          	mv	s1,a3
800018d4:	00d12823          	sw	a3,16(sp)
800018d8:	00612623          	sw	t1,12(sp)
800018dc:	00e12423          	sw	a4,8(sp)
800018e0:	00c12223          	sw	a2,4(sp)
800018e4:	124000ef          	jal	ra,80001a08 <__clzsi2>
800018e8:	00050793          	mv	a5,a0
800018ec:	00040513          	mv	a0,s0
800018f0:	00f12023          	sw	a5,0(sp)
800018f4:	114000ef          	jal	ra,80001a08 <__clzsi2>
800018f8:	00012783          	lw	a5,0(sp)
800018fc:	00c12303          	lw	t1,12(sp)
80001900:	02000813          	li	a6,32
80001904:	40a78533          	sub	a0,a5,a0
80001908:	02150593          	addi	a1,a0,33
8000190c:	00412603          	lw	a2,4(sp)
80001910:	00812703          	lw	a4,8(sp)
80001914:	01012683          	lw	a3,16(sp)
80001918:	00030e93          	mv	t4,t1
8000191c:	00000793          	li	a5,0
80001920:	df0586e3          	beq	a1,a6,8000170c <__udivmoddi4+0xc0>
80001924:	01f00893          	li	a7,31
80001928:	08b8e063          	bltu	a7,a1,800019a8 <__udivmoddi4+0x35c>
8000192c:	40b80833          	sub	a6,a6,a1
80001930:	00b35533          	srl	a0,t1,a1
80001934:	010418b3          	sll	a7,s0,a6
80001938:	00b457b3          	srl	a5,s0,a1
8000193c:	01031eb3          	sll	t4,t1,a6
80001940:	00a8e433          	or	s0,a7,a0
80001944:	dc9ff06f          	j	8000170c <__udivmoddi4+0xc0>
80001948:	00070863          	beqz	a4,80001958 <__udivmoddi4+0x30c>
8000194c:	02d5f7b3          	remu	a5,a1,a3
80001950:	00072023          	sw	zero,0(a4)
80001954:	00f72223          	sw	a5,4(a4)
80001958:	02d5d533          	divu	a0,a1,a3
8000195c:	00000593          	li	a1,0
80001960:	e3dff06f          	j	8000179c <__udivmoddi4+0x150>
80001964:	00000513          	li	a0,0
80001968:	00000593          	li	a1,0
8000196c:	e31ff06f          	j	8000179c <__udivmoddi4+0x150>
80001970:	00070863          	beqz	a4,80001980 <__udivmoddi4+0x334>
80001974:	00b7f7b3          	and	a5,a5,a1
80001978:	00672023          	sw	t1,0(a4)
8000197c:	00f72223          	sw	a5,4(a4)
80001980:	00068513          	mv	a0,a3
80001984:	00b12023          	sw	a1,0(sp)
80001988:	118000ef          	jal	ra,80001aa0 <__ctzsi2>
8000198c:	00012583          	lw	a1,0(sp)
80001990:	00a5d533          	srl	a0,a1,a0
80001994:	00000593          	li	a1,0
80001998:	e05ff06f          	j	8000179c <__udivmoddi4+0x150>
8000199c:	00000793          	li	a5,0
800019a0:	00000493          	li	s1,0
800019a4:	d69ff06f          	j	8000170c <__udivmoddi4+0xc0>
800019a8:	04000813          	li	a6,64
800019ac:	40b80833          	sub	a6,a6,a1
800019b0:	00150513          	addi	a0,a0,1
800019b4:	010314b3          	sll	s1,t1,a6
800019b8:	00a35eb3          	srl	t4,t1,a0
800019bc:	01041833          	sll	a6,s0,a6
800019c0:	01d86eb3          	or	t4,a6,t4
800019c4:	00a45433          	srl	s0,s0,a0
800019c8:	d45ff06f          	j	8000170c <__udivmoddi4+0xc0>

800019cc <__udivdi3>:
800019cc:	00000713          	li	a4,0
800019d0:	c7dff06f          	j	8000164c <__udivmoddi4>

800019d4 <__umoddi3>:
800019d4:	fec10113          	addi	sp,sp,-20
800019d8:	00812623          	sw	s0,12(sp)
800019dc:	00710413          	addi	s0,sp,7
800019e0:	ff847413          	andi	s0,s0,-8
800019e4:	00040713          	mv	a4,s0
800019e8:	00112823          	sw	ra,16(sp)
800019ec:	c61ff0ef          	jal	ra,8000164c <__udivmoddi4>
800019f0:	00042503          	lw	a0,0(s0)
800019f4:	00442583          	lw	a1,4(s0)
800019f8:	01012083          	lw	ra,16(sp)
800019fc:	00c12403          	lw	s0,12(sp)
80001a00:	01410113          	addi	sp,sp,20
80001a04:	00008067          	ret

80001a08 <__clzsi2>:
80001a08:	ffff05b7          	lui	a1,0xffff0
80001a0c:	00b575b3          	and	a1,a0,a1
80001a10:	0015b593          	seqz	a1,a1
80001a14:	00459593          	slli	a1,a1,0x4
80001a18:	01000793          	li	a5,16
80001a1c:	40b787b3          	sub	a5,a5,a1
80001a20:	00010737          	lui	a4,0x10
80001a24:	00f557b3          	srl	a5,a0,a5
80001a28:	f0070713          	addi	a4,a4,-256 # ff00 <_entry_offset+0xff00>
80001a2c:	00e7f733          	and	a4,a5,a4
80001a30:	00173713          	seqz	a4,a4
80001a34:	00371713          	slli	a4,a4,0x3
80001a38:	00800693          	li	a3,8
80001a3c:	40e686b3          	sub	a3,a3,a4
80001a40:	00d7d7b3          	srl	a5,a5,a3
80001a44:	0f07f613          	andi	a2,a5,240
80001a48:	00163613          	seqz	a2,a2
80001a4c:	00261613          	slli	a2,a2,0x2
80001a50:	00400693          	li	a3,4
80001a54:	40c686b3          	sub	a3,a3,a2
80001a58:	00d7d7b3          	srl	a5,a5,a3
80001a5c:	00c7f693          	andi	a3,a5,12
80001a60:	0016b693          	seqz	a3,a3
80001a64:	00169693          	slli	a3,a3,0x1
80001a68:	00200813          	li	a6,2
80001a6c:	40d80533          	sub	a0,a6,a3
80001a70:	00a7d7b3          	srl	a5,a5,a0
80001a74:	0017d513          	srli	a0,a5,0x1
80001a78:	00154513          	xori	a0,a0,1
80001a7c:	00b70733          	add	a4,a4,a1
80001a80:	00157513          	andi	a0,a0,1
80001a84:	00e60633          	add	a2,a2,a4
80001a88:	40f80833          	sub	a6,a6,a5
80001a8c:	40a00733          	neg	a4,a0
80001a90:	01077733          	and	a4,a4,a6
80001a94:	00c68533          	add	a0,a3,a2
80001a98:	00a70533          	add	a0,a4,a0
80001a9c:	00008067          	ret

80001aa0 <__ctzsi2>:
80001aa0:	01051593          	slli	a1,a0,0x10
80001aa4:	0105d593          	srli	a1,a1,0x10
80001aa8:	0015b593          	seqz	a1,a1
80001aac:	00459593          	slli	a1,a1,0x4
80001ab0:	00b557b3          	srl	a5,a0,a1
80001ab4:	0ff7f613          	zext.b	a2,a5
80001ab8:	00163613          	seqz	a2,a2
80001abc:	00361613          	slli	a2,a2,0x3
80001ac0:	00c7d7b3          	srl	a5,a5,a2
80001ac4:	00f7f693          	andi	a3,a5,15
80001ac8:	0016b693          	seqz	a3,a3
80001acc:	00269693          	slli	a3,a3,0x2
80001ad0:	00d7d7b3          	srl	a5,a5,a3
80001ad4:	0037f713          	andi	a4,a5,3
80001ad8:	00173713          	seqz	a4,a4
80001adc:	00171713          	slli	a4,a4,0x1
80001ae0:	00e7d7b3          	srl	a5,a5,a4
80001ae4:	0017d513          	srli	a0,a5,0x1
80001ae8:	00b60633          	add	a2,a2,a1
80001aec:	0017f793          	andi	a5,a5,1
80001af0:	00157593          	andi	a1,a0,1
80001af4:	00200513          	li	a0,2
80001af8:	00c686b3          	add	a3,a3,a2
80001afc:	40b50533          	sub	a0,a0,a1
80001b00:	fff78793          	addi	a5,a5,-1 # fff <_entry_offset+0xfff>
80001b04:	00f57533          	and	a0,a0,a5
80001b08:	00d70733          	add	a4,a4,a3
80001b0c:	00e50533          	add	a0,a0,a4
80001b10:	00008067          	ret

80001b14 <strlen>:
80001b14:	02050663          	beqz	a0,80001b40 <strlen+0x2c>
80001b18:	00054783          	lbu	a5,0(a0)
80001b1c:	00050713          	mv	a4,a0
80001b20:	00000513          	li	a0,0
80001b24:	00078c63          	beqz	a5,80001b3c <strlen+0x28>
80001b28:	00150513          	addi	a0,a0,1
80001b2c:	00a707b3          	add	a5,a4,a0
80001b30:	0007c783          	lbu	a5,0(a5)
80001b34:	fe079ae3          	bnez	a5,80001b28 <strlen+0x14>
80001b38:	00008067          	ret
80001b3c:	00008067          	ret
80001b40:	ffc10113          	addi	sp,sp,-4
80001b44:	00800613          	li	a2,8
80001b48:	00001597          	auipc	a1,0x1
80001b4c:	57858593          	addi	a1,a1,1400 # 800030c0 <tests+0x56c>
80001b50:	00001517          	auipc	a0,0x1
80001b54:	d5850513          	addi	a0,a0,-680 # 800028a8 <names+0x1a4>
80001b58:	00112023          	sw	ra,0(sp)
80001b5c:	6e0000ef          	jal	ra,8000223c <printf>
80001b60:	00100513          	li	a0,1
80001b64:	c60ff0ef          	jal	ra,80000fc4 <halt>

80001b68 <strcat>:
80001b68:	00054783          	lbu	a5,0(a0)
80001b6c:	02078663          	beqz	a5,80001b98 <strcat+0x30>
80001b70:	00050793          	mv	a5,a0
80001b74:	0017c703          	lbu	a4,1(a5)
80001b78:	00178793          	addi	a5,a5,1
80001b7c:	fe071ce3          	bnez	a4,80001b74 <strcat+0xc>
80001b80:	0005c703          	lbu	a4,0(a1)
80001b84:	00178793          	addi	a5,a5,1
80001b88:	00158593          	addi	a1,a1,1
80001b8c:	fee78fa3          	sb	a4,-1(a5)
80001b90:	fe0718e3          	bnez	a4,80001b80 <strcat+0x18>
80001b94:	00008067          	ret
80001b98:	0005c703          	lbu	a4,0(a1)
80001b9c:	00050793          	mv	a5,a0
80001ba0:	00178793          	addi	a5,a5,1
80001ba4:	fee78fa3          	sb	a4,-1(a5)
80001ba8:	00158593          	addi	a1,a1,1
80001bac:	fc071ae3          	bnez	a4,80001b80 <strcat+0x18>
80001bb0:	fe5ff06f          	j	80001b94 <strcat+0x2c>

80001bb4 <strcmp>:
80001bb4:	00054783          	lbu	a5,0(a0)
80001bb8:	00079c63          	bnez	a5,80001bd0 <strcmp+0x1c>
80001bbc:	0380006f          	j	80001bf4 <strcmp+0x40>
80001bc0:	02f71063          	bne	a4,a5,80001be0 <strcmp+0x2c>
80001bc4:	00054783          	lbu	a5,0(a0)
80001bc8:	02078063          	beqz	a5,80001be8 <strcmp+0x34>
80001bcc:	00068593          	mv	a1,a3
80001bd0:	0005c703          	lbu	a4,0(a1)
80001bd4:	00150513          	addi	a0,a0,1
80001bd8:	00158693          	addi	a3,a1,1
80001bdc:	fe0712e3          	bnez	a4,80001bc0 <strcmp+0xc>
80001be0:	40e78533          	sub	a0,a5,a4
80001be4:	00008067          	ret
80001be8:	0015c703          	lbu	a4,1(a1)
80001bec:	40e78533          	sub	a0,a5,a4
80001bf0:	00008067          	ret
80001bf4:	0005c703          	lbu	a4,0(a1)
80001bf8:	fe9ff06f          	j	80001be0 <strcmp+0x2c>

80001bfc <strncmp>:
80001bfc:	00100713          	li	a4,1
80001c00:	00050793          	mv	a5,a0
80001c04:	00c50833          	add	a6,a0,a2
80001c08:	00100893          	li	a7,1
80001c0c:	00e61c63          	bne	a2,a4,80001c24 <strncmp+0x28>
80001c10:	0400006f          	j	80001c50 <strncmp+0x54>
80001c14:	00158693          	addi	a3,a1,1
80001c18:	03160463          	beq	a2,a7,80001c40 <strncmp+0x44>
80001c1c:	00068593          	mv	a1,a3
80001c20:	00070793          	mv	a5,a4
80001c24:	0007c503          	lbu	a0,0(a5)
80001c28:	0005c683          	lbu	a3,0(a1)
80001c2c:	00178713          	addi	a4,a5,1
80001c30:	40e80633          	sub	a2,a6,a4
80001c34:	fed500e3          	beq	a0,a3,80001c14 <strncmp+0x18>
80001c38:	40d50533          	sub	a0,a0,a3
80001c3c:	00008067          	ret
80001c40:	0017c503          	lbu	a0,1(a5)
80001c44:	0015c683          	lbu	a3,1(a1)
80001c48:	40d50533          	sub	a0,a0,a3
80001c4c:	00008067          	ret
80001c50:	00054503          	lbu	a0,0(a0)
80001c54:	0005c683          	lbu	a3,0(a1)
80001c58:	fe1ff06f          	j	80001c38 <strncmp+0x3c>

80001c5c <memcpy>:
80001c5c:	02060063          	beqz	a2,80001c7c <memcpy+0x20>
80001c60:	00c50633          	add	a2,a0,a2
80001c64:	00050793          	mv	a5,a0
80001c68:	0005c703          	lbu	a4,0(a1)
80001c6c:	00178793          	addi	a5,a5,1
80001c70:	00158593          	addi	a1,a1,1
80001c74:	fee78fa3          	sb	a4,-1(a5)
80001c78:	fec798e3          	bne	a5,a2,80001c68 <memcpy+0xc>
80001c7c:	00008067          	ret

80001c80 <number_to_str>:
80001c80:	fe810113          	addi	sp,sp,-24
80001c84:	00812823          	sw	s0,16(sp)
80001c88:	00912623          	sw	s1,12(sp)
80001c8c:	00112a23          	sw	ra,20(sp)
80001c90:	00060413          	mv	s0,a2
80001c94:	00050493          	mv	s1,a0
80001c98:	00058793          	mv	a5,a1
80001c9c:	04e67463          	bgeu	a2,a4,80001ce4 <number_to_str+0x64>
80001ca0:	0ff7f713          	zext.b	a4,a5
80001ca4:	00148513          	addi	a0,s1,1
80001ca8:	02040463          	beqz	s0,80001cd0 <number_to_str+0x50>
80001cac:	03770793          	addi	a5,a4,55
80001cb0:	0ff7f793          	zext.b	a5,a5
80001cb4:	00f48023          	sb	a5,0(s1)
80001cb8:	000480a3          	sb	zero,1(s1)
80001cbc:	01412083          	lw	ra,20(sp)
80001cc0:	01012403          	lw	s0,16(sp)
80001cc4:	00c12483          	lw	s1,12(sp)
80001cc8:	01810113          	addi	sp,sp,24
80001ccc:	00008067          	ret
80001cd0:	00900693          	li	a3,9
80001cd4:	fcf6ece3          	bltu	a3,a5,80001cac <number_to_str+0x2c>
80001cd8:	03070793          	addi	a5,a4,48
80001cdc:	0ff7f793          	zext.b	a5,a5
80001ce0:	fd5ff06f          	j	80001cb4 <number_to_str+0x34>
80001ce4:	00068813          	mv	a6,a3
80001ce8:	00c71463          	bne	a4,a2,80001cf0 <number_to_str+0x70>
80001cec:	fad5eae3          	bltu	a1,a3,80001ca0 <number_to_str+0x20>
80001cf0:	00080613          	mv	a2,a6
80001cf4:	00070693          	mv	a3,a4
80001cf8:	00078513          	mv	a0,a5
80001cfc:	00040593          	mv	a1,s0
80001d00:	00f12423          	sw	a5,8(sp)
80001d04:	01012223          	sw	a6,4(sp)
80001d08:	00e12023          	sw	a4,0(sp)
80001d0c:	cc1ff0ef          	jal	ra,800019cc <__udivdi3>
80001d10:	00412803          	lw	a6,4(sp)
80001d14:	00012703          	lw	a4,0(sp)
80001d18:	00058613          	mv	a2,a1
80001d1c:	00080693          	mv	a3,a6
80001d20:	00050593          	mv	a1,a0
80001d24:	00048513          	mv	a0,s1
80001d28:	f59ff0ef          	jal	ra,80001c80 <number_to_str>
80001d2c:	00812783          	lw	a5,8(sp)
80001d30:	00412803          	lw	a6,4(sp)
80001d34:	00012703          	lw	a4,0(sp)
80001d38:	00050893          	mv	a7,a0
80001d3c:	00040593          	mv	a1,s0
80001d40:	00078513          	mv	a0,a5
80001d44:	00080613          	mv	a2,a6
80001d48:	00070693          	mv	a3,a4
80001d4c:	00088413          	mv	s0,a7
80001d50:	c85ff0ef          	jal	ra,800019d4 <__umoddi3>
80001d54:	00900793          	li	a5,9
80001d58:	02a7d663          	bge	a5,a0,80001d84 <number_to_str+0x104>
80001d5c:	03750793          	addi	a5,a0,55
80001d60:	0ff7f793          	zext.b	a5,a5
80001d64:	00140513          	addi	a0,s0,1
80001d68:	00f40023          	sb	a5,0(s0)
80001d6c:	00050023          	sb	zero,0(a0)
80001d70:	01412083          	lw	ra,20(sp)
80001d74:	01012403          	lw	s0,16(sp)
80001d78:	00c12483          	lw	s1,12(sp)
80001d7c:	01810113          	addi	sp,sp,24
80001d80:	00008067          	ret
80001d84:	03050793          	addi	a5,a0,48
80001d88:	0ff7f793          	zext.b	a5,a5
80001d8c:	00140513          	addi	a0,s0,1
80001d90:	fd9ff06f          	j	80001d68 <number_to_str+0xe8>

80001d94 <vsprintf>:
80001d94:	bd810113          	addi	sp,sp,-1064
80001d98:	42112223          	sw	ra,1060(sp)
80001d9c:	42812023          	sw	s0,1056(sp)
80001da0:	40912e23          	sw	s1,1052(sp)
80001da4:	00a12423          	sw	a0,8(sp)
80001da8:	46058a63          	beqz	a1,8000221c <vsprintf+0x488>
80001dac:	0005c683          	lbu	a3,0(a1)
80001db0:	00012223          	sw	zero,4(sp)
80001db4:	00012023          	sw	zero,0(sp)
80001db8:	00058493          	mv	s1,a1
80001dbc:	00060313          	mv	t1,a2
80001dc0:	00050893          	mv	a7,a0
80001dc4:	02068063          	beqz	a3,80001de4 <vsprintf+0x50>
80001dc8:	02500713          	li	a4,37
80001dcc:	02e68e63          	beq	a3,a4,80001e08 <vsprintf+0x74>
80001dd0:	00d88023          	sb	a3,0(a7)
80001dd4:	0014c683          	lbu	a3,1(s1)
80001dd8:	00188893          	addi	a7,a7,1
80001ddc:	00148493          	addi	s1,s1,1
80001de0:	fe0694e3          	bnez	a3,80001dc8 <vsprintf+0x34>
80001de4:	00088023          	sb	zero,0(a7)
80001de8:	00812783          	lw	a5,8(sp)
80001dec:	42412083          	lw	ra,1060(sp)
80001df0:	42012403          	lw	s0,1056(sp)
80001df4:	00188513          	addi	a0,a7,1
80001df8:	41c12483          	lw	s1,1052(sp)
80001dfc:	40f50533          	sub	a0,a0,a5
80001e00:	42810113          	addi	sp,sp,1064
80001e04:	00008067          	ret
80001e08:	0014c603          	lbu	a2,1(s1)
80001e0c:	0cd60a63          	beq	a2,a3,80001ee0 <vsprintf+0x14c>
80001e10:	fe060693          	addi	a3,a2,-32
80001e14:	0ff6f693          	zext.b	a3,a3
80001e18:	00d00713          	li	a4,13
80001e1c:	00d76c63          	bltu	a4,a3,80001e34 <vsprintf+0xa0>
80001e20:	00003737          	lui	a4,0x3
80001e24:	80170713          	addi	a4,a4,-2047 # 2801 <_entry_offset+0x2801>
80001e28:	00d75733          	srl	a4,a4,a3
80001e2c:	00177713          	andi	a4,a4,1
80001e30:	0a071063          	bnez	a4,80001ed0 <vsprintf+0x13c>
80001e34:	00148493          	addi	s1,s1,1
80001e38:	00060593          	mv	a1,a2
80001e3c:	03000713          	li	a4,48
80001e40:	02000e13          	li	t3,32
80001e44:	00e59863          	bne	a1,a4,80001e54 <vsprintf+0xc0>
80001e48:	0014c583          	lbu	a1,1(s1)
80001e4c:	03000e13          	li	t3,48
80001e50:	00148493          	addi	s1,s1,1
80001e54:	fd058693          	addi	a3,a1,-48
80001e58:	0ff6f613          	zext.b	a2,a3
80001e5c:	00900713          	li	a4,9
80001e60:	00000813          	li	a6,0
80001e64:	02c76663          	bltu	a4,a2,80001e90 <vsprintf+0xfc>
80001e68:	00900513          	li	a0,9
80001e6c:	0014c583          	lbu	a1,1(s1)
80001e70:	00281713          	slli	a4,a6,0x2
80001e74:	01070733          	add	a4,a4,a6
80001e78:	00171713          	slli	a4,a4,0x1
80001e7c:	00d70833          	add	a6,a4,a3
80001e80:	fd058693          	addi	a3,a1,-48
80001e84:	0ff6f713          	zext.b	a4,a3
80001e88:	00148493          	addi	s1,s1,1
80001e8c:	fee570e3          	bgeu	a0,a4,80001e6c <vsprintf+0xd8>
80001e90:	02e00713          	li	a4,46
80001e94:	2ae58a63          	beq	a1,a4,80002148 <vsprintf+0x3b4>
80001e98:	0004c683          	lbu	a3,0(s1)
80001e9c:	07300713          	li	a4,115
80001ea0:	26e68463          	beq	a3,a4,80002108 <vsprintf+0x374>
80001ea4:	f9d68713          	addi	a4,a3,-99
80001ea8:	0ff77713          	zext.b	a4,a4
80001eac:	01500613          	li	a2,21
80001eb0:	04e66463          	bltu	a2,a4,80001ef8 <vsprintf+0x164>
80001eb4:	00001797          	auipc	a5,0x1
80001eb8:	2ac78793          	addi	a5,a5,684 # 80003160 <tests+0x60c>
80001ebc:	00271713          	slli	a4,a4,0x2
80001ec0:	00f70733          	add	a4,a4,a5
80001ec4:	00072703          	lw	a4,0(a4)
80001ec8:	00f70733          	add	a4,a4,a5
80001ecc:	00070067          	jr	a4
80001ed0:	0024c583          	lbu	a1,2(s1)
80001ed4:	00c12223          	sw	a2,4(sp)
80001ed8:	00248493          	addi	s1,s1,2
80001edc:	f61ff06f          	j	80001e3c <vsprintf+0xa8>
80001ee0:	00d88023          	sb	a3,0(a7)
80001ee4:	0024c683          	lbu	a3,2(s1)
80001ee8:	00188893          	addi	a7,a7,1
80001eec:	00248493          	addi	s1,s1,2
80001ef0:	ec069ce3          	bnez	a3,80001dc8 <vsprintf+0x34>
80001ef4:	ef1ff06f          	j	80001de4 <vsprintf+0x50>
80001ef8:	06600713          	li	a4,102
80001efc:	2ee69463          	bne	a3,a4,800021e4 <vsprintf+0x450>
80001f00:	00012783          	lw	a5,0(sp)
80001f04:	02e00713          	li	a4,46
80001f08:	00148493          	addi	s1,s1,1
80001f0c:	00e78023          	sb	a4,0(a5)
80001f10:	000780a3          	sb	zero,1(a5)
80001f14:	00178793          	addi	a5,a5,1
80001f18:	0004c683          	lbu	a3,0(s1)
80001f1c:	00f12023          	sw	a5,0(sp)
80001f20:	ec1ff06f          	j	80001de0 <vsprintf+0x4c>
80001f24:	00032583          	lw	a1,0(t1)
80001f28:	01c10413          	addi	s0,sp,28
80001f2c:	00000713          	li	a4,0
80001f30:	00430793          	addi	a5,t1,4
80001f34:	01000693          	li	a3,16
80001f38:	00000613          	li	a2,0
80001f3c:	00040513          	mv	a0,s0
80001f40:	01012a23          	sw	a6,20(sp)
80001f44:	01112823          	sw	a7,16(sp)
80001f48:	01c12c23          	sw	t3,24(sp)
80001f4c:	00f12623          	sw	a5,12(sp)
80001f50:	d31ff0ef          	jal	ra,80001c80 <number_to_str>
80001f54:	00040513          	mv	a0,s0
80001f58:	bbdff0ef          	jal	ra,80001b14 <strlen>
80001f5c:	01412803          	lw	a6,20(sp)
80001f60:	01012883          	lw	a7,16(sp)
80001f64:	40a80733          	sub	a4,a6,a0
80001f68:	2ae05263          	blez	a4,8000220c <vsprintf+0x478>
80001f6c:	01812e03          	lw	t3,24(sp)
80001f70:	00e88733          	add	a4,a7,a4
80001f74:	00188893          	addi	a7,a7,1
80001f78:	ffc88fa3          	sb	t3,-1(a7)
80001f7c:	fee89ce3          	bne	a7,a4,80001f74 <vsprintf+0x1e0>
80001f80:	00070023          	sb	zero,0(a4)
80001f84:	00070513          	mv	a0,a4
80001f88:	00040593          	mv	a1,s0
80001f8c:	00e12823          	sw	a4,16(sp)
80001f90:	bd9ff0ef          	jal	ra,80001b68 <strcat>
80001f94:	00040513          	mv	a0,s0
80001f98:	b7dff0ef          	jal	ra,80001b14 <strlen>
80001f9c:	01012703          	lw	a4,16(sp)
80001fa0:	0014c683          	lbu	a3,1(s1)
80001fa4:	00c12303          	lw	t1,12(sp)
80001fa8:	00a708b3          	add	a7,a4,a0
80001fac:	00148493          	addi	s1,s1,1
80001fb0:	e31ff06f          	j	80001de0 <vsprintf+0x4c>
80001fb4:	00032583          	lw	a1,0(t1)
80001fb8:	01c10413          	addi	s0,sp,28
80001fbc:	00000713          	li	a4,0
80001fc0:	00430793          	addi	a5,t1,4
80001fc4:	00a00693          	li	a3,10
80001fc8:	00000613          	li	a2,0
80001fcc:	00040513          	mv	a0,s0
80001fd0:	01012a23          	sw	a6,20(sp)
80001fd4:	01112823          	sw	a7,16(sp)
80001fd8:	01c12c23          	sw	t3,24(sp)
80001fdc:	00f12623          	sw	a5,12(sp)
80001fe0:	ca1ff0ef          	jal	ra,80001c80 <number_to_str>
80001fe4:	00040513          	mv	a0,s0
80001fe8:	b2dff0ef          	jal	ra,80001b14 <strlen>
80001fec:	01412803          	lw	a6,20(sp)
80001ff0:	01012883          	lw	a7,16(sp)
80001ff4:	40a80733          	sub	a4,a6,a0
80001ff8:	20e05a63          	blez	a4,8000220c <vsprintf+0x478>
80001ffc:	01812e03          	lw	t3,24(sp)
80002000:	00e88733          	add	a4,a7,a4
80002004:	00188893          	addi	a7,a7,1
80002008:	ffc88fa3          	sb	t3,-1(a7)
8000200c:	fee89ce3          	bne	a7,a4,80002004 <vsprintf+0x270>
80002010:	f71ff06f          	j	80001f80 <vsprintf+0x1ec>
80002014:	0014c683          	lbu	a3,1(s1)
80002018:	06400713          	li	a4,100
8000201c:	dce690e3          	bne	a3,a4,80001ddc <vsprintf+0x48>
80002020:	00032583          	lw	a1,0(t1)
80002024:	01c10413          	addi	s0,sp,28
80002028:	00000713          	li	a4,0
8000202c:	00430793          	addi	a5,t1,4
80002030:	00a00693          	li	a3,10
80002034:	00000613          	li	a2,0
80002038:	00040513          	mv	a0,s0
8000203c:	01012c23          	sw	a6,24(sp)
80002040:	01112823          	sw	a7,16(sp)
80002044:	01c12a23          	sw	t3,20(sp)
80002048:	00f12623          	sw	a5,12(sp)
8000204c:	c35ff0ef          	jal	ra,80001c80 <number_to_str>
80002050:	00040513          	mv	a0,s0
80002054:	ac1ff0ef          	jal	ra,80001b14 <strlen>
80002058:	01812803          	lw	a6,24(sp)
8000205c:	01012883          	lw	a7,16(sp)
80002060:	40a80733          	sub	a4,a6,a0
80002064:	1ae05863          	blez	a4,80002214 <vsprintf+0x480>
80002068:	01412e03          	lw	t3,20(sp)
8000206c:	00e88733          	add	a4,a7,a4
80002070:	00188893          	addi	a7,a7,1
80002074:	ffc88fa3          	sb	t3,-1(a7)
80002078:	fee89ce3          	bne	a7,a4,80002070 <vsprintf+0x2dc>
8000207c:	00070023          	sb	zero,0(a4)
80002080:	00070513          	mv	a0,a4
80002084:	00040593          	mv	a1,s0
80002088:	00e12823          	sw	a4,16(sp)
8000208c:	addff0ef          	jal	ra,80001b68 <strcat>
80002090:	00040513          	mv	a0,s0
80002094:	a81ff0ef          	jal	ra,80001b14 <strlen>
80002098:	01012703          	lw	a4,16(sp)
8000209c:	00148613          	addi	a2,s1,1
800020a0:	0024c683          	lbu	a3,2(s1)
800020a4:	00060493          	mv	s1,a2
800020a8:	00c12303          	lw	t1,12(sp)
800020ac:	00a708b3          	add	a7,a4,a0
800020b0:	00148493          	addi	s1,s1,1
800020b4:	d2dff06f          	j	80001de0 <vsprintf+0x4c>
800020b8:	00032583          	lw	a1,0(t1)
800020bc:	00430793          	addi	a5,t1,4
800020c0:	00f12623          	sw	a5,12(sp)
800020c4:	0a05cc63          	bltz	a1,8000217c <vsprintf+0x3e8>
800020c8:	00412783          	lw	a5,4(sp)
800020cc:	02b00713          	li	a4,43
800020d0:	12e78063          	beq	a5,a4,800021f0 <vsprintf+0x45c>
800020d4:	01c10413          	addi	s0,sp,28
800020d8:	02000713          	li	a4,32
800020dc:	00812023          	sw	s0,0(sp)
800020e0:	10e78863          	beq	a5,a4,800021f0 <vsprintf+0x45c>
800020e4:	00012223          	sw	zero,4(sp)
800020e8:	0ac0006f          	j	80002194 <vsprintf+0x400>
800020ec:	00032703          	lw	a4,0(t1)
800020f0:	00188893          	addi	a7,a7,1
800020f4:	00430313          	addi	t1,t1,4
800020f8:	fee88fa3          	sb	a4,-1(a7)
800020fc:	0014c683          	lbu	a3,1(s1)
80002100:	00148493          	addi	s1,s1,1
80002104:	cddff06f          	j	80001de0 <vsprintf+0x4c>
80002108:	00032783          	lw	a5,0(t1)
8000210c:	00088513          	mv	a0,a7
80002110:	00088023          	sb	zero,0(a7)
80002114:	00078593          	mv	a1,a5
80002118:	01112623          	sw	a7,12(sp)
8000211c:	00430413          	addi	s0,t1,4
80002120:	00f12023          	sw	a5,0(sp)
80002124:	a45ff0ef          	jal	ra,80001b68 <strcat>
80002128:	00012503          	lw	a0,0(sp)
8000212c:	00148493          	addi	s1,s1,1
80002130:	9e5ff0ef          	jal	ra,80001b14 <strlen>
80002134:	00c12883          	lw	a7,12(sp)
80002138:	0004c683          	lbu	a3,0(s1)
8000213c:	00040313          	mv	t1,s0
80002140:	00a888b3          	add	a7,a7,a0
80002144:	c9dff06f          	j	80001de0 <vsprintf+0x4c>
80002148:	0014c683          	lbu	a3,1(s1)
8000214c:	00900613          	li	a2,9
80002150:	00148793          	addi	a5,s1,1
80002154:	fd068713          	addi	a4,a3,-48
80002158:	0ff77713          	zext.b	a4,a4
8000215c:	00e66c63          	bltu	a2,a4,80002174 <vsprintf+0x3e0>
80002160:	0017c683          	lbu	a3,1(a5)
80002164:	00178793          	addi	a5,a5,1
80002168:	fd068713          	addi	a4,a3,-48
8000216c:	0ff77713          	zext.b	a4,a4
80002170:	fee678e3          	bgeu	a2,a4,80002160 <vsprintf+0x3cc>
80002174:	00078493          	mv	s1,a5
80002178:	d25ff06f          	j	80001e9c <vsprintf+0x108>
8000217c:	02d00713          	li	a4,45
80002180:	01d10793          	addi	a5,sp,29
80002184:	00e10e23          	sb	a4,28(sp)
80002188:	40b005b3          	neg	a1,a1
8000218c:	00f12023          	sw	a5,0(sp)
80002190:	01c10413          	addi	s0,sp,28
80002194:	00012503          	lw	a0,0(sp)
80002198:	00000713          	li	a4,0
8000219c:	00a00693          	li	a3,10
800021a0:	00000613          	li	a2,0
800021a4:	01012a23          	sw	a6,20(sp)
800021a8:	01112823          	sw	a7,16(sp)
800021ac:	01c12c23          	sw	t3,24(sp)
800021b0:	ad1ff0ef          	jal	ra,80001c80 <number_to_str>
800021b4:	00040513          	mv	a0,s0
800021b8:	95dff0ef          	jal	ra,80001b14 <strlen>
800021bc:	01412803          	lw	a6,20(sp)
800021c0:	01012883          	lw	a7,16(sp)
800021c4:	40a80733          	sub	a4,a6,a0
800021c8:	04e05263          	blez	a4,8000220c <vsprintf+0x478>
800021cc:	01812e03          	lw	t3,24(sp)
800021d0:	00e88733          	add	a4,a7,a4
800021d4:	00188893          	addi	a7,a7,1
800021d8:	ffc88fa3          	sb	t3,-1(a7)
800021dc:	fee89ce3          	bne	a7,a4,800021d4 <vsprintf+0x440>
800021e0:	da1ff06f          	j	80001f80 <vsprintf+0x1ec>
800021e4:	0014c683          	lbu	a3,1(s1)
800021e8:	00148493          	addi	s1,s1,1
800021ec:	bf5ff06f          	j	80001de0 <vsprintf+0x4c>
800021f0:	00412783          	lw	a5,4(sp)
800021f4:	01c10413          	addi	s0,sp,28
800021f8:	00012223          	sw	zero,4(sp)
800021fc:	00f10e23          	sb	a5,28(sp)
80002200:	01d10793          	addi	a5,sp,29
80002204:	00f12023          	sw	a5,0(sp)
80002208:	f8dff06f          	j	80002194 <vsprintf+0x400>
8000220c:	00088713          	mv	a4,a7
80002210:	d71ff06f          	j	80001f80 <vsprintf+0x1ec>
80002214:	00088713          	mv	a4,a7
80002218:	e65ff06f          	j	8000207c <vsprintf+0x2e8>
8000221c:	08100613          	li	a2,129
80002220:	00001597          	auipc	a1,0x1
80002224:	ef058593          	addi	a1,a1,-272 # 80003110 <tests+0x5bc>
80002228:	00000517          	auipc	a0,0x0
8000222c:	68050513          	addi	a0,a0,1664 # 800028a8 <names+0x1a4>
80002230:	00c000ef          	jal	ra,8000223c <printf>
80002234:	00100513          	li	a0,1
80002238:	d8dfe0ef          	jal	ra,80000fc4 <halt>

8000223c <printf>:
8000223c:	bd810113          	addi	sp,sp,-1064
80002240:	40112823          	sw	ra,1040(sp)
80002244:	40812623          	sw	s0,1036(sp)
80002248:	40912423          	sw	s1,1032(sp)
8000224c:	40b12a23          	sw	a1,1044(sp)
80002250:	40c12c23          	sw	a2,1048(sp)
80002254:	40d12e23          	sw	a3,1052(sp)
80002258:	42e12023          	sw	a4,1056(sp)
8000225c:	42f12223          	sw	a5,1060(sp)
80002260:	04050863          	beqz	a0,800022b0 <printf+0x74>
80002264:	41410613          	addi	a2,sp,1044
80002268:	00050593          	mv	a1,a0
8000226c:	00810513          	addi	a0,sp,8
80002270:	00c12223          	sw	a2,4(sp)
80002274:	b21ff0ef          	jal	ra,80001d94 <vsprintf>
80002278:	00a12023          	sw	a0,0(sp)
8000227c:	00a05e63          	blez	a0,80002298 <printf+0x5c>
80002280:	00810493          	addi	s1,sp,8
80002284:	00a48433          	add	s0,s1,a0
80002288:	0004c503          	lbu	a0,0(s1)
8000228c:	00148493          	addi	s1,s1,1
80002290:	d29fe0ef          	jal	ra,80000fb8 <putch>
80002294:	fe849ae3          	bne	s1,s0,80002288 <printf+0x4c>
80002298:	41012083          	lw	ra,1040(sp)
8000229c:	40c12403          	lw	s0,1036(sp)
800022a0:	00012503          	lw	a0,0(sp)
800022a4:	40812483          	lw	s1,1032(sp)
800022a8:	42810113          	addi	sp,sp,1064
800022ac:	00008067          	ret
800022b0:	07200613          	li	a2,114
800022b4:	00001597          	auipc	a1,0x1
800022b8:	e5c58593          	addi	a1,a1,-420 # 80003110 <tests+0x5bc>
800022bc:	00000517          	auipc	a0,0x0
800022c0:	5ec50513          	addi	a0,a0,1516 # 800028a8 <names+0x1a4>
800022c4:	f79ff0ef          	jal	ra,8000223c <printf>
800022c8:	00100513          	li	a0,1
800022cc:	cf9fe0ef          	jal	ra,80000fc4 <halt>
