
/home/jimple/Documents/ysyx/ysyx-workbench/am-kernels/tests/am-tests/build/amtest-riscv32e-ysyxsoc.elf:     file format elf32-littleriscv

Sections:
Idx Name          Size      VMA       LMA       File off  Algn
  0 .text         00000124  20000000  20000000  00001000  2**2
                  CONTENTS, ALLOC, LOAD, READONLY, CODE
  1 .rodata       0000001c  20000124  20000124  00001124  2**2
                  CONTENTS, ALLOC, LOAD, READONLY, DATA
  2 .srodata.mainargs 00000001  20000140  20000140  00001140  2**2
                  CONTENTS, ALLOC, LOAD, READONLY, DATA
  3 .bss          00000004  0f000000  20000141  00002000  2**2
                  ALLOC
  4 .comment      0000002b  00000000  00000000  00001141  2**0
                  CONTENTS, READONLY
  5 .riscv.attributes 0000001a  00000000  00000000  0000116c  2**0
                  CONTENTS, READONLY
SYMBOL TABLE:
20000000 l    d  .text	00000000 .text
20000124 l    d  .rodata	00000000 .rodata
20000140 l    d  .srodata.mainargs	00000000 .srodata.mainargs
0f000000 l    d  .bss	00000000 .bss
00000000 l    d  .comment	00000000 .comment
00000000 l    d  .riscv.attributes	00000000 .riscv.attributes
00000000 l    df *ABS*	00000000 start.o
00000000 l    df *ABS*	00000000 hello.c
00000000 l    df *ABS*	00000000 main.c
00000000 l    df *ABS*	00000000 trm.c
20000140 l     O .srodata.mainargs	00000001 mainargs
00000000 l    df *ABS*	00000000 string.c
0f000000 g     O .bss	00000004 entry
200000a0 g     F .text	00000060 _trm_init
20000141 g       .srodata.mainargs	00000000 _data_lma_end
0f002000 g       .bss	00000000 _stack_pointer
20000124 g       .text	00000000 _etext
20000010 g     F .text	0000004c hello
20000100 g     F .text	00000024 memcpy
20000000 g       *ABS*	00000000 _pmem_start
20000140 g       .rodata	00000000 _rodata_end
0f000000 g       .bss	00000000 _bss_start
20000141 g       .srodata.mainargs	00000000 edata
0f001800 g       *ABS*	00000000 _heap_end
20000088 g     F .text	00000018 putch
0f001000 g       *ABS*	00000000 _heap_start
0f001800 g       *ABS*	00000000 _stack_top
0f002000 g       .bss	00000000 end
20000124 g       .text	00000000 etext
20000000 g     F .text	00000000 _start
00000000 g       *ABS*	00000000 _entry_offset
2000005c g     F .text	0000002c main
0f000000 g       .srodata.mainargs	00000000 _data_vma_start
0f002000 g       .bss	00000000 _end
20000141 g       *ABS*	00000000 _data_lma_start



Disassembly of section .text:

20000000 <_start>:
20000000:	00000413          	li	s0,0
20000004:	ef002117          	auipc	sp,0xef002
20000008:	ffc10113          	addi	sp,sp,-4 # f002000 <_end>
2000000c:	094000ef          	jal	ra,200000a0 <_trm_init>

20000010 <hello>:
20000010:	ff410113          	addi	sp,sp,-12
20000014:	00812223          	sw	s0,4(sp)
20000018:	00112423          	sw	ra,8(sp)
2000001c:	00912023          	sw	s1,0(sp)
20000020:	00a00413          	li	s0,10
20000024:	00000497          	auipc	s1,0x0
20000028:	10048493          	addi	s1,s1,256 # 20000124 <_etext>
2000002c:	04800513          	li	a0,72
20000030:	00148493          	addi	s1,s1,1
20000034:	054000ef          	jal	ra,20000088 <putch>
20000038:	0004c503          	lbu	a0,0(s1)
2000003c:	fe051ae3          	bnez	a0,20000030 <hello+0x20>
20000040:	fff40413          	addi	s0,s0,-1
20000044:	fe0410e3          	bnez	s0,20000024 <hello+0x14>
20000048:	00812083          	lw	ra,8(sp)
2000004c:	00412403          	lw	s0,4(sp)
20000050:	00012483          	lw	s1,0(sp)
20000054:	00c10113          	addi	sp,sp,12
20000058:	00008067          	ret

2000005c <main>:
2000005c:	ff410113          	addi	sp,sp,-12
20000060:	00000797          	auipc	a5,0x0
20000064:	fb078793          	addi	a5,a5,-80 # 20000010 <hello>
20000068:	00112423          	sw	ra,8(sp)
2000006c:	ef000717          	auipc	a4,0xef000
20000070:	f8f72a23          	sw	a5,-108(a4) # f000000 <entry>
20000074:	f9dff0ef          	jal	ra,20000010 <hello>
20000078:	00812083          	lw	ra,8(sp)
2000007c:	00000513          	li	a0,0
20000080:	00c10113          	addi	sp,sp,12
20000084:	00008067          	ret

20000088 <putch>:
20000088:	10000737          	lui	a4,0x10000
2000008c:	00574783          	lbu	a5,5(a4) # 10000005 <_end+0xffe005>
20000090:	0207f793          	andi	a5,a5,32
20000094:	fe078ce3          	beqz	a5,2000008c <putch+0x4>
20000098:	00a70023          	sb	a0,0(a4)
2000009c:	00008067          	ret

200000a0 <_trm_init>:
200000a0:	ef000517          	auipc	a0,0xef000
200000a4:	f6050513          	addi	a0,a0,-160 # f000000 <entry>
200000a8:	ef000617          	auipc	a2,0xef000
200000ac:	f5860613          	addi	a2,a2,-168 # f000000 <entry>
200000b0:	ff410113          	addi	sp,sp,-12
200000b4:	40a60633          	sub	a2,a2,a0
200000b8:	00000597          	auipc	a1,0x0
200000bc:	08958593          	addi	a1,a1,137 # 20000141 <_data_lma_end>
200000c0:	00112423          	sw	ra,8(sp)
200000c4:	03c000ef          	jal	ra,20000100 <memcpy>
200000c8:	100007b7          	lui	a5,0x10000
200000cc:	f8000713          	li	a4,-128
200000d0:	00e781a3          	sb	a4,3(a5) # 10000003 <_end+0xffe003>
200000d4:	00100713          	li	a4,1
200000d8:	00e78023          	sb	a4,0(a5)
200000dc:	000780a3          	sb	zero,1(a5)
200000e0:	00300713          	li	a4,3
200000e4:	00e781a3          	sb	a4,3(a5)
200000e8:	00000517          	auipc	a0,0x0
200000ec:	05850513          	addi	a0,a0,88 # 20000140 <mainargs>
200000f0:	f6dff0ef          	jal	ra,2000005c <main>
200000f4:	00050513          	mv	a0,a0
200000f8:	00100073          	ebreak
200000fc:	0000006f          	j	200000fc <_trm_init+0x5c>

20000100 <memcpy>:
20000100:	02060063          	beqz	a2,20000120 <memcpy+0x20>
20000104:	00c50633          	add	a2,a0,a2
20000108:	00050793          	mv	a5,a0
2000010c:	0005c703          	lbu	a4,0(a1)
20000110:	00178793          	addi	a5,a5,1
20000114:	00158593          	addi	a1,a1,1
20000118:	fee78fa3          	sb	a4,-1(a5)
2000011c:	fec798e3          	bne	a5,a2,2000010c <memcpy+0xc>
20000120:	00008067          	ret
